
Lab2_Audio.elf:     file format elf32-littlenios2
Lab2_Audio.elf
architecture: nios2:r1, flags 0x00000112:
EXEC_P, HAS_SYMS, D_PAGED
start address 0x00800248

Program Header:
    LOAD off    0x00001000 vaddr 0x00800000 paddr 0x00800000 align 2**12
         filesz 0x00000020 memsz 0x00000020 flags r-x
    LOAD off    0x00001020 vaddr 0x00800020 paddr 0x00800020 align 2**12
         filesz 0x00006bb8 memsz 0x00006bb8 flags r-x
    LOAD off    0x00007bd8 vaddr 0x00806bd8 paddr 0x0080785c align 2**12
         filesz 0x00000c84 memsz 0x00000c84 flags rw-
    LOAD off    0x000094e0 vaddr 0x008084e0 paddr 0x008084e0 align 2**12
         filesz 0x00000000 memsz 0x00000154 flags rw-

Sections:
Idx Name          Size      VMA       LMA       File off  Algn
  0 .entry        00000020  00800000  00800000  00001000  2**5
                  CONTENTS, ALLOC, LOAD, READONLY, CODE
  1 .exceptions   00000228  00800020  00800020  00001020  2**2
                  CONTENTS, ALLOC, LOAD, READONLY, CODE
  2 .text         00006648  00800248  00800248  00001248  2**2
                  CONTENTS, ALLOC, LOAD, READONLY, CODE
  3 .rodata       00000348  00806890  00806890  00007890  2**2
                  CONTENTS, ALLOC, LOAD, READONLY, DATA
  4 .rwdata       00000c84  00806bd8  0080785c  00007bd8  2**2
                  CONTENTS, ALLOC, LOAD, DATA, SMALL_DATA
  5 .bss          00000154  008084e0  008084e0  000094e0  2**2
                  ALLOC, SMALL_DATA
  6 .sdram_0      00000000  00808634  00808634  0000885c  2**0
                  CONTENTS
  7 .comment      00000023  00000000  00000000  0000885c  2**0
                  CONTENTS, READONLY
  8 .debug_aranges 00000af0  00000000  00000000  00008880  2**3
                  CONTENTS, READONLY, DEBUGGING
  9 .debug_info   00017a38  00000000  00000000  00009370  2**0
                  CONTENTS, READONLY, DEBUGGING
 10 .debug_abbrev 0000661d  00000000  00000000  00020da8  2**0
                  CONTENTS, READONLY, DEBUGGING
 11 .debug_line   00007109  00000000  00000000  000273c5  2**0
                  CONTENTS, READONLY, DEBUGGING
 12 .debug_frame  00001a58  00000000  00000000  0002e4d0  2**2
                  CONTENTS, READONLY, DEBUGGING
 13 .debug_str    00002e06  00000000  00000000  0002ff28  2**0
                  CONTENTS, READONLY, DEBUGGING
 14 .debug_loc    000034a7  00000000  00000000  00032d2e  2**0
                  CONTENTS, READONLY, DEBUGGING
 15 .debug_alt_sim_info 00000060  00000000  00000000  000361d8  2**2
                  CONTENTS, READONLY, DEBUGGING
 16 .debug_ranges 00000518  00000000  00000000  00036238  2**3
                  CONTENTS, READONLY, DEBUGGING
 17 .thread_model 00000003  00000000  00000000  0003934a  2**0
                  CONTENTS, READONLY
 18 .cpu          0000000c  00000000  00000000  0003934d  2**0
                  CONTENTS, READONLY
 19 .qsys         00000001  00000000  00000000  00039359  2**0
                  CONTENTS, READONLY
 20 .simulation_enabled 00000001  00000000  00000000  0003935a  2**0
                  CONTENTS, READONLY
 21 .sysid_hash   00000004  00000000  00000000  0003935b  2**0
                  CONTENTS, READONLY
 22 .sysid_base   00000004  00000000  00000000  0003935f  2**0
                  CONTENTS, READONLY
 23 .sysid_time   00000004  00000000  00000000  00039363  2**0
                  CONTENTS, READONLY
 24 .stderr_dev   0000000b  00000000  00000000  00039367  2**0
                  CONTENTS, READONLY
 25 .stdin_dev    0000000b  00000000  00000000  00039372  2**0
                  CONTENTS, READONLY
 26 .stdout_dev   0000000b  00000000  00000000  0003937d  2**0
                  CONTENTS, READONLY
 27 .sopc_system_name 00000003  00000000  00000000  00039388  2**0
                  CONTENTS, READONLY
 28 .quartus_project_dir 00000023  00000000  00000000  0003938b  2**0
                  CONTENTS, READONLY
 29 .jdi          00005cd2  00000000  00000000  000393ae  2**0
                  CONTENTS, READONLY
 30 .sopcinfo     0008f4e8  00000000  00000000  0003f080  2**0
                  CONTENTS, READONLY
SYMBOL TABLE:
00800000 l    d  .entry	00000000 .entry
00800020 l    d  .exceptions	00000000 .exceptions
00800248 l    d  .text	00000000 .text
00806890 l    d  .rodata	00000000 .rodata
00806bd8 l    d  .rwdata	00000000 .rwdata
008084e0 l    d  .bss	00000000 .bss
00808634 l    d  .sdram_0	00000000 .sdram_0
00000000 l    d  .comment	00000000 .comment
00000000 l    d  .debug_aranges	00000000 .debug_aranges
00000000 l    d  .debug_info	00000000 .debug_info
00000000 l    d  .debug_abbrev	00000000 .debug_abbrev
00000000 l    d  .debug_line	00000000 .debug_line
00000000 l    d  .debug_frame	00000000 .debug_frame
00000000 l    d  .debug_str	00000000 .debug_str
00000000 l    d  .debug_loc	00000000 .debug_loc
00000000 l    d  .debug_alt_sim_info	00000000 .debug_alt_sim_info
00000000 l    d  .debug_ranges	00000000 .debug_ranges
00000000 l    df *ABS*	00000000 ../Lab2_Audio_bsp//obj/HAL/src/crt0.o
00800290 l       .text	00000000 alt_after_alt_main
00000000 l    df *ABS*	00000000 alt_irq_handler.c
00000000 l    df *ABS*	00000000 alt_instruction_exception_entry.c
00000000 l    df *ABS*	00000000 hello_world.c
00000000 l    df *ABS*	00000000 alt_load.c
00800354 l     F .text	00000068 alt_load_section
00000000 l    df *ABS*	00000000 alt_main.c
00000000 l    df *ABS*	00000000 alt_printf.c
00000000 l    df *ABS*	00000000 alt_putchar.c
00000000 l    df *ABS*	00000000 alt_sys_init.c
00800724 l     F .text	00000034 alt_dev_reg
00806bd8 l     O .rwdata	0000002c jtag_uart_0
00806c04 l     O .rwdata	00000120 lcd_display
00806d24 l     O .rwdata	000000c4 uart
00806de8 l     O .rwdata	00000030 audio_i2c_config
00806e18 l     O .rwdata	00000030 Audio
00000000 l    df *ABS*	00000000 altera_avalon_jtag_uart_fd.c
00000000 l    df *ABS*	00000000 altera_avalon_jtag_uart_read.c
00000000 l    df *ABS*	00000000 altera_avalon_jtag_uart_write.c
00000000 l    df *ABS*	00000000 altera_avalon_lcd_16207.c
0080781c l     O .rwdata	00000004 colstart
00800a70 l     F .text	000000b8 lcd_write_command
00800b28 l     F .text	000000d8 lcd_write_data
00800c00 l     F .text	000000d0 lcd_clear_screen
00800cd0 l     F .text	000001ec lcd_repaint_screen
00800ebc l     F .text	000000cc lcd_scroll_up
00800f88 l     F .text	000002ac lcd_handle_escape
0080170c l     F .text	000000ac alt_lcd_16207_timeout
00000000 l    df *ABS*	00000000 altera_avalon_lcd_16207_fd.c
00000000 l    df *ABS*	00000000 altera_avalon_timer_sc.c
0080194c l     F .text	0000007c alt_avalon_timer_sc_irq
00000000 l    df *ABS*	00000000 altera_avalon_uart_fd.c
00000000 l    df *ABS*	00000000 altera_avalon_uart_init.c
00801bf0 l     F .text	000000a0 altera_avalon_uart_irq
00801c90 l     F .text	000000e4 altera_avalon_uart_rxirq
00801d74 l     F .text	00000148 altera_avalon_uart_txirq
00000000 l    df *ABS*	00000000 altera_avalon_uart_read.c
00801f10 l     F .text	0000003c alt_get_errno
00000000 l    df *ABS*	00000000 altera_avalon_uart_write.c
00802128 l     F .text	0000003c alt_get_errno
00000000 l    df *ABS*	00000000 altera_up_avalon_audio.c
00000000 l    df *ABS*	00000000 alt_alarm_start.c
00000000 l    df *ABS*	00000000 alt_close.c
00802be4 l     F .text	0000003c alt_get_errno
00000000 l    df *ABS*	00000000 alt_dcache_flush_all.c
00000000 l    df *ABS*	00000000 alt_dev.c
00802d38 l     F .text	0000002c alt_dev_null_write
00000000 l    df *ABS*	00000000 alt_dev_llist_insert.c
00802d64 l     F .text	0000003c alt_get_errno
00000000 l    df *ABS*	00000000 alt_do_ctors.c
00000000 l    df *ABS*	00000000 alt_do_dtors.c
00000000 l    df *ABS*	00000000 alt_errno.c
00000000 l    df *ABS*	00000000 alt_find_dev.c
00000000 l    df *ABS*	00000000 alt_icache_flush_all.c
00000000 l    df *ABS*	00000000 alt_io_redirect.c
00802fc8 l     F .text	000000c4 alt_open_fd
00000000 l    df *ABS*	00000000 alt_irq_register.c
00000000 l    df *ABS*	00000000 alt_irq_vars.c
00000000 l    df *ABS*	00000000 alt_open.c
00803288 l     F .text	0000003c alt_get_errno
008032c4 l     F .text	000000c4 alt_file_locked
00000000 l    df *ABS*	00000000 alt_release_fd.c
00000000 l    df *ABS*	00000000 alt_tick.c
00000000 l    df *ABS*	00000000 alt_usleep.c
00000000 l    df *ABS*	00000000 altera_nios2_gen2_irq.c
00000000 l    df *ABS*	00000000 alt_busy_sleep.c
00000000 l    df *ABS*	00000000 alt_find_file.c
00000000 l    df *ABS*	00000000 alt_get_fd.c
00000000 l    df *ABS*	00000000 alt_icache_flush.c
00000000 l    df *ABS*	00000000 atexit.c
00000000 l    df *ABS*	00000000 ctype_.c
00806a53 l     O .rodata	00000180 _ctype_b
00000000 l    df *ABS*	00000000 exit.c
00000000 l    df *ABS*	00000000 impure.c
00806ff0 l     O .rwdata	00000424 impure_data
00000000 l    df *ABS*	00000000 int_errno.c
00000000 l    df *ABS*	00000000 memcmp.c
00000000 l    df *ABS*	00000000 memcpy.c
00000000 l    df *ABS*	00000000 memset.c
00000000 l    df *ABS*	00000000 putc.c
00000000 l    df *ABS*	00000000 strlen.c
00000000 l    df *ABS*	00000000 wbuf.c
00000000 l    df *ABS*	00000000 wsetup.c
00000000 l    df *ABS*	00000000 __atexit.c
00000000 l    df *ABS*	00000000 __call_atexit.c
00000000 l    df *ABS*	00000000 fflush.c
00000000 l    df *ABS*	00000000 findfp.c
0080488c l     F .text	00000008 __fp_unlock
008048a0 l     F .text	0000019c __sinit.part.1
00804a3c l     F .text	00000008 __fp_lock
00000000 l    df *ABS*	00000000 mallocr.c
00000000 l    df *ABS*	00000000 fwalk.c
00000000 l    df *ABS*	00000000 makebuf.c
00000000 l    df *ABS*	00000000 mallocr.c
00000000 l    df *ABS*	00000000 sbrkr.c
00000000 l    df *ABS*	00000000 stdio.c
00000000 l    df *ABS*	00000000 writer.c
00000000 l    df *ABS*	00000000 closer.c
00000000 l    df *ABS*	00000000 fclose.c
00000000 l    df *ABS*	00000000 fstatr.c
00000000 l    df *ABS*	00000000 isattyr.c
00000000 l    df *ABS*	00000000 lseekr.c
00000000 l    df *ABS*	00000000 readr.c
00000000 l    df *ABS*	00000000 lib2-divmod.c
00000000 l    df *ABS*	00000000 alt_exit.c
00000000 l    df *ABS*	00000000 alt_fstat.c
00806250 l     F .text	0000003c alt_get_errno
00000000 l    df *ABS*	00000000 alt_isatty.c
0080633c l     F .text	0000003c alt_get_errno
00000000 l    df *ABS*	00000000 alt_lseek.c
0080641c l     F .text	0000003c alt_get_errno
00000000 l    df *ABS*	00000000 alt_malloc_lock.c
00000000 l    df *ABS*	00000000 alt_read.c
00806574 l     F .text	0000003c alt_get_errno
00000000 l    df *ABS*	00000000 alt_sbrk.c
00807858 l     O .rwdata	00000004 heap_end
00000000 l    df *ABS*	00000000 alt_write.c
0080675c l     F .text	0000003c alt_get_errno
008084f8 g     O .bss	00000004 alt_instruction_exception_handler
00805f54 g     F .text	00000054 _isatty_r
00800440 g     F .text	0000007c alt_main
00808534 g     O .bss	00000100 alt_irq
00805fa8 g     F .text	00000060 _lseek_r
0080785c g       *ABS*	00000000 __flash_rwdata_start
008025b8 g     F .text	00000060 alt_up_audio_read_fifo_avail
00808634 g       *ABS*	00000000 __alt_heap_start
00802618 g     F .text	00000068 alt_up_audio_record_r
00805cdc g     F .text	0000005c __sseek
00804bdc g     F .text	00000010 __sinit
008040a0 g     F .text	00000140 __swbuf_r
00804a44 g     F .text	00000068 __sfmoreglue
00806550 g     F .text	00000024 __malloc_unlock
00802524 g     F .text	00000094 alt_up_audio_reset_audio_core
00804bc4 g     F .text	00000018 _cleanup
00803714 g     F .text	00000024 altera_nios2_gen2_irq_init
00800000 g     F .entry	0000001c __reset
00800020 g       *ABS*	00000000 __flash_exceptions_start
00805ef8 g     F .text	0000005c _fstat_r
008084fc g     O .bss	00000004 errno
00805c58 g     F .text	00000008 __seofread
008024e4 g     F .text	00000040 alt_up_audio_write_interrupt_pending
008084e4 g     O .bss	00000004 alt_argv
0080f81c g       *ABS*	00000000 _gp
008036e4 g     F .text	00000030 usleep
00806e70 g     O .rwdata	00000180 alt_fd_list
00802f04 g     F .text	00000090 alt_find_dev
00803c30 g     F .text	00000148 memcpy
00804894 g     F .text	0000000c _cleanup_r
0080308c g     F .text	0000007c alt_io_redirect
00806890 g       *ABS*	00000000 __DTOR_END__
00803acc g     F .text	0000009c alt_exception_cause_generated_bad_addr
00802a00 g     F .text	00000050 alt_up_audio_read_fifo_head
008008f0 g     F .text	000000ec altera_avalon_jtag_uart_read
00806160 g     F .text	00000064 .hidden __udivsi3
00806378 g     F .text	000000a4 isatty
00803a3c g     F .text	00000090 alt_icache_flush
00808508 g     O .bss	00000004 __malloc_top_pad
00805bb0 g     F .text	00000054 _sbrk_r
00806008 g     F .text	00000060 _read_r
00807830 g     O .rwdata	00000004 alt_max_fd
00802a50 g     F .text	00000068 alt_up_audio_write_fifo_head
00805df4 g     F .text	000000f0 _fclose_r
0080485c g     F .text	00000030 fflush
00808504 g     O .bss	00000004 __malloc_max_sbrked_mem
00803108 g     F .text	00000180 alt_irq_register
00806458 g     F .text	000000d4 lseek
00807848 g     O .rwdata	00000004 _global_impure_ptr
00808634 g       *ABS*	00000000 __bss_end
008035dc g     F .text	00000108 alt_tick
00801b4c g     F .text	000000a4 altera_avalon_uart_init
00802310 g     F .text	0000003c alt_up_audio_open_dev
00804bfc g     F .text	00000018 __fp_lock_all
00802748 g     F .text	00000068 alt_up_audio_play_r
00803540 g     F .text	0000009c alt_alarm_stop
008084ec g     O .bss	00000004 alt_irq_active
008000fc g     F .exceptions	000000d8 alt_irq_handler
00806e48 g     O .rwdata	00000028 alt_dev_null
00802cf0 g     F .text	00000048 alt_dcache_flush_all
0080785c g       *ABS*	00000000 __ram_rwdata_end
00807828 g     O .rwdata	00000008 alt_dev_list
00806798 g     F .text	000000f8 write
00803ea0 g     F .text	000000a0 _putc_r
00806bd8 g       *ABS*	00000000 __ram_rodata_end
0080628c g     F .text	000000b0 fstat
008061c4 g     F .text	00000058 .hidden __umodsi3
00808634 g       *ABS*	00000000 end
00801234 g     F .text	000004d8 altera_avalon_lcd_16207_write
00802164 g     F .text	000001ac altera_avalon_uart_write
008001d4 g     F .exceptions	00000074 alt_instruction_exception_entry
00806890 g       *ABS*	00000000 __CTOR_LIST__
01000000 g       *ABS*	00000000 __alt_stack_pointer
008019c8 g     F .text	00000074 alt_avalon_timer_sc_init
00801a9c g     F .text	00000060 altera_avalon_uart_write_fd
00801afc g     F .text	00000050 altera_avalon_uart_close_fd
008009dc g     F .text	00000094 altera_avalon_jtag_uart_write
00804bec g     F .text	00000004 __sfp_lock_acquire
00804d50 g     F .text	00000310 _free_r
008004bc g     F .text	0000022c alt_printf
00804464 g     F .text	00000180 __call_exitprocs
00807850 g     O .rwdata	00000004 __malloc_sbrk_base
00800248 g     F .text	0000004c _start
008084f0 g     O .bss	00000004 _alt_tick_rate
008028f8 g     F .text	00000108 alt_up_audio_write_fifo
008084f4 g     O .bss	00000004 _alt_nticks
008065b0 g     F .text	000000fc read
00800790 g     F .text	000000a0 alt_sys_init
00802818 g     F .text	000000e0 alt_up_audio_read_fifo
0080434c g     F .text	00000118 __register_exitproc
0080244c g     F .text	00000058 alt_up_audio_disable_write_interrupt
00806bd8 g       *ABS*	00000000 __ram_rwdata_start
00806890 g       *ABS*	00000000 __ram_rodata_start
0080850c g     O .bss	00000028 __malloc_current_mallinfo
00800830 g     F .text	00000060 altera_avalon_jtag_uart_read_fd
00803998 g     F .text	000000a4 alt_get_fd
00803738 g     F .text	00000158 alt_busy_sleep
00805da0 g     F .text	00000054 _close_r
008023f8 g     F .text	00000054 alt_up_audio_enable_write_interrupt
00803bb4 g     F .text	0000007c memcmp
00808634 g       *ABS*	00000000 __alt_stack_base
008041f8 g     F .text	00000154 __swsetup_r
008023a0 g     F .text	00000058 alt_up_audio_disable_read_interrupt
00804aac g     F .text	00000118 __sfp
00807414 g     O .rwdata	00000408 __malloc_av_
00804bf8 g     F .text	00000004 __sinit_lock_release
00805c04 g     F .text	00000054 __sread
00803890 g     F .text	00000108 alt_find_file
00802da0 g     F .text	000000a4 alt_dev_llist_insert
0080652c g     F .text	00000024 __malloc_lock
008066ac g     F .text	000000b0 sbrk
00804800 g     F .text	0000005c _fflush_r
008084e0 g       *ABS*	00000000 __bss_start
00803d78 g     F .text	00000128 memset
00800294 g     F .text	000000c0 main
008026e8 g     F .text	00000060 alt_up_audio_write_fifo_space
008084e8 g     O .bss	00000004 alt_envp
00808500 g     O .bss	00000004 __malloc_max_total_mem
00800890 g     F .text	00000060 altera_avalon_jtag_uart_write_fd
008041e0 g     F .text	00000018 __swbuf
008017b8 g     F .text	00000134 altera_avalon_lcd_16207_init
00805d38 g     F .text	00000008 __sclose
01000000 g       *ABS*	00000000 __alt_heap_limit
00805ee4 g     F .text	00000014 fclose
008053a4 g     F .text	0000080c _malloc_r
00807834 g     O .rwdata	00000004 alt_errno
00805060 g     F .text	000000c4 _fwalk
00803f40 g     F .text	000000c8 putc
00806068 g     F .text	00000084 .hidden __divsi3
00804c2c g     F .text	00000124 _malloc_trim_r
00806890 g       *ABS*	00000000 __CTOR_END__
00806890 g       *ABS*	00000000 __flash_rodata_start
00806890 g       *ABS*	00000000 __DTOR_LIST__
00800758 g     F .text	00000038 alt_irq_init
008034dc g     F .text	00000064 alt_release_fd
00803b68 g     F .text	00000014 atexit
00805d40 g     F .text	00000060 _write_r
0080784c g     O .rwdata	00000004 _impure_ptr
008084e0 g     O .bss	00000004 alt_argc
008045e4 g     F .text	0000021c __sflush_r
00802ea4 g     F .text	00000060 _do_dtors
00800000 g       *ABS*	00000000 __alt_mem_sdram_0
00800020 g       .exceptions	00000000 alt_irq_entry
00804c14 g     F .text	00000018 __fp_unlock_all
008018ec g     F .text	00000060 altera_avalon_lcd_16207_write_fd
00807820 g     O .rwdata	00000008 alt_fs_list
00802680 g     F .text	00000068 alt_up_audio_record_l
00800020 g       *ABS*	00000000 __ram_exceptions_start
0080785c g       *ABS*	00000000 _edata
00801a3c g     F .text	00000060 altera_avalon_uart_read_fd
00808634 g       *ABS*	00000000 _end
00800248 g       *ABS*	00000000 __ram_exceptions_end
008027b0 g     F .text	00000068 alt_up_audio_play_l
00805c60 g     F .text	0000007c __swrite
00807854 g     O .rwdata	00000004 __malloc_trim_threshold
00803b7c g     F .text	00000038 exit
00805124 g     F .text	000000c4 _fwalk_reent
008060ec g     F .text	00000074 .hidden __modsi3
00807844 g     O .rwdata	00000004 __ctype_ptr__
01000000 g       *ABS*	00000000 __alt_data_end
00800020 g     F .exceptions	00000000 alt_exception
00804bf0 g     F .text	00000004 __sfp_lock_release
00806952 g     O .rodata	00000101 _ctype_
00801ebc g     F .text	00000054 altera_avalon_uart_close
0080621c g     F .text	00000034 _exit
00802ab8 g     F .text	0000012c alt_alarm_start
008051e8 g     F .text	000001bc __smakebuf_r
00804008 g     F .text	00000098 strlen
00803388 g     F .text	00000154 open
008006e8 g     F .text	0000003c alt_putchar
00802f94 g     F .text	00000034 alt_icache_flush_all
00807838 g     O .rwdata	00000004 alt_priority_mask
00801f4c g     F .text	000001dc altera_avalon_uart_read
0080783c g     O .rwdata	00000008 alt_alarm_list
00802e44 g     F .text	00000060 _do_ctors
00802c20 g     F .text	000000d0 close
008003bc g     F .text	00000084 alt_load
0080234c g     F .text	00000054 alt_up_audio_enable_read_interrupt
00804bf4 g     F .text	00000004 __sinit_lock_acquire
008024a4 g     F .text	00000040 alt_up_audio_read_interrupt_pending



Disassembly of section .entry:

00800000 <__reset>:
#if NIOS2_ICACHE_SIZE > 0 && defined(ALT_ALLOW_CODE_AT_RESET) && (!defined(ALT_SIM_OPTIMIZE) || defined(NIOS2_ECC_PRESENT))
    /* Assume the instruction cache size is always a power of two. */
#if NIOS2_ICACHE_SIZE > 0x8000
    movhi r2, %hi(NIOS2_ICACHE_SIZE)
#else
    movui r2, NIOS2_ICACHE_SIZE
  800000:	00840014 	movui	r2,4096
#endif

0:
    initi r2
  800004:	1001483a 	initi	r2
    addi r2, r2, -NIOS2_ICACHE_LINE_SIZE
  800008:	10bff804 	addi	r2,r2,-32
    bgt r2, zero, 0b
  80000c:	00bffd16 	blt	zero,r2,800004 <__alt_data_end+0xff800004>
 * Jump to the _start entry point in the .text section if reset code
 * is allowed or if optimizing for RTL simulation.
 */
#if defined(ALT_ALLOW_CODE_AT_RESET) || defined(ALT_SIM_OPTIMIZE)
    /* Jump to the _start entry point in the .text section. */
    movhi r1, %hi(_start)
  800010:	00402034 	movhi	at,128
    ori r1, r1, %lo(_start)
  800014:	08409214 	ori	at,at,584
    jmp r1
  800018:	0800683a 	jmp	at
  80001c:	00000000 	call	0 <__alt_mem_sdram_0-0x800000>

Disassembly of section .exceptions:

00800020 <alt_exception>:

#else /* ALT_EXCEPTION_STACK disabled */
        /* 
         * Reserve space on normal stack for registers about to be pushed.
         */
        addi  sp, sp, -76
  800020:	deffed04 	addi	sp,sp,-76
         * documentation for details).
         *
         * Leave a gap in the stack frame at 4(sp) for the muldiv handler to
         * store zero into.
         */
        stw   ra,  0(sp)
  800024:	dfc00015 	stw	ra,0(sp)
        stw   r1,   8(sp)
  800028:	d8400215 	stw	at,8(sp)
        stw   r2,  12(sp)
  80002c:	d8800315 	stw	r2,12(sp)
        stw   r3,  16(sp)
  800030:	d8c00415 	stw	r3,16(sp)
        stw   r4,  20(sp)
  800034:	d9000515 	stw	r4,20(sp)
        stw   r5,  24(sp)
  800038:	d9400615 	stw	r5,24(sp)
        stw   r6,  28(sp)
  80003c:	d9800715 	stw	r6,28(sp)
        stw   r7,  32(sp)
  800040:	d9c00815 	stw	r7,32(sp)
        rdctl r5, estatus   /* Read early to avoid usage stall */
  800044:	000b307a 	rdctl	r5,estatus
        stw   r8,  36(sp)
  800048:	da000915 	stw	r8,36(sp)
        stw   r9,  40(sp)
  80004c:	da400a15 	stw	r9,40(sp)
        stw   r10, 44(sp)
  800050:	da800b15 	stw	r10,44(sp)
        stw   r11, 48(sp)
  800054:	dac00c15 	stw	r11,48(sp)
        stw   r12, 52(sp)
  800058:	db000d15 	stw	r12,52(sp)
        stw   r13, 56(sp)
  80005c:	db400e15 	stw	r13,56(sp)
        stw   r14, 60(sp)
  800060:	db800f15 	stw	r14,60(sp)
        stw   r15, 64(sp)
  800064:	dbc01015 	stw	r15,64(sp)
        /*
         * ea-4 contains the address of the instruction being executed
         * when the exception occured. For interrupt exceptions, we will
         * will be re-issue the isntruction. Store it in 72(sp)
         */
        stw   r5,  68(sp)  /* estatus */
  800068:	d9401115 	stw	r5,68(sp)
        addi  r15, ea, -4  /* instruction that caused exception */
  80006c:	ebffff04 	addi	r15,ea,-4
        stw   r15,  72(sp)
  800070:	dbc01215 	stw	r15,72(sp)
#else
        /*
         * Test to see if the exception was a software exception or caused 
         * by an external interrupt, and vector accordingly.
         */
        rdctl r4, ipending
  800074:	0009313a 	rdctl	r4,ipending
        andi  r2, r5, 1
  800078:	2880004c 	andi	r2,r5,1
        beq   r2, zero, .Lnot_irq
  80007c:	10000326 	beq	r2,zero,80008c <alt_exception+0x6c>
        beq   r4, zero, .Lnot_irq
  800080:	20000226 	beq	r4,zero,80008c <alt_exception+0x6c>
        /*
         * Now that all necessary registers have been preserved, call 
         * alt_irq_handler() to process the interrupts.
         */

        call alt_irq_handler
  800084:	08000fc0 	call	8000fc <alt_irq_handler>

        .section .exceptions.irqreturn, "xa"

        br    .Lexception_exit
  800088:	00000706 	br	8000a8 <alt_exception+0x88>
         * upon completion, so we write ea (address of instruction *after*
         * the one where the exception occured) into 72(sp). The actual
         * instruction that caused the exception is written in r2, which these
         * handlers will utilize.
         */
        stw ea, 72(sp) /* EA is PC+4 so will skip over instruction causing exception */
  80008c:	df401215 	stw	ea,72(sp)
.Lunknown_16bit:
        addi.n r4, r4, 2 /* Need PC+2 to skip over instruction causing exception */
        stw r4, 72(sp)

#else /* CDX is not Enabled and all instructions are 32bits */
        ldw r2, -4(ea) /* Instruction value that caused exception */
  800090:	e8bfff17 	ldw	r2,-4(ea)
         * debugger is present) or go into an infinite loop since the
         * handling behavior is undefined; in that case we will not return here.
         */

        /* Load exception-causing address as first argument (r4) */
        addi   r4, ea, -4
  800094:	e93fff04 	addi	r4,ea,-4

        /* Call the instruction-exception entry */
        call   alt_instruction_exception_entry
  800098:	08001d40 	call	8001d4 <alt_instruction_exception_entry>
         * instruction
         *
         * Return code was 0: Skip. The instruction after the exception is
         * already stored in 72(sp).
         */
        bne   r2, r0, .Lexception_exit
  80009c:	1000021e 	bne	r2,zero,8000a8 <alt_exception+0x88>

        /*
         * Otherwise, modify 72(sp) to re-issue the instruction that caused the
         * exception.
         */
        addi  r15, ea, -4  /* instruction that caused exception */
  8000a0:	ebffff04 	addi	r15,ea,-4
        stw   r15,  72(sp)
  8000a4:	dbc01215 	stw	r15,72(sp)
        /* 
         * Restore the saved registers, so that all general purpose registers 
         * have been restored to their state at the time the interrupt occured.
         */

        ldw   r5,  68(sp)
  8000a8:	d9401117 	ldw	r5,68(sp)
        ldw   ea,  72(sp)  /* This becomes the PC once eret is executed */
  8000ac:	df401217 	ldw	ea,72(sp)
        ldw   ra,   0(sp)
  8000b0:	dfc00017 	ldw	ra,0(sp)

        wrctl estatus, r5
  8000b4:	2801707a 	wrctl	estatus,r5

        ldw   r1,   8(sp)
  8000b8:	d8400217 	ldw	at,8(sp)
        ldw   r2,  12(sp)
  8000bc:	d8800317 	ldw	r2,12(sp)
        ldw   r3,  16(sp)
  8000c0:	d8c00417 	ldw	r3,16(sp)
        ldw   r4,  20(sp)
  8000c4:	d9000517 	ldw	r4,20(sp)
        ldw   r5,  24(sp)
  8000c8:	d9400617 	ldw	r5,24(sp)
        ldw   r6,  28(sp)
  8000cc:	d9800717 	ldw	r6,28(sp)
        ldw   r7,  32(sp)
  8000d0:	d9c00817 	ldw	r7,32(sp)

#if defined(ALT_EXCEPTION_STACK) && defined(ALT_STACK_CHECK)
        ldw   et, %gprel(alt_exception_old_stack_limit)(gp)
#endif

        ldw   r8,  36(sp)
  8000d4:	da000917 	ldw	r8,36(sp)
        ldw   r9,  40(sp)
  8000d8:	da400a17 	ldw	r9,40(sp)
        ldw   r10, 44(sp)
  8000dc:	da800b17 	ldw	r10,44(sp)
        ldw   r11, 48(sp)
  8000e0:	dac00c17 	ldw	r11,48(sp)
        ldw   r12, 52(sp)
  8000e4:	db000d17 	ldw	r12,52(sp)
        ldw   r13, 56(sp)
  8000e8:	db400e17 	ldw	r13,56(sp)
        ldw   r14, 60(sp)
  8000ec:	db800f17 	ldw	r14,60(sp)
        ldw   r15, 64(sp)
  8000f0:	dbc01017 	ldw	r15,64(sp)
        stw   et, %gprel(alt_stack_limit_value)(gp)
        stw   zero, %gprel(alt_exception_old_stack_limit)(gp)
#endif /* ALT_STACK_CHECK */
        ldw   sp,  76(sp)
#else /* ALT_EXCEPTION_STACK disabled */
        addi  sp, sp, 76
  8000f4:	dec01304 	addi	sp,sp,76

        /*
         * Return to the interrupted instruction.
         */

        eret
  8000f8:	ef80083a 	eret

008000fc <alt_irq_handler>:
 * instruction is present if the macro ALT_CI_INTERRUPT_VECTOR defined.
 */

void alt_irq_handler (void) __attribute__ ((section (".exceptions")));
void alt_irq_handler (void)
{
  8000fc:	defff904 	addi	sp,sp,-28
  800100:	dfc00615 	stw	ra,24(sp)
  800104:	df000515 	stw	fp,20(sp)
  800108:	df000504 	addi	fp,sp,20
  
  /*
   * Notify the operating system that we are at interrupt level.
   */ 
  
  ALT_OS_INT_ENTER();
  80010c:	0001883a 	nop
#ifndef NIOS2_EIC_PRESENT
static ALT_INLINE alt_u32 ALT_ALWAYS_INLINE alt_irq_pending (void)
{
  alt_u32 active;

  NIOS2_READ_IPENDING (active);
  800110:	0005313a 	rdctl	r2,ipending
  800114:	e0bffe15 	stw	r2,-8(fp)

  return active;
  800118:	e0bffe17 	ldw	r2,-8(fp)
   * Consider the case where the high priority interupt is asserted during
   * the interrupt entry sequence for a lower priority interrupt to see why
   * this is the case.
   */

  active = alt_irq_pending ();
  80011c:	e0bffb15 	stw	r2,-20(fp)

  do
  {
    i = 0;
  800120:	e03ffd15 	stw	zero,-12(fp)
    mask = 1;
  800124:	00800044 	movi	r2,1
  800128:	e0bffc15 	stw	r2,-16(fp)
     * called to clear the interrupt condition.
     */

    do
    {
      if (active & mask)
  80012c:	e0fffb17 	ldw	r3,-20(fp)
  800130:	e0bffc17 	ldw	r2,-16(fp)
  800134:	1884703a 	and	r2,r3,r2
  800138:	10001526 	beq	r2,zero,800190 <alt_irq_handler+0x94>
      { 
#ifdef ALT_ENHANCED_INTERRUPT_API_PRESENT
        alt_irq[i].handler(alt_irq[i].context); 
#else
        alt_irq[i].handler(alt_irq[i].context, i); 
  80013c:	00802074 	movhi	r2,129
  800140:	10a14d04 	addi	r2,r2,-31436
  800144:	e0fffd17 	ldw	r3,-12(fp)
  800148:	180690fa 	slli	r3,r3,3
  80014c:	10c5883a 	add	r2,r2,r3
  800150:	10c00017 	ldw	r3,0(r2)
  800154:	00802074 	movhi	r2,129
  800158:	10a14d04 	addi	r2,r2,-31436
  80015c:	e13ffd17 	ldw	r4,-12(fp)
  800160:	200890fa 	slli	r4,r4,3
  800164:	1105883a 	add	r2,r2,r4
  800168:	10800104 	addi	r2,r2,4
  80016c:	10800017 	ldw	r2,0(r2)
  800170:	e17ffd17 	ldw	r5,-12(fp)
  800174:	1009883a 	mov	r4,r2
  800178:	183ee83a 	callr	r3
#endif
        break;
  80017c:	0001883a 	nop
#ifndef NIOS2_EIC_PRESENT
static ALT_INLINE alt_u32 ALT_ALWAYS_INLINE alt_irq_pending (void)
{
  alt_u32 active;

  NIOS2_READ_IPENDING (active);
  800180:	0005313a 	rdctl	r2,ipending
  800184:	e0bfff15 	stw	r2,-4(fp)

  return active;
  800188:	e0bfff17 	ldw	r2,-4(fp)
  80018c:	00000706 	br	8001ac <alt_irq_handler+0xb0>
      }
      mask <<= 1;
  800190:	e0bffc17 	ldw	r2,-16(fp)
  800194:	1085883a 	add	r2,r2,r2
  800198:	e0bffc15 	stw	r2,-16(fp)
      i++;
  80019c:	e0bffd17 	ldw	r2,-12(fp)
  8001a0:	10800044 	addi	r2,r2,1
  8001a4:	e0bffd15 	stw	r2,-12(fp)

    } while (1);
  8001a8:	003fe006 	br	80012c <__alt_data_end+0xff80012c>

    active = alt_irq_pending ();
  8001ac:	e0bffb15 	stw	r2,-20(fp)
    
  } while (active);
  8001b0:	e0bffb17 	ldw	r2,-20(fp)
  8001b4:	103fda1e 	bne	r2,zero,800120 <__alt_data_end+0xff800120>

  /*
   * Notify the operating system that interrupt processing is complete.
   */ 

  ALT_OS_INT_EXIT();
  8001b8:	0001883a 	nop
}
  8001bc:	0001883a 	nop
  8001c0:	e037883a 	mov	sp,fp
  8001c4:	dfc00117 	ldw	ra,4(sp)
  8001c8:	df000017 	ldw	fp,0(sp)
  8001cc:	dec00204 	addi	sp,sp,8
  8001d0:	f800283a 	ret

008001d4 <alt_instruction_exception_entry>:
 * that handler if it has been registered. Absent a handler, it will
 * break break or hang as discussed below.
 */
int 
alt_instruction_exception_entry (alt_u32 exception_pc)
{
  8001d4:	defffb04 	addi	sp,sp,-20
  8001d8:	dfc00415 	stw	ra,16(sp)
  8001dc:	df000315 	stw	fp,12(sp)
  8001e0:	df000304 	addi	fp,sp,12
  8001e4:	e13fff15 	stw	r4,-4(fp)
 * NIOS2_EXCEPTION_CAUSE_NOT_PRESENT. Your handling routine should
 * check the validity of the cause argument before proceeding.
 */
#ifdef NIOS2_HAS_EXTRA_EXCEPTION_INFO
  /* Get exception cause & "badaddr" */
  NIOS2_READ_EXCEPTION(cause);
  8001e8:	000531fa 	rdctl	r2,exception
  8001ec:	e0bffd15 	stw	r2,-12(fp)
  cause = ( (cause & NIOS2_EXCEPTION_REG_CAUSE_MASK) >>
  8001f0:	e0bffd17 	ldw	r2,-12(fp)
  8001f4:	10801f0c 	andi	r2,r2,124
  8001f8:	1004d0ba 	srli	r2,r2,2
  8001fc:	e0bffd15 	stw	r2,-12(fp)
              NIOS2_EXCEPTION_REG_CAUSE_OFST );

  NIOS2_READ_BADADDR(badaddr);
  800200:	0005333a 	rdctl	r2,badaddr
  800204:	e0bffe15 	stw	r2,-8(fp)
#else
  cause = NIOS2_EXCEPTION_CAUSE_NOT_PRESENT;
  badaddr = 0;
#endif /* NIOS2_HAS_EXTRA_EXCEPTION_INFO */

  if(alt_instruction_exception_handler) {
  800208:	d0a33717 	ldw	r2,-29476(gp)
  80020c:	10000726 	beq	r2,zero,80022c <alt_instruction_exception_entry+0x58>
     * Call handler. Its return value indicates whether the exception-causing
     * instruction should be re-issued. The code that called us,
     * alt_eceptions_entry.S, will look at this value and adjust the ea
     * register as necessary
     */
    return alt_instruction_exception_handler(cause, exception_pc, badaddr);
  800210:	d0a33717 	ldw	r2,-29476(gp)
  800214:	e0fffd17 	ldw	r3,-12(fp)
  800218:	e1bffe17 	ldw	r6,-8(fp)
  80021c:	e17fff17 	ldw	r5,-4(fp)
  800220:	1809883a 	mov	r4,r3
  800224:	103ee83a 	callr	r2
  800228:	00000206 	br	800234 <alt_instruction_exception_entry+0x60>
   *    (a peripheral which negates its interrupt output before its
   *    interrupt handler has been executed will cause spurious interrupts)
   */
  else {
#ifdef NIOS2_HAS_DEBUG_STUB
    NIOS2_BREAK();
  80022c:	003da03a 	break	0
      ;
#endif /* NIOS2_HAS_DEBUG_STUB */
  }

  /* We should not get here. Remove compiler warning. */
  return NIOS2_EXCEPTION_RETURN_REISSUE_INST;
  800230:	0005883a 	mov	r2,zero
}
  800234:	e037883a 	mov	sp,fp
  800238:	dfc00117 	ldw	ra,4(sp)
  80023c:	df000017 	ldw	fp,0(sp)
  800240:	dec00204 	addi	sp,sp,8
  800244:	f800283a 	ret

Disassembly of section .text:

00800248 <_start>:

    /* Assume the data cache size is always a power of two. */
#if NIOS2_DCACHE_SIZE > 0x8000
    movhi r2, %hi(NIOS2_DCACHE_SIZE)
#else
    movui r2, NIOS2_DCACHE_SIZE
  800248:	00820014 	movui	r2,2048
#endif

0:
    initd 0(r2)
  80024c:	10000033 	initd	0(r2)
#ifdef NIOS2_ECC_PRESENT
    addi r2, r2, -4
#else
    addi r2, r2, -NIOS2_DCACHE_LINE_SIZE
  800250:	10bff804 	addi	r2,r2,-32
#endif
    bgt r2, zero, 0b
  800254:	00bffd16 	blt	zero,r2,80024c <__alt_data_end+0xff80024c>

    /*
     * Now that the caches are initialized, set up the stack pointer and global pointer.
     * The values provided by the linker are assumed to be correctly aligned.
     */
    movhi sp, %hi(__alt_stack_pointer)
  800258:	06c04034 	movhi	sp,256
    ori sp, sp, %lo(__alt_stack_pointer)
  80025c:	dec00014 	ori	sp,sp,0
    movhi gp, %hi(_gp)
  800260:	06802034 	movhi	gp,128
    ori gp, gp, %lo(_gp)
  800264:	d6be0714 	ori	gp,gp,63516
 */
#ifndef ALT_SIM_OPTIMIZE
    /* Log that the BSS is about to be cleared. */
    ALT_LOG_PUTS(alt_log_msg_bss)

    movhi r2, %hi(__bss_start)
  800268:	00802034 	movhi	r2,128
    ori r2, r2, %lo(__bss_start)
  80026c:	10a13814 	ori	r2,r2,34016

    movhi r3, %hi(__bss_end)
  800270:	00c02034 	movhi	r3,128
    ori r3, r3, %lo(__bss_end)
  800274:	18e18d14 	ori	r3,r3,34356

    beq r2, r3, 1f
  800278:	10c00326 	beq	r2,r3,800288 <_start+0x40>

0:
    stw zero, (r2)
  80027c:	10000015 	stw	zero,0(r2)
    addi r2, r2, 4
  800280:	10800104 	addi	r2,r2,4
    bltu r2, r3, 0b
  800284:	10fffd36 	bltu	r2,r3,80027c <__alt_data_end+0xff80027c>
     * section aren't defined until alt_load() has been called).
     */
    mov   et, zero
#endif

    call alt_load
  800288:	08003bc0 	call	8003bc <alt_load>

    /* Log that alt_main is about to be called. */
    ALT_LOG_PUTS(alt_log_msg_alt_main)

    /* Call the C entry point. It should never return. */
    call alt_main
  80028c:	08004400 	call	800440 <alt_main>

00800290 <alt_after_alt_main>:

    /* Wait in infinite loop in case alt_main does return. */
alt_after_alt_main:
    br alt_after_alt_main
  800290:	003fff06 	br	800290 <__alt_data_end+0xff800290>

00800294 <main>:
#include "altera_up_avalon_audio.h"
int main(void)
{
  800294:	defffa04 	addi	sp,sp,-24
  800298:	dfc00515 	stw	ra,20(sp)
  80029c:	df000415 	stw	fp,16(sp)
  8002a0:	df000404 	addi	fp,sp,16
	alt_up_audio_dev * audio_dev;
	/* used for audio record/playback */
	unsigned int l_buf;
	unsigned int r_buf;
	// open the Audio port
	audio_dev = alt_up_audio_open_dev ("/dev/Audio");
  8002a4:	01002034 	movhi	r4,128
  8002a8:	211a2404 	addi	r4,r4,26768
  8002ac:	08023100 	call	802310 <alt_up_audio_open_dev>
  8002b0:	e0bffc15 	stw	r2,-16(fp)
	if ( audio_dev == NULL)
  8002b4:	e0bffc17 	ldw	r2,-16(fp)
  8002b8:	1000041e 	bne	r2,zero,8002cc <main+0x38>
		alt_printf ("Error: could not open audio device \n");
  8002bc:	01002034 	movhi	r4,128
  8002c0:	211a2704 	addi	r4,r4,26780
  8002c4:	08004bc0 	call	8004bc <alt_printf>
  8002c8:	00000306 	br	8002d8 <main+0x44>
	else
		alt_printf ("Opened audio device \n");
  8002cc:	01002034 	movhi	r4,128
  8002d0:	211a3104 	addi	r4,r4,26820
  8002d4:	08004bc0 	call	8004bc <alt_printf>

	/* read and echo audio data */
	while(1)
	{
		int fifospace = alt_up_audio_read_fifo_avail (audio_dev, ALT_UP_AUDIO_RIGHT);
  8002d8:	01400044 	movi	r5,1
  8002dc:	e13ffc17 	ldw	r4,-16(fp)
  8002e0:	08025b80 	call	8025b8 <alt_up_audio_read_fifo_avail>
  8002e4:	e0bffd15 	stw	r2,-12(fp)
			if ( fifospace > 0 ) // check if data is available
  8002e8:	e0bffd17 	ldw	r2,-12(fp)
  8002ec:	00bffa0e 	bge	zero,r2,8002d8 <__alt_data_end+0xff8002d8>
				{
				// read audio buffer
				alt_up_audio_read_fifo (audio_dev, &(r_buf), 1, ALT_UP_AUDIO_RIGHT);
  8002f0:	e0bfff04 	addi	r2,fp,-4
  8002f4:	01c00044 	movi	r7,1
  8002f8:	01800044 	movi	r6,1
  8002fc:	100b883a 	mov	r5,r2
  800300:	e13ffc17 	ldw	r4,-16(fp)
  800304:	08028180 	call	802818 <alt_up_audio_read_fifo>
				alt_up_audio_read_fifo (audio_dev, &(l_buf), 1, ALT_UP_AUDIO_LEFT);
  800308:	e0bffe04 	addi	r2,fp,-8
  80030c:	000f883a 	mov	r7,zero
  800310:	01800044 	movi	r6,1
  800314:	100b883a 	mov	r5,r2
  800318:	e13ffc17 	ldw	r4,-16(fp)
  80031c:	08028180 	call	802818 <alt_up_audio_read_fifo>
				// write audio buffer
				alt_up_audio_write_fifo (audio_dev, &(r_buf), 1, ALT_UP_AUDIO_RIGHT);
  800320:	e0bfff04 	addi	r2,fp,-4
  800324:	01c00044 	movi	r7,1
  800328:	01800044 	movi	r6,1
  80032c:	100b883a 	mov	r5,r2
  800330:	e13ffc17 	ldw	r4,-16(fp)
  800334:	08028f80 	call	8028f8 <alt_up_audio_write_fifo>
				alt_up_audio_write_fifo (audio_dev, &(l_buf), 1, ALT_UP_AUDIO_LEFT);
  800338:	e0bffe04 	addi	r2,fp,-8
  80033c:	000f883a 	mov	r7,zero
  800340:	01800044 	movi	r6,1
  800344:	100b883a 	mov	r5,r2
  800348:	e13ffc17 	ldw	r4,-16(fp)
  80034c:	08028f80 	call	8028f8 <alt_up_audio_write_fifo>
				}
		}
  800350:	003fe106 	br	8002d8 <__alt_data_end+0xff8002d8>

00800354 <alt_load_section>:
 */

static void ALT_INLINE alt_load_section (alt_u32* from, 
                                         alt_u32* to, 
                                         alt_u32* end)
{
  800354:	defffc04 	addi	sp,sp,-16
  800358:	df000315 	stw	fp,12(sp)
  80035c:	df000304 	addi	fp,sp,12
  800360:	e13ffd15 	stw	r4,-12(fp)
  800364:	e17ffe15 	stw	r5,-8(fp)
  800368:	e1bfff15 	stw	r6,-4(fp)
  if (to != from)
  80036c:	e0fffe17 	ldw	r3,-8(fp)
  800370:	e0bffd17 	ldw	r2,-12(fp)
  800374:	18800c26 	beq	r3,r2,8003a8 <alt_load_section+0x54>
  {
    while( to != end )
  800378:	00000806 	br	80039c <alt_load_section+0x48>
    {
      *to++ = *from++;
  80037c:	e0bffe17 	ldw	r2,-8(fp)
  800380:	10c00104 	addi	r3,r2,4
  800384:	e0fffe15 	stw	r3,-8(fp)
  800388:	e0fffd17 	ldw	r3,-12(fp)
  80038c:	19000104 	addi	r4,r3,4
  800390:	e13ffd15 	stw	r4,-12(fp)
  800394:	18c00017 	ldw	r3,0(r3)
  800398:	10c00015 	stw	r3,0(r2)
                                         alt_u32* to, 
                                         alt_u32* end)
{
  if (to != from)
  {
    while( to != end )
  80039c:	e0fffe17 	ldw	r3,-8(fp)
  8003a0:	e0bfff17 	ldw	r2,-4(fp)
  8003a4:	18bff51e 	bne	r3,r2,80037c <__alt_data_end+0xff80037c>
    {
      *to++ = *from++;
    }
  }
}
  8003a8:	0001883a 	nop
  8003ac:	e037883a 	mov	sp,fp
  8003b0:	df000017 	ldw	fp,0(sp)
  8003b4:	dec00104 	addi	sp,sp,4
  8003b8:	f800283a 	ret

008003bc <alt_load>:
 * there is no bootloader, so this application is responsible for loading to
 * RAM any sections that are required.
 */  

void alt_load (void)
{
  8003bc:	defffe04 	addi	sp,sp,-8
  8003c0:	dfc00115 	stw	ra,4(sp)
  8003c4:	df000015 	stw	fp,0(sp)
  8003c8:	d839883a 	mov	fp,sp
  /* 
   * Copy the .rwdata section. 
   */

  alt_load_section (&__flash_rwdata_start, 
  8003cc:	01802034 	movhi	r6,128
  8003d0:	319e1704 	addi	r6,r6,30812
  8003d4:	01402034 	movhi	r5,128
  8003d8:	295af604 	addi	r5,r5,27608
  8003dc:	01002034 	movhi	r4,128
  8003e0:	211e1704 	addi	r4,r4,30812
  8003e4:	08003540 	call	800354 <alt_load_section>

  /*
   * Copy the exception handler.
   */

  alt_load_section (&__flash_exceptions_start, 
  8003e8:	01802034 	movhi	r6,128
  8003ec:	31809204 	addi	r6,r6,584
  8003f0:	01402034 	movhi	r5,128
  8003f4:	29400804 	addi	r5,r5,32
  8003f8:	01002034 	movhi	r4,128
  8003fc:	21000804 	addi	r4,r4,32
  800400:	08003540 	call	800354 <alt_load_section>

  /*
   * Copy the .rodata section.
   */

  alt_load_section (&__flash_rodata_start, 
  800404:	01802034 	movhi	r6,128
  800408:	319af604 	addi	r6,r6,27608
  80040c:	01402034 	movhi	r5,128
  800410:	295a2404 	addi	r5,r5,26768
  800414:	01002034 	movhi	r4,128
  800418:	211a2404 	addi	r4,r4,26768
  80041c:	08003540 	call	800354 <alt_load_section>
  
  /*
   * Now ensure that the caches are in synch.
   */
  
  alt_dcache_flush_all();
  800420:	0802cf00 	call	802cf0 <alt_dcache_flush_all>
  alt_icache_flush_all();
  800424:	0802f940 	call	802f94 <alt_icache_flush_all>
}
  800428:	0001883a 	nop
  80042c:	e037883a 	mov	sp,fp
  800430:	dfc00117 	ldw	ra,4(sp)
  800434:	df000017 	ldw	fp,0(sp)
  800438:	dec00204 	addi	sp,sp,8
  80043c:	f800283a 	ret

00800440 <alt_main>:
 * devices/filesystems/components in the system; and call the entry point for
 * the users application, i.e. main().
 */

void alt_main (void)
{
  800440:	defffd04 	addi	sp,sp,-12
  800444:	dfc00215 	stw	ra,8(sp)
  800448:	df000115 	stw	fp,4(sp)
  80044c:	df000104 	addi	fp,sp,4
#endif

  /* ALT LOG - please see HAL/sys/alt_log_printf.h for details */
  ALT_LOG_PRINT_BOOT("[alt_main.c] Entering alt_main, calling alt_irq_init.\r\n");
  /* Initialize the interrupt controller. */
  alt_irq_init (NULL);
  800450:	0009883a 	mov	r4,zero
  800454:	08007580 	call	800758 <alt_irq_init>

  /* Initialize the operating system */
  ALT_LOG_PRINT_BOOT("[alt_main.c] Done alt_irq_init, calling alt_os_init.\r\n");
  ALT_OS_INIT();
  800458:	0001883a 	nop
  ALT_LOG_PRINT_BOOT("[alt_main.c] Done OS Init, calling alt_sem_create.\r\n");
  ALT_SEM_CREATE (&alt_fd_list_lock, 1);

  /* Initialize the device drivers/software components. */
  ALT_LOG_PRINT_BOOT("[alt_main.c] Calling alt_sys_init.\r\n");
  alt_sys_init();
  80045c:	08007900 	call	800790 <alt_sys_init>
   * devices be present (not equal to /dev/null) and if direct drivers
   * aren't being used.
   */

    ALT_LOG_PRINT_BOOT("[alt_main.c] Redirecting IO.\r\n");
    alt_io_redirect(ALT_STDOUT, ALT_STDIN, ALT_STDERR);
  800460:	01802034 	movhi	r6,128
  800464:	319a3704 	addi	r6,r6,26844
  800468:	01402034 	movhi	r5,128
  80046c:	295a3704 	addi	r5,r5,26844
  800470:	01002034 	movhi	r4,128
  800474:	211a3704 	addi	r4,r4,26844
  800478:	080308c0 	call	80308c <alt_io_redirect>
  /* 
   * Call the C++ constructors 
   */

  ALT_LOG_PRINT_BOOT("[alt_main.c] Calling C++ constructors.\r\n");
  _do_ctors ();
  80047c:	0802e440 	call	802e44 <_do_ctors>
   * redefined as _exit()). This is in the interest of reducing code footprint,
   * in that the atexit() overhead is removed when it's not needed.
   */

  ALT_LOG_PRINT_BOOT("[alt_main.c] Calling atexit.\r\n");
  atexit (_do_dtors);
  800480:	01002034 	movhi	r4,128
  800484:	210ba904 	addi	r4,r4,11940
  800488:	0803b680 	call	803b68 <atexit>
  ALT_LOG_PRINT_BOOT("[alt_main.c] Calling main.\r\n");

#ifdef ALT_NO_EXIT
  main (alt_argc, alt_argv, alt_envp);
#else
  result = main (alt_argc, alt_argv, alt_envp);
  80048c:	d0a33117 	ldw	r2,-29500(gp)
  800490:	d0e33217 	ldw	r3,-29496(gp)
  800494:	d1233317 	ldw	r4,-29492(gp)
  800498:	200d883a 	mov	r6,r4
  80049c:	180b883a 	mov	r5,r3
  8004a0:	1009883a 	mov	r4,r2
  8004a4:	08002940 	call	800294 <main>
  8004a8:	e0bfff15 	stw	r2,-4(fp)
  close(STDOUT_FILENO);
  8004ac:	01000044 	movi	r4,1
  8004b0:	0802c200 	call	802c20 <close>
  exit (result);
  8004b4:	e13fff17 	ldw	r4,-4(fp)
  8004b8:	0803b7c0 	call	803b7c <exit>

008004bc <alt_printf>:
/* 
 * ALT printf function 
 */
void 
alt_printf(const char* fmt, ... )
{
  8004bc:	defff204 	addi	sp,sp,-56
  8004c0:	dfc00a15 	stw	ra,40(sp)
  8004c4:	df000915 	stw	fp,36(sp)
  8004c8:	df000904 	addi	fp,sp,36
  8004cc:	e13fff15 	stw	r4,-4(fp)
  8004d0:	e1400215 	stw	r5,8(fp)
  8004d4:	e1800315 	stw	r6,12(fp)
  8004d8:	e1c00415 	stw	r7,16(fp)
	va_list args;
	va_start(args, fmt);
  8004dc:	e0800204 	addi	r2,fp,8
  8004e0:	e0bffe15 	stw	r2,-8(fp)
    const char *w;
    char c;

    /* Process format string. */
    w = fmt;
  8004e4:	e0bfff17 	ldw	r2,-4(fp)
  8004e8:	e0bff715 	stw	r2,-36(fp)
    while ((c = *w++) != 0)
  8004ec:	00006f06 	br	8006ac <alt_printf+0x1f0>
    {
        /* If not a format escape character, just print  */
        /* character.  Otherwise, process format string. */
        if (c != '%')
  8004f0:	e0bff807 	ldb	r2,-32(fp)
  8004f4:	10800960 	cmpeqi	r2,r2,37
  8004f8:	1000041e 	bne	r2,zero,80050c <alt_printf+0x50>
        {
            alt_putchar(c);
  8004fc:	e0bff807 	ldb	r2,-32(fp)
  800500:	1009883a 	mov	r4,r2
  800504:	08006e80 	call	8006e8 <alt_putchar>
  800508:	00006806 	br	8006ac <alt_printf+0x1f0>
        }
        else
        {
            /* Get format character.  If none     */
            /* available, processing is complete. */
            if ((c = *w++) != 0)
  80050c:	e0bff717 	ldw	r2,-36(fp)
  800510:	10c00044 	addi	r3,r2,1
  800514:	e0fff715 	stw	r3,-36(fp)
  800518:	10800003 	ldbu	r2,0(r2)
  80051c:	e0bff805 	stb	r2,-32(fp)
  800520:	e0bff807 	ldb	r2,-32(fp)
  800524:	10006926 	beq	r2,zero,8006cc <alt_printf+0x210>
            {
                if (c == '%')
  800528:	e0bff807 	ldb	r2,-32(fp)
  80052c:	10800958 	cmpnei	r2,r2,37
  800530:	1000041e 	bne	r2,zero,800544 <alt_printf+0x88>
                {
                    /* Process "%" escape sequence. */
                    alt_putchar(c);
  800534:	e0bff807 	ldb	r2,-32(fp)
  800538:	1009883a 	mov	r4,r2
  80053c:	08006e80 	call	8006e8 <alt_putchar>
  800540:	00005a06 	br	8006ac <alt_printf+0x1f0>
                } 
                else if (c == 'c')
  800544:	e0bff807 	ldb	r2,-32(fp)
  800548:	108018d8 	cmpnei	r2,r2,99
  80054c:	1000081e 	bne	r2,zero,800570 <alt_printf+0xb4>
                {
                    int v = va_arg(args, int);
  800550:	e0bffe17 	ldw	r2,-8(fp)
  800554:	10c00104 	addi	r3,r2,4
  800558:	e0fffe15 	stw	r3,-8(fp)
  80055c:	10800017 	ldw	r2,0(r2)
  800560:	e0bffd15 	stw	r2,-12(fp)
                    alt_putchar(v);
  800564:	e13ffd17 	ldw	r4,-12(fp)
  800568:	08006e80 	call	8006e8 <alt_putchar>
  80056c:	00004f06 	br	8006ac <alt_printf+0x1f0>
                }
                else if (c == 'x')
  800570:	e0bff807 	ldb	r2,-32(fp)
  800574:	10801e18 	cmpnei	r2,r2,120
  800578:	1000341e 	bne	r2,zero,80064c <alt_printf+0x190>
                {
                    /* Process hexadecimal number format. */
                    unsigned long v = va_arg(args, unsigned long);
  80057c:	e0bffe17 	ldw	r2,-8(fp)
  800580:	10c00104 	addi	r3,r2,4
  800584:	e0fffe15 	stw	r3,-8(fp)
  800588:	10800017 	ldw	r2,0(r2)
  80058c:	e0bffb15 	stw	r2,-20(fp)
                    unsigned long digit;
                    int digit_shift;

                    /* If the number value is zero, just print and continue. */
                    if (v == 0)
  800590:	e0bffb17 	ldw	r2,-20(fp)
  800594:	1000031e 	bne	r2,zero,8005a4 <alt_printf+0xe8>
                    {
                        alt_putchar('0');
  800598:	01000c04 	movi	r4,48
  80059c:	08006e80 	call	8006e8 <alt_putchar>
                        continue;
  8005a0:	00004206 	br	8006ac <alt_printf+0x1f0>
                    }

                    /* Find first non-zero digit. */
                    digit_shift = 28;
  8005a4:	00800704 	movi	r2,28
  8005a8:	e0bff915 	stw	r2,-28(fp)
                    while (!(v & (0xF << digit_shift)))
  8005ac:	00000306 	br	8005bc <alt_printf+0x100>
                        digit_shift -= 4;
  8005b0:	e0bff917 	ldw	r2,-28(fp)
  8005b4:	10bfff04 	addi	r2,r2,-4
  8005b8:	e0bff915 	stw	r2,-28(fp)
                        continue;
                    }

                    /* Find first non-zero digit. */
                    digit_shift = 28;
                    while (!(v & (0xF << digit_shift)))
  8005bc:	00c003c4 	movi	r3,15
  8005c0:	e0bff917 	ldw	r2,-28(fp)
  8005c4:	1884983a 	sll	r2,r3,r2
  8005c8:	1007883a 	mov	r3,r2
  8005cc:	e0bffb17 	ldw	r2,-20(fp)
  8005d0:	1884703a 	and	r2,r3,r2
  8005d4:	103ff626 	beq	r2,zero,8005b0 <__alt_data_end+0xff8005b0>
                        digit_shift -= 4;

                    /* Print digits. */
                    for (; digit_shift >= 0; digit_shift -= 4)
  8005d8:	00001906 	br	800640 <alt_printf+0x184>
                    {
                        digit = (v & (0xF << digit_shift)) >> digit_shift;
  8005dc:	00c003c4 	movi	r3,15
  8005e0:	e0bff917 	ldw	r2,-28(fp)
  8005e4:	1884983a 	sll	r2,r3,r2
  8005e8:	1007883a 	mov	r3,r2
  8005ec:	e0bffb17 	ldw	r2,-20(fp)
  8005f0:	1886703a 	and	r3,r3,r2
  8005f4:	e0bff917 	ldw	r2,-28(fp)
  8005f8:	1884d83a 	srl	r2,r3,r2
  8005fc:	e0bffc15 	stw	r2,-16(fp)
                        if (digit <= 9)
  800600:	e0bffc17 	ldw	r2,-16(fp)
  800604:	108002a8 	cmpgeui	r2,r2,10
  800608:	1000041e 	bne	r2,zero,80061c <alt_printf+0x160>
                            c = '0' + digit;
  80060c:	e0bffc17 	ldw	r2,-16(fp)
  800610:	10800c04 	addi	r2,r2,48
  800614:	e0bff805 	stb	r2,-32(fp)
  800618:	00000306 	br	800628 <alt_printf+0x16c>
                        else
                            c = 'a' + digit - 10;
  80061c:	e0bffc17 	ldw	r2,-16(fp)
  800620:	108015c4 	addi	r2,r2,87
  800624:	e0bff805 	stb	r2,-32(fp)
                        alt_putchar(c);
  800628:	e0bff807 	ldb	r2,-32(fp)
  80062c:	1009883a 	mov	r4,r2
  800630:	08006e80 	call	8006e8 <alt_putchar>
                    digit_shift = 28;
                    while (!(v & (0xF << digit_shift)))
                        digit_shift -= 4;

                    /* Print digits. */
                    for (; digit_shift >= 0; digit_shift -= 4)
  800634:	e0bff917 	ldw	r2,-28(fp)
  800638:	10bfff04 	addi	r2,r2,-4
  80063c:	e0bff915 	stw	r2,-28(fp)
  800640:	e0bff917 	ldw	r2,-28(fp)
  800644:	103fe50e 	bge	r2,zero,8005dc <__alt_data_end+0xff8005dc>
  800648:	00001806 	br	8006ac <alt_printf+0x1f0>
                        else
                            c = 'a' + digit - 10;
                        alt_putchar(c);
                    }
                }
                else if (c == 's')
  80064c:	e0bff807 	ldb	r2,-32(fp)
  800650:	10801cd8 	cmpnei	r2,r2,115
  800654:	1000151e 	bne	r2,zero,8006ac <alt_printf+0x1f0>
                {
                    /* Process string format. */
                    char *s = va_arg(args, char *);
  800658:	e0bffe17 	ldw	r2,-8(fp)
  80065c:	10c00104 	addi	r3,r2,4
  800660:	e0fffe15 	stw	r3,-8(fp)
  800664:	10800017 	ldw	r2,0(r2)
  800668:	e0bffa15 	stw	r2,-24(fp)

                    while(*s)
  80066c:	00000906 	br	800694 <alt_printf+0x1d8>
                      alt_putchar(*s++);
  800670:	e0bffa17 	ldw	r2,-24(fp)
  800674:	10c00044 	addi	r3,r2,1
  800678:	e0fffa15 	stw	r3,-24(fp)
  80067c:	10800003 	ldbu	r2,0(r2)
  800680:	10803fcc 	andi	r2,r2,255
  800684:	1080201c 	xori	r2,r2,128
  800688:	10bfe004 	addi	r2,r2,-128
  80068c:	1009883a 	mov	r4,r2
  800690:	08006e80 	call	8006e8 <alt_putchar>
                else if (c == 's')
                {
                    /* Process string format. */
                    char *s = va_arg(args, char *);

                    while(*s)
  800694:	e0bffa17 	ldw	r2,-24(fp)
  800698:	10800003 	ldbu	r2,0(r2)
  80069c:	10803fcc 	andi	r2,r2,255
  8006a0:	1080201c 	xori	r2,r2,128
  8006a4:	10bfe004 	addi	r2,r2,-128
  8006a8:	103ff11e 	bne	r2,zero,800670 <__alt_data_end+0xff800670>
    const char *w;
    char c;

    /* Process format string. */
    w = fmt;
    while ((c = *w++) != 0)
  8006ac:	e0bff717 	ldw	r2,-36(fp)
  8006b0:	10c00044 	addi	r3,r2,1
  8006b4:	e0fff715 	stw	r3,-36(fp)
  8006b8:	10800003 	ldbu	r2,0(r2)
  8006bc:	e0bff805 	stb	r2,-32(fp)
  8006c0:	e0bff807 	ldb	r2,-32(fp)
  8006c4:	103f8a1e 	bne	r2,zero,8004f0 <__alt_data_end+0xff8004f0>
        }
    }
#ifdef ALT_SEMIHOSTING
    alt_putbufflush();
#endif
}
  8006c8:	00000106 	br	8006d0 <alt_printf+0x214>
                      alt_putchar(*s++);
                }
            }
            else
            {
                break;
  8006cc:	0001883a 	nop
        }
    }
#ifdef ALT_SEMIHOSTING
    alt_putbufflush();
#endif
}
  8006d0:	0001883a 	nop
  8006d4:	e037883a 	mov	sp,fp
  8006d8:	dfc00117 	ldw	ra,4(sp)
  8006dc:	df000017 	ldw	fp,0(sp)
  8006e0:	dec00504 	addi	sp,sp,20
  8006e4:	f800283a 	ret

008006e8 <alt_putchar>:
 * Uses the ALT_DRIVER_WRITE() macro to call directly to driver if available.
 * Otherwise, uses newlib provided putchar() routine.
 */
int 
alt_putchar(int c)
{
  8006e8:	defffd04 	addi	sp,sp,-12
  8006ec:	dfc00215 	stw	ra,8(sp)
  8006f0:	df000115 	stw	fp,4(sp)
  8006f4:	df000104 	addi	fp,sp,4
  8006f8:	e13fff15 	stw	r4,-4(fp)
    if (ALT_DRIVER_WRITE(ALT_STDOUT_DEV, &c1, 1, 0) == -1) {
        return -1;
    }
    return c;
#else
    return putchar(c);
  8006fc:	d0a00c17 	ldw	r2,-32720(gp)
  800700:	10800217 	ldw	r2,8(r2)
  800704:	100b883a 	mov	r5,r2
  800708:	e13fff17 	ldw	r4,-4(fp)
  80070c:	0803f400 	call	803f40 <putc>
#endif
#endif
}
  800710:	e037883a 	mov	sp,fp
  800714:	dfc00117 	ldw	ra,4(sp)
  800718:	df000017 	ldw	fp,0(sp)
  80071c:	dec00204 	addi	sp,sp,8
  800720:	f800283a 	ret

00800724 <alt_dev_reg>:
 */

extern int alt_fs_reg  (alt_dev* dev); 

static ALT_INLINE int alt_dev_reg (alt_dev* dev)
{
  800724:	defffd04 	addi	sp,sp,-12
  800728:	dfc00215 	stw	ra,8(sp)
  80072c:	df000115 	stw	fp,4(sp)
  800730:	df000104 	addi	fp,sp,4
  800734:	e13fff15 	stw	r4,-4(fp)
  extern alt_llist alt_dev_list;

  return alt_dev_llist_insert ((alt_dev_llist*) dev, &alt_dev_list);
  800738:	d1600304 	addi	r5,gp,-32756
  80073c:	e13fff17 	ldw	r4,-4(fp)
  800740:	0802da00 	call	802da0 <alt_dev_llist_insert>
}
  800744:	e037883a 	mov	sp,fp
  800748:	dfc00117 	ldw	ra,4(sp)
  80074c:	df000017 	ldw	fp,0(sp)
  800750:	dec00204 	addi	sp,sp,8
  800754:	f800283a 	ret

00800758 <alt_irq_init>:
 * The "base" parameter is ignored and only
 * present for backwards-compatibility.
 */

void alt_irq_init ( const void* base )
{
  800758:	defffd04 	addi	sp,sp,-12
  80075c:	dfc00215 	stw	ra,8(sp)
  800760:	df000115 	stw	fp,4(sp)
  800764:	df000104 	addi	fp,sp,4
  800768:	e13fff15 	stw	r4,-4(fp)
    ALTERA_NIOS2_GEN2_IRQ_INIT ( NIOS2_GEN2_0, nios2_gen2_0);
  80076c:	08037140 	call	803714 <altera_nios2_gen2_irq_init>
 * alt_irq_cpu_enable_interrupts() enables the CPU to start taking interrupts.
 */
static ALT_INLINE void ALT_ALWAYS_INLINE 
       alt_irq_cpu_enable_interrupts (void)
{
    NIOS2_WRITE_STATUS(NIOS2_STATUS_PIE_MSK
  800770:	00800044 	movi	r2,1
  800774:	1001703a 	wrctl	status,r2
    alt_irq_cpu_enable_interrupts();
}
  800778:	0001883a 	nop
  80077c:	e037883a 	mov	sp,fp
  800780:	dfc00117 	ldw	ra,4(sp)
  800784:	df000017 	ldw	fp,0(sp)
  800788:	dec00204 	addi	sp,sp,8
  80078c:	f800283a 	ret

00800790 <alt_sys_init>:
 * Initialize the non-interrupt controller devices.
 * Called after alt_irq_init().
 */

void alt_sys_init( void )
{
  800790:	defffe04 	addi	sp,sp,-8
  800794:	dfc00115 	stw	ra,4(sp)
  800798:	df000015 	stw	fp,0(sp)
  80079c:	d839883a 	mov	fp,sp
    ALTERA_AVALON_TIMER_INIT ( SYSTEM_TIMER, system_timer);
  8007a0:	01c0fa04 	movi	r7,1000
  8007a4:	01800104 	movi	r6,4
  8007a8:	000b883a 	mov	r5,zero
  8007ac:	01004034 	movhi	r4,256
  8007b0:	21041004 	addi	r4,r4,4160
  8007b4:	08019c80 	call	8019c8 <alt_avalon_timer_sc_init>
    ALTERA_AVALON_TIMER_INIT ( TIMER_0, timer_0);
    ALTERA_AVALON_JTAG_UART_INIT ( JTAG_UART_0, jtag_uart_0);
  8007b8:	01002034 	movhi	r4,128
  8007bc:	211af604 	addi	r4,r4,27608
  8007c0:	08007240 	call	800724 <alt_dev_reg>
    ALTERA_AVALON_LCD_16207_INIT ( LCD_DISPLAY, lcd_display);
  8007c4:	01002034 	movhi	r4,128
  8007c8:	211b0b04 	addi	r4,r4,27692
  8007cc:	08017b80 	call	8017b8 <altera_avalon_lcd_16207_init>
  8007d0:	01002034 	movhi	r4,128
  8007d4:	211b0104 	addi	r4,r4,27652
  8007d8:	08007240 	call	800724 <alt_dev_reg>
    ALTERA_AVALON_SYSID_QSYS_INIT ( SYSID_QSYS_0, sysid_qsys_0);
  8007dc:	0001883a 	nop
    ALTERA_AVALON_UART_INIT ( UART, uart);
  8007e0:	018000c4 	movi	r6,3
  8007e4:	000b883a 	mov	r5,zero
  8007e8:	01002034 	movhi	r4,128
  8007ec:	211b5304 	addi	r4,r4,27980
  8007f0:	0801b4c0 	call	801b4c <altera_avalon_uart_init>
  8007f4:	01002034 	movhi	r4,128
  8007f8:	211b4904 	addi	r4,r4,27940
  8007fc:	08007240 	call	800724 <alt_dev_reg>
    ALTERA_UP_AVALON_AUDIO_AND_VIDEO_CONFIG_INIT ( AUDIO_I2C_CONFIG, audio_i2c_config);
  800800:	01002034 	movhi	r4,128
  800804:	211b7a04 	addi	r4,r4,28136
  800808:	08007240 	call	800724 <alt_dev_reg>
    ALTERA_UP_AVALON_AUDIO_INIT ( AUDIO, Audio);
  80080c:	01002034 	movhi	r4,128
  800810:	211b8604 	addi	r4,r4,28184
  800814:	08007240 	call	800724 <alt_dev_reg>
}
  800818:	0001883a 	nop
  80081c:	e037883a 	mov	sp,fp
  800820:	dfc00117 	ldw	ra,4(sp)
  800824:	df000017 	ldw	fp,0(sp)
  800828:	dec00204 	addi	sp,sp,8
  80082c:	f800283a 	ret

00800830 <altera_avalon_jtag_uart_read_fd>:
 *
 */

int 
altera_avalon_jtag_uart_read_fd(alt_fd* fd, char* buffer, int space)
{
  800830:	defffa04 	addi	sp,sp,-24
  800834:	dfc00515 	stw	ra,20(sp)
  800838:	df000415 	stw	fp,16(sp)
  80083c:	df000404 	addi	fp,sp,16
  800840:	e13ffd15 	stw	r4,-12(fp)
  800844:	e17ffe15 	stw	r5,-8(fp)
  800848:	e1bfff15 	stw	r6,-4(fp)
    altera_avalon_jtag_uart_dev* dev = (altera_avalon_jtag_uart_dev*) fd->dev; 
  80084c:	e0bffd17 	ldw	r2,-12(fp)
  800850:	10800017 	ldw	r2,0(r2)
  800854:	e0bffc15 	stw	r2,-16(fp)

    return altera_avalon_jtag_uart_read(&dev->state, buffer, space,
  800858:	e0bffc17 	ldw	r2,-16(fp)
  80085c:	10c00a04 	addi	r3,r2,40
  800860:	e0bffd17 	ldw	r2,-12(fp)
  800864:	10800217 	ldw	r2,8(r2)
  800868:	100f883a 	mov	r7,r2
  80086c:	e1bfff17 	ldw	r6,-4(fp)
  800870:	e17ffe17 	ldw	r5,-8(fp)
  800874:	1809883a 	mov	r4,r3
  800878:	08008f00 	call	8008f0 <altera_avalon_jtag_uart_read>
      fd->fd_flags);
}
  80087c:	e037883a 	mov	sp,fp
  800880:	dfc00117 	ldw	ra,4(sp)
  800884:	df000017 	ldw	fp,0(sp)
  800888:	dec00204 	addi	sp,sp,8
  80088c:	f800283a 	ret

00800890 <altera_avalon_jtag_uart_write_fd>:

int 
altera_avalon_jtag_uart_write_fd(alt_fd* fd, const char* buffer, int space)
{
  800890:	defffa04 	addi	sp,sp,-24
  800894:	dfc00515 	stw	ra,20(sp)
  800898:	df000415 	stw	fp,16(sp)
  80089c:	df000404 	addi	fp,sp,16
  8008a0:	e13ffd15 	stw	r4,-12(fp)
  8008a4:	e17ffe15 	stw	r5,-8(fp)
  8008a8:	e1bfff15 	stw	r6,-4(fp)
    altera_avalon_jtag_uart_dev* dev = (altera_avalon_jtag_uart_dev*) fd->dev; 
  8008ac:	e0bffd17 	ldw	r2,-12(fp)
  8008b0:	10800017 	ldw	r2,0(r2)
  8008b4:	e0bffc15 	stw	r2,-16(fp)

    return altera_avalon_jtag_uart_write(&dev->state, buffer, space,
  8008b8:	e0bffc17 	ldw	r2,-16(fp)
  8008bc:	10c00a04 	addi	r3,r2,40
  8008c0:	e0bffd17 	ldw	r2,-12(fp)
  8008c4:	10800217 	ldw	r2,8(r2)
  8008c8:	100f883a 	mov	r7,r2
  8008cc:	e1bfff17 	ldw	r6,-4(fp)
  8008d0:	e17ffe17 	ldw	r5,-8(fp)
  8008d4:	1809883a 	mov	r4,r3
  8008d8:	08009dc0 	call	8009dc <altera_avalon_jtag_uart_write>
      fd->fd_flags);
}
  8008dc:	e037883a 	mov	sp,fp
  8008e0:	dfc00117 	ldw	ra,4(sp)
  8008e4:	df000017 	ldw	fp,0(sp)
  8008e8:	dec00204 	addi	sp,sp,8
  8008ec:	f800283a 	ret

008008f0 <altera_avalon_jtag_uart_read>:
 */

int 
altera_avalon_jtag_uart_read(altera_avalon_jtag_uart_state* sp, 
  char* buffer, int space, int flags)
{
  8008f0:	defff704 	addi	sp,sp,-36
  8008f4:	df000815 	stw	fp,32(sp)
  8008f8:	df000804 	addi	fp,sp,32
  8008fc:	e13ffc15 	stw	r4,-16(fp)
  800900:	e17ffd15 	stw	r5,-12(fp)
  800904:	e1bffe15 	stw	r6,-8(fp)
  800908:	e1ffff15 	stw	r7,-4(fp)
  unsigned int base = sp->base;
  80090c:	e0bffc17 	ldw	r2,-16(fp)
  800910:	10800017 	ldw	r2,0(r2)
  800914:	e0bff915 	stw	r2,-28(fp)

  char * ptr = buffer;
  800918:	e0bffd17 	ldw	r2,-12(fp)
  80091c:	e0bff815 	stw	r2,-32(fp)
  char * end = buffer + space;
  800920:	e0bffe17 	ldw	r2,-8(fp)
  800924:	e0fffd17 	ldw	r3,-12(fp)
  800928:	1885883a 	add	r2,r3,r2
  80092c:	e0bffa15 	stw	r2,-24(fp)

  while (ptr < end)
  800930:	00001206 	br	80097c <altera_avalon_jtag_uart_read+0x8c>
  {
    unsigned int data = IORD_ALTERA_AVALON_JTAG_UART_DATA(base);
  800934:	e0bff917 	ldw	r2,-28(fp)
  800938:	10800037 	ldwio	r2,0(r2)
  80093c:	e0bffb15 	stw	r2,-20(fp)

    if (data & ALTERA_AVALON_JTAG_UART_DATA_RVALID_MSK)
  800940:	e0bffb17 	ldw	r2,-20(fp)
  800944:	10a0000c 	andi	r2,r2,32768
  800948:	10000626 	beq	r2,zero,800964 <altera_avalon_jtag_uart_read+0x74>
      *ptr++ = (data & ALTERA_AVALON_JTAG_UART_DATA_DATA_MSK) >> ALTERA_AVALON_JTAG_UART_DATA_DATA_OFST;
  80094c:	e0bff817 	ldw	r2,-32(fp)
  800950:	10c00044 	addi	r3,r2,1
  800954:	e0fff815 	stw	r3,-32(fp)
  800958:	e0fffb17 	ldw	r3,-20(fp)
  80095c:	10c00005 	stb	r3,0(r2)
  800960:	00000606 	br	80097c <altera_avalon_jtag_uart_read+0x8c>
    else if (ptr != buffer)
  800964:	e0fff817 	ldw	r3,-32(fp)
  800968:	e0bffd17 	ldw	r2,-12(fp)
  80096c:	1880071e 	bne	r3,r2,80098c <altera_avalon_jtag_uart_read+0x9c>
      break;
    else if(flags & O_NONBLOCK)
  800970:	e0bfff17 	ldw	r2,-4(fp)
  800974:	1090000c 	andi	r2,r2,16384
  800978:	1000061e 	bne	r2,zero,800994 <altera_avalon_jtag_uart_read+0xa4>
  unsigned int base = sp->base;

  char * ptr = buffer;
  char * end = buffer + space;

  while (ptr < end)
  80097c:	e0fff817 	ldw	r3,-32(fp)
  800980:	e0bffa17 	ldw	r2,-24(fp)
  800984:	18bfeb36 	bltu	r3,r2,800934 <__alt_data_end+0xff800934>
  800988:	00000306 	br	800998 <altera_avalon_jtag_uart_read+0xa8>
    unsigned int data = IORD_ALTERA_AVALON_JTAG_UART_DATA(base);

    if (data & ALTERA_AVALON_JTAG_UART_DATA_RVALID_MSK)
      *ptr++ = (data & ALTERA_AVALON_JTAG_UART_DATA_DATA_MSK) >> ALTERA_AVALON_JTAG_UART_DATA_DATA_OFST;
    else if (ptr != buffer)
      break;
  80098c:	0001883a 	nop
  800990:	00000106 	br	800998 <altera_avalon_jtag_uart_read+0xa8>
    else if(flags & O_NONBLOCK)
      break;   
  800994:	0001883a 	nop
    
  }

  if (ptr != buffer)
  800998:	e0fff817 	ldw	r3,-32(fp)
  80099c:	e0bffd17 	ldw	r2,-12(fp)
  8009a0:	18800426 	beq	r3,r2,8009b4 <altera_avalon_jtag_uart_read+0xc4>
    return ptr - buffer;
  8009a4:	e0fff817 	ldw	r3,-32(fp)
  8009a8:	e0bffd17 	ldw	r2,-12(fp)
  8009ac:	1885c83a 	sub	r2,r3,r2
  8009b0:	00000606 	br	8009cc <altera_avalon_jtag_uart_read+0xdc>
  else if (flags & O_NONBLOCK)
  8009b4:	e0bfff17 	ldw	r2,-4(fp)
  8009b8:	1090000c 	andi	r2,r2,16384
  8009bc:	10000226 	beq	r2,zero,8009c8 <altera_avalon_jtag_uart_read+0xd8>
    return -EWOULDBLOCK;
  8009c0:	00bffd44 	movi	r2,-11
  8009c4:	00000106 	br	8009cc <altera_avalon_jtag_uart_read+0xdc>
  else
    return -EIO;
  8009c8:	00bffec4 	movi	r2,-5
}
  8009cc:	e037883a 	mov	sp,fp
  8009d0:	df000017 	ldw	fp,0(sp)
  8009d4:	dec00104 	addi	sp,sp,4
  8009d8:	f800283a 	ret

008009dc <altera_avalon_jtag_uart_write>:
 * one FIFOs worth of data.  But you said you didn't want to use interrupts :-)
 */

int altera_avalon_jtag_uart_write(altera_avalon_jtag_uart_state* sp, 
  const char * ptr, int count, int flags)
{
  8009dc:	defff904 	addi	sp,sp,-28
  8009e0:	df000615 	stw	fp,24(sp)
  8009e4:	df000604 	addi	fp,sp,24
  8009e8:	e13ffc15 	stw	r4,-16(fp)
  8009ec:	e17ffd15 	stw	r5,-12(fp)
  8009f0:	e1bffe15 	stw	r6,-8(fp)
  8009f4:	e1ffff15 	stw	r7,-4(fp)
  unsigned int base = sp->base;
  8009f8:	e0bffc17 	ldw	r2,-16(fp)
  8009fc:	10800017 	ldw	r2,0(r2)
  800a00:	e0bffa15 	stw	r2,-24(fp)

  const char * end = ptr + count;
  800a04:	e0bffe17 	ldw	r2,-8(fp)
  800a08:	e0fffd17 	ldw	r3,-12(fp)
  800a0c:	1885883a 	add	r2,r3,r2
  800a10:	e0bffb15 	stw	r2,-20(fp)

  while (ptr < end)
  800a14:	00000e06 	br	800a50 <altera_avalon_jtag_uart_write+0x74>
    if ((IORD_ALTERA_AVALON_JTAG_UART_CONTROL(base) & ALTERA_AVALON_JTAG_UART_CONTROL_WSPACE_MSK) != 0)
  800a18:	e0bffa17 	ldw	r2,-24(fp)
  800a1c:	10800104 	addi	r2,r2,4
  800a20:	10800037 	ldwio	r2,0(r2)
  800a24:	10bfffec 	andhi	r2,r2,65535
  800a28:	10000926 	beq	r2,zero,800a50 <altera_avalon_jtag_uart_write+0x74>
      IOWR_ALTERA_AVALON_JTAG_UART_DATA(base, *ptr++);
  800a2c:	e0fffa17 	ldw	r3,-24(fp)
  800a30:	e0bffd17 	ldw	r2,-12(fp)
  800a34:	11000044 	addi	r4,r2,1
  800a38:	e13ffd15 	stw	r4,-12(fp)
  800a3c:	10800003 	ldbu	r2,0(r2)
  800a40:	10803fcc 	andi	r2,r2,255
  800a44:	1080201c 	xori	r2,r2,128
  800a48:	10bfe004 	addi	r2,r2,-128
  800a4c:	18800035 	stwio	r2,0(r3)
{
  unsigned int base = sp->base;

  const char * end = ptr + count;

  while (ptr < end)
  800a50:	e0fffd17 	ldw	r3,-12(fp)
  800a54:	e0bffb17 	ldw	r2,-20(fp)
  800a58:	18bfef36 	bltu	r3,r2,800a18 <__alt_data_end+0xff800a18>
    if ((IORD_ALTERA_AVALON_JTAG_UART_CONTROL(base) & ALTERA_AVALON_JTAG_UART_CONTROL_WSPACE_MSK) != 0)
      IOWR_ALTERA_AVALON_JTAG_UART_DATA(base, *ptr++);

  return count;
  800a5c:	e0bffe17 	ldw	r2,-8(fp)
}
  800a60:	e037883a 	mov	sp,fp
  800a64:	df000017 	ldw	fp,0(sp)
  800a68:	dec00104 	addi	sp,sp,4
  800a6c:	f800283a 	ret

00800a70 <lcd_write_command>:

/* --------------------------------------------------------------------- */

static void lcd_write_command(altera_avalon_lcd_16207_state* sp, 
  unsigned char command)
{
  800a70:	defffa04 	addi	sp,sp,-24
  800a74:	dfc00515 	stw	ra,20(sp)
  800a78:	df000415 	stw	fp,16(sp)
  800a7c:	df000404 	addi	fp,sp,16
  800a80:	e13ffe15 	stw	r4,-8(fp)
  800a84:	2805883a 	mov	r2,r5
  800a88:	e0bfff05 	stb	r2,-4(fp)
  unsigned int base = sp->base;
  800a8c:	e0bffe17 	ldw	r2,-8(fp)
  800a90:	10800017 	ldw	r2,0(r2)
  800a94:	e0bffd15 	stw	r2,-12(fp)
  /* We impose a timeout on the driver in case the LCD panel isn't connected.
   * The first time we call this function the timeout is approx 25ms 
   * (assuming 5 cycles per loop and a 200MHz clock).  Obviously systems
   * with slower clocks, or debug builds, or slower memory will take longer.
   */
  int i = 1000000;
  800a98:	008003f4 	movhi	r2,15
  800a9c:	10909004 	addi	r2,r2,16960
  800aa0:	e0bffc15 	stw	r2,-16(fp)

  /* Don't bother if the LCD panel didn't work before */
  if (sp->broken)
  800aa4:	e0bffe17 	ldw	r2,-8(fp)
  800aa8:	10800803 	ldbu	r2,32(r2)
  800aac:	10803fcc 	andi	r2,r2,255
  800ab0:	1080201c 	xori	r2,r2,128
  800ab4:	10bfe004 	addi	r2,r2,-128
  800ab8:	1000151e 	bne	r2,zero,800b10 <lcd_write_command+0xa0>
    return;

  /* Wait until LCD isn't busy. */
  while (IORD_ALTERA_AVALON_LCD_16207_STATUS(base) & ALTERA_AVALON_LCD_16207_STATUS_BUSY_MSK)
  800abc:	00000906 	br	800ae4 <lcd_write_command+0x74>
    if (--i == 0)
  800ac0:	e0bffc17 	ldw	r2,-16(fp)
  800ac4:	10bfffc4 	addi	r2,r2,-1
  800ac8:	e0bffc15 	stw	r2,-16(fp)
  800acc:	e0bffc17 	ldw	r2,-16(fp)
  800ad0:	1000041e 	bne	r2,zero,800ae4 <lcd_write_command+0x74>
    {
      sp->broken = 1;
  800ad4:	e0bffe17 	ldw	r2,-8(fp)
  800ad8:	00c00044 	movi	r3,1
  800adc:	10c00805 	stb	r3,32(r2)
      return;
  800ae0:	00000c06 	br	800b14 <lcd_write_command+0xa4>
  /* Don't bother if the LCD panel didn't work before */
  if (sp->broken)
    return;

  /* Wait until LCD isn't busy. */
  while (IORD_ALTERA_AVALON_LCD_16207_STATUS(base) & ALTERA_AVALON_LCD_16207_STATUS_BUSY_MSK)
  800ae4:	e0bffd17 	ldw	r2,-12(fp)
  800ae8:	10800104 	addi	r2,r2,4
  800aec:	10800037 	ldwio	r2,0(r2)
  800af0:	1080200c 	andi	r2,r2,128
  800af4:	103ff21e 	bne	r2,zero,800ac0 <__alt_data_end+0xff800ac0>
    }

  /* Despite what it says in the datasheet, the LCD isn't ready to accept
   * a write immediately after it returns BUSY=0.  Wait for 100us more.
   */
  usleep(100);
  800af8:	01001904 	movi	r4,100
  800afc:	08036e40 	call	8036e4 <usleep>

  IOWR_ALTERA_AVALON_LCD_16207_COMMAND(base, command);
  800b00:	e0bffd17 	ldw	r2,-12(fp)
  800b04:	e0ffff03 	ldbu	r3,-4(fp)
  800b08:	10c00035 	stwio	r3,0(r2)
  800b0c:	00000106 	br	800b14 <lcd_write_command+0xa4>
   */
  int i = 1000000;

  /* Don't bother if the LCD panel didn't work before */
  if (sp->broken)
    return;
  800b10:	0001883a 	nop
   * a write immediately after it returns BUSY=0.  Wait for 100us more.
   */
  usleep(100);

  IOWR_ALTERA_AVALON_LCD_16207_COMMAND(base, command);
}
  800b14:	e037883a 	mov	sp,fp
  800b18:	dfc00117 	ldw	ra,4(sp)
  800b1c:	df000017 	ldw	fp,0(sp)
  800b20:	dec00204 	addi	sp,sp,8
  800b24:	f800283a 	ret

00800b28 <lcd_write_data>:

/* --------------------------------------------------------------------- */

static void lcd_write_data(altera_avalon_lcd_16207_state* sp, 
  unsigned char data)
{
  800b28:	defffa04 	addi	sp,sp,-24
  800b2c:	dfc00515 	stw	ra,20(sp)
  800b30:	df000415 	stw	fp,16(sp)
  800b34:	df000404 	addi	fp,sp,16
  800b38:	e13ffe15 	stw	r4,-8(fp)
  800b3c:	2805883a 	mov	r2,r5
  800b40:	e0bfff05 	stb	r2,-4(fp)
  unsigned int base = sp->base;
  800b44:	e0bffe17 	ldw	r2,-8(fp)
  800b48:	10800017 	ldw	r2,0(r2)
  800b4c:	e0bffd15 	stw	r2,-12(fp)
  /* We impose a timeout on the driver in case the LCD panel isn't connected.
   * The first time we call this function the timeout is approx 25ms 
   * (assuming 5 cycles per loop and a 200MHz clock).  Obviously systems
   * with slower clocks, or debug builds, or slower memory will take longer.
   */
  int i = 1000000;
  800b50:	008003f4 	movhi	r2,15
  800b54:	10909004 	addi	r2,r2,16960
  800b58:	e0bffc15 	stw	r2,-16(fp)

  /* Don't bother if the LCD panel didn't work before */
  if (sp->broken)
  800b5c:	e0bffe17 	ldw	r2,-8(fp)
  800b60:	10800803 	ldbu	r2,32(r2)
  800b64:	10803fcc 	andi	r2,r2,255
  800b68:	1080201c 	xori	r2,r2,128
  800b6c:	10bfe004 	addi	r2,r2,-128
  800b70:	10001d1e 	bne	r2,zero,800be8 <lcd_write_data+0xc0>
    return;

  /* Wait until LCD isn't busy. */
  while (IORD_ALTERA_AVALON_LCD_16207_STATUS(base) & ALTERA_AVALON_LCD_16207_STATUS_BUSY_MSK)
  800b74:	00000906 	br	800b9c <lcd_write_data+0x74>
    if (--i == 0)
  800b78:	e0bffc17 	ldw	r2,-16(fp)
  800b7c:	10bfffc4 	addi	r2,r2,-1
  800b80:	e0bffc15 	stw	r2,-16(fp)
  800b84:	e0bffc17 	ldw	r2,-16(fp)
  800b88:	1000041e 	bne	r2,zero,800b9c <lcd_write_data+0x74>
    {
      sp->broken = 1;
  800b8c:	e0bffe17 	ldw	r2,-8(fp)
  800b90:	00c00044 	movi	r3,1
  800b94:	10c00805 	stb	r3,32(r2)
      return;
  800b98:	00001406 	br	800bec <lcd_write_data+0xc4>
  /* Don't bother if the LCD panel didn't work before */
  if (sp->broken)
    return;

  /* Wait until LCD isn't busy. */
  while (IORD_ALTERA_AVALON_LCD_16207_STATUS(base) & ALTERA_AVALON_LCD_16207_STATUS_BUSY_MSK)
  800b9c:	e0bffd17 	ldw	r2,-12(fp)
  800ba0:	10800104 	addi	r2,r2,4
  800ba4:	10800037 	ldwio	r2,0(r2)
  800ba8:	1080200c 	andi	r2,r2,128
  800bac:	103ff21e 	bne	r2,zero,800b78 <__alt_data_end+0xff800b78>
    }

  /* Despite what it says in the datasheet, the LCD isn't ready to accept
   * a write immediately after it returns BUSY=0.  Wait for 100us more.
   */
  usleep(100);
  800bb0:	01001904 	movi	r4,100
  800bb4:	08036e40 	call	8036e4 <usleep>

  IOWR_ALTERA_AVALON_LCD_16207_DATA(base, data);
  800bb8:	e0bffd17 	ldw	r2,-12(fp)
  800bbc:	10800204 	addi	r2,r2,8
  800bc0:	1007883a 	mov	r3,r2
  800bc4:	e0bfff03 	ldbu	r2,-4(fp)
  800bc8:	18800035 	stwio	r2,0(r3)

  sp->address++;
  800bcc:	e0bffe17 	ldw	r2,-8(fp)
  800bd0:	108008c3 	ldbu	r2,35(r2)
  800bd4:	10800044 	addi	r2,r2,1
  800bd8:	1007883a 	mov	r3,r2
  800bdc:	e0bffe17 	ldw	r2,-8(fp)
  800be0:	10c008c5 	stb	r3,35(r2)
  800be4:	00000106 	br	800bec <lcd_write_data+0xc4>
   */
  int i = 1000000;

  /* Don't bother if the LCD panel didn't work before */
  if (sp->broken)
    return;
  800be8:	0001883a 	nop
  usleep(100);

  IOWR_ALTERA_AVALON_LCD_16207_DATA(base, data);

  sp->address++;
}
  800bec:	e037883a 	mov	sp,fp
  800bf0:	dfc00117 	ldw	ra,4(sp)
  800bf4:	df000017 	ldw	fp,0(sp)
  800bf8:	dec00204 	addi	sp,sp,8
  800bfc:	f800283a 	ret

00800c00 <lcd_clear_screen>:

/* --------------------------------------------------------------------- */

static void lcd_clear_screen(altera_avalon_lcd_16207_state* sp)
{
  800c00:	defffc04 	addi	sp,sp,-16
  800c04:	dfc00315 	stw	ra,12(sp)
  800c08:	df000215 	stw	fp,8(sp)
  800c0c:	df000204 	addi	fp,sp,8
  800c10:	e13fff15 	stw	r4,-4(fp)
  int y;

  lcd_write_command(sp, LCD_CMD_CLEAR);
  800c14:	01400044 	movi	r5,1
  800c18:	e13fff17 	ldw	r4,-4(fp)
  800c1c:	0800a700 	call	800a70 <lcd_write_command>

  sp->x = 0;
  800c20:	e0bfff17 	ldw	r2,-4(fp)
  800c24:	10000845 	stb	zero,33(r2)
  sp->y = 0;
  800c28:	e0bfff17 	ldw	r2,-4(fp)
  800c2c:	10000885 	stb	zero,34(r2)
  sp->address = 0;
  800c30:	e0bfff17 	ldw	r2,-4(fp)
  800c34:	100008c5 	stb	zero,35(r2)

  for (y = 0 ; y < ALT_LCD_HEIGHT ; y++)
  800c38:	e03ffe15 	stw	zero,-8(fp)
  800c3c:	00001b06 	br	800cac <lcd_clear_screen+0xac>
  {
    memset(sp->line[y].data, ' ', sizeof(sp->line[0].data));
  800c40:	e0bffe17 	ldw	r2,-8(fp)
  800c44:	108018e4 	muli	r2,r2,99
  800c48:	10801004 	addi	r2,r2,64
  800c4c:	e0ffff17 	ldw	r3,-4(fp)
  800c50:	1885883a 	add	r2,r3,r2
  800c54:	01801444 	movi	r6,81
  800c58:	01400804 	movi	r5,32
  800c5c:	1009883a 	mov	r4,r2
  800c60:	0803d780 	call	803d78 <memset>
    memset(sp->line[y].visible, ' ', sizeof(sp->line[0].visible));
  800c64:	e0bffe17 	ldw	r2,-8(fp)
  800c68:	108018e4 	muli	r2,r2,99
  800c6c:	10800c04 	addi	r2,r2,48
  800c70:	e0ffff17 	ldw	r3,-4(fp)
  800c74:	1885883a 	add	r2,r3,r2
  800c78:	01800404 	movi	r6,16
  800c7c:	01400804 	movi	r5,32
  800c80:	1009883a 	mov	r4,r2
  800c84:	0803d780 	call	803d78 <memset>
    sp->line[y].width = 0;
  800c88:	e0ffff17 	ldw	r3,-4(fp)
  800c8c:	e0bffe17 	ldw	r2,-8(fp)
  800c90:	108018e4 	muli	r2,r2,99
  800c94:	1885883a 	add	r2,r3,r2
  800c98:	10802444 	addi	r2,r2,145
  800c9c:	10000005 	stb	zero,0(r2)

  sp->x = 0;
  sp->y = 0;
  sp->address = 0;

  for (y = 0 ; y < ALT_LCD_HEIGHT ; y++)
  800ca0:	e0bffe17 	ldw	r2,-8(fp)
  800ca4:	10800044 	addi	r2,r2,1
  800ca8:	e0bffe15 	stw	r2,-8(fp)
  800cac:	e0bffe17 	ldw	r2,-8(fp)
  800cb0:	10800090 	cmplti	r2,r2,2
  800cb4:	103fe21e 	bne	r2,zero,800c40 <__alt_data_end+0xff800c40>
  {
    memset(sp->line[y].data, ' ', sizeof(sp->line[0].data));
    memset(sp->line[y].visible, ' ', sizeof(sp->line[0].visible));
    sp->line[y].width = 0;
  }
}
  800cb8:	0001883a 	nop
  800cbc:	e037883a 	mov	sp,fp
  800cc0:	dfc00117 	ldw	ra,4(sp)
  800cc4:	df000017 	ldw	fp,0(sp)
  800cc8:	dec00204 	addi	sp,sp,8
  800ccc:	f800283a 	ret

00800cd0 <lcd_repaint_screen>:

/* --------------------------------------------------------------------- */

static void lcd_repaint_screen(altera_avalon_lcd_16207_state* sp)
{
  800cd0:	defff704 	addi	sp,sp,-36
  800cd4:	dfc00815 	stw	ra,32(sp)
  800cd8:	df000715 	stw	fp,28(sp)
  800cdc:	df000704 	addi	fp,sp,28
  800ce0:	e13fff15 	stw	r4,-4(fp)
  /* scrollpos controls how much the lines have scrolled round.  The speed
   * each line scrolls at is controlled by its speed variable - while
   * scrolline lines will wrap at the position set by width
   */

  int scrollpos = sp->scrollpos;
  800ce4:	e0bfff17 	ldw	r2,-4(fp)
  800ce8:	10800943 	ldbu	r2,37(r2)
  800cec:	10803fcc 	andi	r2,r2,255
  800cf0:	e0bffc15 	stw	r2,-16(fp)

  for (y = 0 ; y < ALT_LCD_HEIGHT ; y++)
  800cf4:	e03ff915 	stw	zero,-28(fp)
  800cf8:	00006706 	br	800e98 <lcd_repaint_screen+0x1c8>
  {
    int width  = sp->line[y].width;
  800cfc:	e0ffff17 	ldw	r3,-4(fp)
  800d00:	e0bff917 	ldw	r2,-28(fp)
  800d04:	108018e4 	muli	r2,r2,99
  800d08:	1885883a 	add	r2,r3,r2
  800d0c:	10802444 	addi	r2,r2,145
  800d10:	10800003 	ldbu	r2,0(r2)
  800d14:	10803fcc 	andi	r2,r2,255
  800d18:	1080201c 	xori	r2,r2,128
  800d1c:	10bfe004 	addi	r2,r2,-128
  800d20:	e0bffd15 	stw	r2,-12(fp)
    int offset = (scrollpos * sp->line[y].speed) >> 8;
  800d24:	e0ffff17 	ldw	r3,-4(fp)
  800d28:	e0bff917 	ldw	r2,-28(fp)
  800d2c:	108018e4 	muli	r2,r2,99
  800d30:	1885883a 	add	r2,r3,r2
  800d34:	10802484 	addi	r2,r2,146
  800d38:	10800003 	ldbu	r2,0(r2)
  800d3c:	10c03fcc 	andi	r3,r2,255
  800d40:	e0bffc17 	ldw	r2,-16(fp)
  800d44:	1885383a 	mul	r2,r3,r2
  800d48:	1005d23a 	srai	r2,r2,8
  800d4c:	e0bffb15 	stw	r2,-20(fp)
    if (offset >= width)
  800d50:	e0fffb17 	ldw	r3,-20(fp)
  800d54:	e0bffd17 	ldw	r2,-12(fp)
  800d58:	18800116 	blt	r3,r2,800d60 <lcd_repaint_screen+0x90>
      offset = 0;
  800d5c:	e03ffb15 	stw	zero,-20(fp)

    for (x = 0 ; x < ALT_LCD_WIDTH ; x++)
  800d60:	e03ffa15 	stw	zero,-24(fp)
  800d64:	00004606 	br	800e80 <lcd_repaint_screen+0x1b0>
    {
      char c = sp->line[y].data[(x + offset) % width];
  800d68:	e0fffa17 	ldw	r3,-24(fp)
  800d6c:	e0bffb17 	ldw	r2,-20(fp)
  800d70:	1885883a 	add	r2,r3,r2
  800d74:	e17ffd17 	ldw	r5,-12(fp)
  800d78:	1009883a 	mov	r4,r2
  800d7c:	08060ec0 	call	8060ec <__modsi3>
  800d80:	1009883a 	mov	r4,r2
  800d84:	e0ffff17 	ldw	r3,-4(fp)
  800d88:	e0bff917 	ldw	r2,-28(fp)
  800d8c:	108018e4 	muli	r2,r2,99
  800d90:	1885883a 	add	r2,r3,r2
  800d94:	1105883a 	add	r2,r2,r4
  800d98:	10801004 	addi	r2,r2,64
  800d9c:	10800003 	ldbu	r2,0(r2)
  800da0:	e0bffe05 	stb	r2,-8(fp)

      /* Writing data takes 40us, so don't do it unless required */
      if (sp->line[y].visible[x] != c)
  800da4:	e0ffff17 	ldw	r3,-4(fp)
  800da8:	e0bff917 	ldw	r2,-28(fp)
  800dac:	108018e4 	muli	r2,r2,99
  800db0:	1887883a 	add	r3,r3,r2
  800db4:	e0bffa17 	ldw	r2,-24(fp)
  800db8:	1885883a 	add	r2,r3,r2
  800dbc:	10800c04 	addi	r2,r2,48
  800dc0:	10800003 	ldbu	r2,0(r2)
  800dc4:	10c03fcc 	andi	r3,r2,255
  800dc8:	18c0201c 	xori	r3,r3,128
  800dcc:	18ffe004 	addi	r3,r3,-128
  800dd0:	e0bffe07 	ldb	r2,-8(fp)
  800dd4:	18802726 	beq	r3,r2,800e74 <lcd_repaint_screen+0x1a4>
      {
        unsigned char address = x + colstart[y];
  800dd8:	e0fff917 	ldw	r3,-28(fp)
  800ddc:	d0a00004 	addi	r2,gp,-32768
  800de0:	1885883a 	add	r2,r3,r2
  800de4:	10800003 	ldbu	r2,0(r2)
  800de8:	1007883a 	mov	r3,r2
  800dec:	e0bffa17 	ldw	r2,-24(fp)
  800df0:	1885883a 	add	r2,r3,r2
  800df4:	e0bffe45 	stb	r2,-7(fp)

        if (address != sp->address)
  800df8:	e0fffe43 	ldbu	r3,-7(fp)
  800dfc:	e0bfff17 	ldw	r2,-4(fp)
  800e00:	108008c3 	ldbu	r2,35(r2)
  800e04:	10803fcc 	andi	r2,r2,255
  800e08:	1080201c 	xori	r2,r2,128
  800e0c:	10bfe004 	addi	r2,r2,-128
  800e10:	18800a26 	beq	r3,r2,800e3c <lcd_repaint_screen+0x16c>
        {
          lcd_write_command(sp, LCD_CMD_WRITE_DATA | address);
  800e14:	e0fffe43 	ldbu	r3,-7(fp)
  800e18:	00bfe004 	movi	r2,-128
  800e1c:	1884b03a 	or	r2,r3,r2
  800e20:	10803fcc 	andi	r2,r2,255
  800e24:	100b883a 	mov	r5,r2
  800e28:	e13fff17 	ldw	r4,-4(fp)
  800e2c:	0800a700 	call	800a70 <lcd_write_command>
          sp->address = address;
  800e30:	e0fffe43 	ldbu	r3,-7(fp)
  800e34:	e0bfff17 	ldw	r2,-4(fp)
  800e38:	10c008c5 	stb	r3,35(r2)
        }

        lcd_write_data(sp, c);
  800e3c:	e0bffe03 	ldbu	r2,-8(fp)
  800e40:	10803fcc 	andi	r2,r2,255
  800e44:	100b883a 	mov	r5,r2
  800e48:	e13fff17 	ldw	r4,-4(fp)
  800e4c:	0800b280 	call	800b28 <lcd_write_data>
        sp->line[y].visible[x] = c;
  800e50:	e0ffff17 	ldw	r3,-4(fp)
  800e54:	e0bff917 	ldw	r2,-28(fp)
  800e58:	108018e4 	muli	r2,r2,99
  800e5c:	1887883a 	add	r3,r3,r2
  800e60:	e0bffa17 	ldw	r2,-24(fp)
  800e64:	1885883a 	add	r2,r3,r2
  800e68:	10800c04 	addi	r2,r2,48
  800e6c:	e0fffe03 	ldbu	r3,-8(fp)
  800e70:	10c00005 	stb	r3,0(r2)
    int width  = sp->line[y].width;
    int offset = (scrollpos * sp->line[y].speed) >> 8;
    if (offset >= width)
      offset = 0;

    for (x = 0 ; x < ALT_LCD_WIDTH ; x++)
  800e74:	e0bffa17 	ldw	r2,-24(fp)
  800e78:	10800044 	addi	r2,r2,1
  800e7c:	e0bffa15 	stw	r2,-24(fp)
  800e80:	e0bffa17 	ldw	r2,-24(fp)
  800e84:	10800410 	cmplti	r2,r2,16
  800e88:	103fb71e 	bne	r2,zero,800d68 <__alt_data_end+0xff800d68>
   * scrolline lines will wrap at the position set by width
   */

  int scrollpos = sp->scrollpos;

  for (y = 0 ; y < ALT_LCD_HEIGHT ; y++)
  800e8c:	e0bff917 	ldw	r2,-28(fp)
  800e90:	10800044 	addi	r2,r2,1
  800e94:	e0bff915 	stw	r2,-28(fp)
  800e98:	e0bff917 	ldw	r2,-28(fp)
  800e9c:	10800090 	cmplti	r2,r2,2
  800ea0:	103f961e 	bne	r2,zero,800cfc <__alt_data_end+0xff800cfc>
        lcd_write_data(sp, c);
        sp->line[y].visible[x] = c;
      }
    }
  }
}
  800ea4:	0001883a 	nop
  800ea8:	e037883a 	mov	sp,fp
  800eac:	dfc00117 	ldw	ra,4(sp)
  800eb0:	df000017 	ldw	fp,0(sp)
  800eb4:	dec00204 	addi	sp,sp,8
  800eb8:	f800283a 	ret

00800ebc <lcd_scroll_up>:

/* --------------------------------------------------------------------- */

static void lcd_scroll_up(altera_avalon_lcd_16207_state* sp)
{
  800ebc:	defffc04 	addi	sp,sp,-16
  800ec0:	dfc00315 	stw	ra,12(sp)
  800ec4:	df000215 	stw	fp,8(sp)
  800ec8:	df000204 	addi	fp,sp,8
  800ecc:	e13fff15 	stw	r4,-4(fp)
  int y;

  for (y = 0 ; y < ALT_LCD_HEIGHT ; y++)
  800ed0:	e03ffe15 	stw	zero,-8(fp)
  800ed4:	00001d06 	br	800f4c <lcd_scroll_up+0x90>
  {
    if (y < ALT_LCD_HEIGHT-1)
  800ed8:	e0bffe17 	ldw	r2,-8(fp)
  800edc:	00800f16 	blt	zero,r2,800f1c <lcd_scroll_up+0x60>
      memcpy(sp->line[y].data, sp->line[y+1].data, ALT_LCD_VIRTUAL_WIDTH);
  800ee0:	e0bffe17 	ldw	r2,-8(fp)
  800ee4:	108018e4 	muli	r2,r2,99
  800ee8:	10801004 	addi	r2,r2,64
  800eec:	e0ffff17 	ldw	r3,-4(fp)
  800ef0:	1889883a 	add	r4,r3,r2
  800ef4:	e0bffe17 	ldw	r2,-8(fp)
  800ef8:	10800044 	addi	r2,r2,1
  800efc:	108018e4 	muli	r2,r2,99
  800f00:	10801004 	addi	r2,r2,64
  800f04:	e0ffff17 	ldw	r3,-4(fp)
  800f08:	1885883a 	add	r2,r3,r2
  800f0c:	01801404 	movi	r6,80
  800f10:	100b883a 	mov	r5,r2
  800f14:	0803c300 	call	803c30 <memcpy>
  800f18:	00000906 	br	800f40 <lcd_scroll_up+0x84>
    else
      memset(sp->line[y].data, ' ', ALT_LCD_VIRTUAL_WIDTH);
  800f1c:	e0bffe17 	ldw	r2,-8(fp)
  800f20:	108018e4 	muli	r2,r2,99
  800f24:	10801004 	addi	r2,r2,64
  800f28:	e0ffff17 	ldw	r3,-4(fp)
  800f2c:	1885883a 	add	r2,r3,r2
  800f30:	01801404 	movi	r6,80
  800f34:	01400804 	movi	r5,32
  800f38:	1009883a 	mov	r4,r2
  800f3c:	0803d780 	call	803d78 <memset>

static void lcd_scroll_up(altera_avalon_lcd_16207_state* sp)
{
  int y;

  for (y = 0 ; y < ALT_LCD_HEIGHT ; y++)
  800f40:	e0bffe17 	ldw	r2,-8(fp)
  800f44:	10800044 	addi	r2,r2,1
  800f48:	e0bffe15 	stw	r2,-8(fp)
  800f4c:	e0bffe17 	ldw	r2,-8(fp)
  800f50:	10800090 	cmplti	r2,r2,2
  800f54:	103fe01e 	bne	r2,zero,800ed8 <__alt_data_end+0xff800ed8>
      memcpy(sp->line[y].data, sp->line[y+1].data, ALT_LCD_VIRTUAL_WIDTH);
    else
      memset(sp->line[y].data, ' ', ALT_LCD_VIRTUAL_WIDTH);
  }

  sp->y--;
  800f58:	e0bfff17 	ldw	r2,-4(fp)
  800f5c:	10800883 	ldbu	r2,34(r2)
  800f60:	10bfffc4 	addi	r2,r2,-1
  800f64:	1007883a 	mov	r3,r2
  800f68:	e0bfff17 	ldw	r2,-4(fp)
  800f6c:	10c00885 	stb	r3,34(r2)
}
  800f70:	0001883a 	nop
  800f74:	e037883a 	mov	sp,fp
  800f78:	dfc00117 	ldw	ra,4(sp)
  800f7c:	df000017 	ldw	fp,0(sp)
  800f80:	dec00204 	addi	sp,sp,8
  800f84:	f800283a 	ret

00800f88 <lcd_handle_escape>:

/* --------------------------------------------------------------------- */

static void lcd_handle_escape(altera_avalon_lcd_16207_state* sp, char c)
{
  800f88:	defff904 	addi	sp,sp,-28
  800f8c:	dfc00615 	stw	ra,24(sp)
  800f90:	df000515 	stw	fp,20(sp)
  800f94:	df000504 	addi	fp,sp,20
  800f98:	e13ffe15 	stw	r4,-8(fp)
  800f9c:	2805883a 	mov	r2,r5
  800fa0:	e0bfff05 	stb	r2,-4(fp)
  int parm1 = 0, parm2 = 0;
  800fa4:	e03ffb15 	stw	zero,-20(fp)
  800fa8:	e03ffc15 	stw	zero,-16(fp)

  if (sp->escape[0] == '[')
  800fac:	e0bffe17 	ldw	r2,-8(fp)
  800fb0:	10800a03 	ldbu	r2,40(r2)
  800fb4:	10803fcc 	andi	r2,r2,255
  800fb8:	1080201c 	xori	r2,r2,128
  800fbc:	10bfe004 	addi	r2,r2,-128
  800fc0:	108016d8 	cmpnei	r2,r2,91
  800fc4:	1000411e 	bne	r2,zero,8010cc <lcd_handle_escape+0x144>
  {
    char * ptr = sp->escape+1;
  800fc8:	e0bffe17 	ldw	r2,-8(fp)
  800fcc:	10800a04 	addi	r2,r2,40
  800fd0:	10800044 	addi	r2,r2,1
  800fd4:	e0bffd15 	stw	r2,-12(fp)
    while (isdigit(*ptr))
  800fd8:	00000c06 	br	80100c <lcd_handle_escape+0x84>
      parm1 = (parm1 * 10) + (*ptr++ - '0');
  800fdc:	e0bffb17 	ldw	r2,-20(fp)
  800fe0:	10c002a4 	muli	r3,r2,10
  800fe4:	e0bffd17 	ldw	r2,-12(fp)
  800fe8:	11000044 	addi	r4,r2,1
  800fec:	e13ffd15 	stw	r4,-12(fp)
  800ff0:	10800003 	ldbu	r2,0(r2)
  800ff4:	10803fcc 	andi	r2,r2,255
  800ff8:	1080201c 	xori	r2,r2,128
  800ffc:	10bfe004 	addi	r2,r2,-128
  801000:	10bff404 	addi	r2,r2,-48
  801004:	1885883a 	add	r2,r3,r2
  801008:	e0bffb15 	stw	r2,-20(fp)
  int parm1 = 0, parm2 = 0;

  if (sp->escape[0] == '[')
  {
    char * ptr = sp->escape+1;
    while (isdigit(*ptr))
  80100c:	d0e00a17 	ldw	r3,-32728(gp)
  801010:	e0bffd17 	ldw	r2,-12(fp)
  801014:	10800003 	ldbu	r2,0(r2)
  801018:	10803fcc 	andi	r2,r2,255
  80101c:	1080201c 	xori	r2,r2,128
  801020:	10bfe004 	addi	r2,r2,-128
  801024:	10800044 	addi	r2,r2,1
  801028:	1885883a 	add	r2,r3,r2
  80102c:	10800003 	ldbu	r2,0(r2)
  801030:	10803fcc 	andi	r2,r2,255
  801034:	1080010c 	andi	r2,r2,4
  801038:	103fe81e 	bne	r2,zero,800fdc <__alt_data_end+0xff800fdc>
      parm1 = (parm1 * 10) + (*ptr++ - '0');

    if (*ptr == ';')
  80103c:	e0bffd17 	ldw	r2,-12(fp)
  801040:	10800003 	ldbu	r2,0(r2)
  801044:	10803fcc 	andi	r2,r2,255
  801048:	1080201c 	xori	r2,r2,128
  80104c:	10bfe004 	addi	r2,r2,-128
  801050:	10800ed8 	cmpnei	r2,r2,59
  801054:	10001f1e 	bne	r2,zero,8010d4 <lcd_handle_escape+0x14c>
    {
      ptr++;
  801058:	e0bffd17 	ldw	r2,-12(fp)
  80105c:	10800044 	addi	r2,r2,1
  801060:	e0bffd15 	stw	r2,-12(fp)
      while (isdigit(*ptr))
  801064:	00000c06 	br	801098 <lcd_handle_escape+0x110>
        parm2 = (parm2 * 10) + (*ptr++ - '0');
  801068:	e0bffc17 	ldw	r2,-16(fp)
  80106c:	10c002a4 	muli	r3,r2,10
  801070:	e0bffd17 	ldw	r2,-12(fp)
  801074:	11000044 	addi	r4,r2,1
  801078:	e13ffd15 	stw	r4,-12(fp)
  80107c:	10800003 	ldbu	r2,0(r2)
  801080:	10803fcc 	andi	r2,r2,255
  801084:	1080201c 	xori	r2,r2,128
  801088:	10bfe004 	addi	r2,r2,-128
  80108c:	10bff404 	addi	r2,r2,-48
  801090:	1885883a 	add	r2,r3,r2
  801094:	e0bffc15 	stw	r2,-16(fp)
      parm1 = (parm1 * 10) + (*ptr++ - '0');

    if (*ptr == ';')
    {
      ptr++;
      while (isdigit(*ptr))
  801098:	d0e00a17 	ldw	r3,-32728(gp)
  80109c:	e0bffd17 	ldw	r2,-12(fp)
  8010a0:	10800003 	ldbu	r2,0(r2)
  8010a4:	10803fcc 	andi	r2,r2,255
  8010a8:	1080201c 	xori	r2,r2,128
  8010ac:	10bfe004 	addi	r2,r2,-128
  8010b0:	10800044 	addi	r2,r2,1
  8010b4:	1885883a 	add	r2,r3,r2
  8010b8:	10800003 	ldbu	r2,0(r2)
  8010bc:	10803fcc 	andi	r2,r2,255
  8010c0:	1080010c 	andi	r2,r2,4
  8010c4:	103fe81e 	bne	r2,zero,801068 <__alt_data_end+0xff801068>
  8010c8:	00000206 	br	8010d4 <lcd_handle_escape+0x14c>
        parm2 = (parm2 * 10) + (*ptr++ - '0');
    }
  }
  else
    parm1 = -1;
  8010cc:	00bfffc4 	movi	r2,-1
  8010d0:	e0bffb15 	stw	r2,-20(fp)

  switch (c)
  8010d4:	e0bfff07 	ldb	r2,-4(fp)
  8010d8:	10c012a0 	cmpeqi	r3,r2,74
  8010dc:	1800291e 	bne	r3,zero,801184 <lcd_handle_escape+0x1fc>
  8010e0:	10c012c8 	cmpgei	r3,r2,75
  8010e4:	1800031e 	bne	r3,zero,8010f4 <lcd_handle_escape+0x16c>
  8010e8:	10801220 	cmpeqi	r2,r2,72
  8010ec:	1000061e 	bne	r2,zero,801108 <lcd_handle_escape+0x180>
      if (sp->x < ALT_LCD_VIRTUAL_WIDTH)
        memset(sp->line[sp->y].data + sp->x, ' ', ALT_LCD_VIRTUAL_WIDTH - sp->x);
    }
    break;
  }
}
  8010f0:	00004a06 	br	80121c <lcd_handle_escape+0x294>
    }
  }
  else
    parm1 = -1;

  switch (c)
  8010f4:	10c012e0 	cmpeqi	r3,r2,75
  8010f8:	1800281e 	bne	r3,zero,80119c <lcd_handle_escape+0x214>
  8010fc:	108019a0 	cmpeqi	r2,r2,102
  801100:	1000011e 	bne	r2,zero,801108 <lcd_handle_escape+0x180>
      if (sp->x < ALT_LCD_VIRTUAL_WIDTH)
        memset(sp->line[sp->y].data + sp->x, ' ', ALT_LCD_VIRTUAL_WIDTH - sp->x);
    }
    break;
  }
}
  801104:	00004506 	br	80121c <lcd_handle_escape+0x294>

  switch (c)
  {
  case 'H': /* ESC '[' <y> ';' <x> 'H'  : Move cursor to location */
  case 'f': /* Same as above */
    if (parm2 > 0)
  801108:	e0bffc17 	ldw	r2,-16(fp)
  80110c:	0080050e 	bge	zero,r2,801124 <lcd_handle_escape+0x19c>
      sp->x = parm2 - 1;
  801110:	e0bffc17 	ldw	r2,-16(fp)
  801114:	10bfffc4 	addi	r2,r2,-1
  801118:	1007883a 	mov	r3,r2
  80111c:	e0bffe17 	ldw	r2,-8(fp)
  801120:	10c00845 	stb	r3,33(r2)
    if (parm1 > 0)
  801124:	e0bffb17 	ldw	r2,-20(fp)
  801128:	0080370e 	bge	zero,r2,801208 <lcd_handle_escape+0x280>
    {
      sp->y = parm1 - 1;
  80112c:	e0bffb17 	ldw	r2,-20(fp)
  801130:	10bfffc4 	addi	r2,r2,-1
  801134:	1007883a 	mov	r3,r2
  801138:	e0bffe17 	ldw	r2,-8(fp)
  80113c:	10c00885 	stb	r3,34(r2)
      if (sp->y > ALT_LCD_HEIGHT * 2)
  801140:	e0bffe17 	ldw	r2,-8(fp)
  801144:	10800883 	ldbu	r2,34(r2)
  801148:	10803fcc 	andi	r2,r2,255
  80114c:	10800170 	cmpltui	r2,r2,5
  801150:	1000061e 	bne	r2,zero,80116c <lcd_handle_escape+0x1e4>
        sp->y = ALT_LCD_HEIGHT * 2;
  801154:	e0bffe17 	ldw	r2,-8(fp)
  801158:	00c00104 	movi	r3,4
  80115c:	10c00885 	stb	r3,34(r2)
      while (sp->y > ALT_LCD_HEIGHT)
  801160:	00000206 	br	80116c <lcd_handle_escape+0x1e4>
        lcd_scroll_up(sp);
  801164:	e13ffe17 	ldw	r4,-8(fp)
  801168:	0800ebc0 	call	800ebc <lcd_scroll_up>
    if (parm1 > 0)
    {
      sp->y = parm1 - 1;
      if (sp->y > ALT_LCD_HEIGHT * 2)
        sp->y = ALT_LCD_HEIGHT * 2;
      while (sp->y > ALT_LCD_HEIGHT)
  80116c:	e0bffe17 	ldw	r2,-8(fp)
  801170:	10800883 	ldbu	r2,34(r2)
  801174:	10803fcc 	andi	r2,r2,255
  801178:	108000e8 	cmpgeui	r2,r2,3
  80117c:	103ff91e 	bne	r2,zero,801164 <__alt_data_end+0xff801164>
        lcd_scroll_up(sp);
    }
    break;
  801180:	00002106 	br	801208 <lcd_handle_escape+0x280>
    /*   ESC J      is clear to beginning of line    [unimplemented]
     *   ESC [ 0 J  is clear to bottom of screen     [unimplemented]
     *   ESC [ 1 J  is clear to beginning of screen  [unimplemented]
     *   ESC [ 2 J  is clear screen
     */
    if (parm1 == 2)
  801184:	e0bffb17 	ldw	r2,-20(fp)
  801188:	10800098 	cmpnei	r2,r2,2
  80118c:	1000201e 	bne	r2,zero,801210 <lcd_handle_escape+0x288>
      lcd_clear_screen(sp);
  801190:	e13ffe17 	ldw	r4,-8(fp)
  801194:	0800c000 	call	800c00 <lcd_clear_screen>
    break;
  801198:	00001d06 	br	801210 <lcd_handle_escape+0x288>
    /*   ESC K      is clear to end of line
     *   ESC [ 0 K  is clear to end of line
     *   ESC [ 1 K  is clear to beginning of line    [unimplemented]
     *   ESC [ 2 K  is clear line                    [unimplemented]
     */
    if (parm1 < 1)
  80119c:	e0bffb17 	ldw	r2,-20(fp)
  8011a0:	00801d16 	blt	zero,r2,801218 <lcd_handle_escape+0x290>
    {
      if (sp->x < ALT_LCD_VIRTUAL_WIDTH)
  8011a4:	e0bffe17 	ldw	r2,-8(fp)
  8011a8:	10800843 	ldbu	r2,33(r2)
  8011ac:	10803fcc 	andi	r2,r2,255
  8011b0:	10801428 	cmpgeui	r2,r2,80
  8011b4:	1000181e 	bne	r2,zero,801218 <lcd_handle_escape+0x290>
        memset(sp->line[sp->y].data + sp->x, ' ', ALT_LCD_VIRTUAL_WIDTH - sp->x);
  8011b8:	e0bffe17 	ldw	r2,-8(fp)
  8011bc:	10800883 	ldbu	r2,34(r2)
  8011c0:	10803fcc 	andi	r2,r2,255
  8011c4:	108018e4 	muli	r2,r2,99
  8011c8:	10801004 	addi	r2,r2,64
  8011cc:	e0fffe17 	ldw	r3,-8(fp)
  8011d0:	1887883a 	add	r3,r3,r2
  8011d4:	e0bffe17 	ldw	r2,-8(fp)
  8011d8:	10800843 	ldbu	r2,33(r2)
  8011dc:	10803fcc 	andi	r2,r2,255
  8011e0:	1889883a 	add	r4,r3,r2
  8011e4:	e0bffe17 	ldw	r2,-8(fp)
  8011e8:	10800843 	ldbu	r2,33(r2)
  8011ec:	10803fcc 	andi	r2,r2,255
  8011f0:	00c01404 	movi	r3,80
  8011f4:	1885c83a 	sub	r2,r3,r2
  8011f8:	100d883a 	mov	r6,r2
  8011fc:	01400804 	movi	r5,32
  801200:	0803d780 	call	803d78 <memset>
    }
    break;
  801204:	00000406 	br	801218 <lcd_handle_escape+0x290>
      if (sp->y > ALT_LCD_HEIGHT * 2)
        sp->y = ALT_LCD_HEIGHT * 2;
      while (sp->y > ALT_LCD_HEIGHT)
        lcd_scroll_up(sp);
    }
    break;
  801208:	0001883a 	nop
  80120c:	00000306 	br	80121c <lcd_handle_escape+0x294>
     *   ESC [ 1 J  is clear to beginning of screen  [unimplemented]
     *   ESC [ 2 J  is clear screen
     */
    if (parm1 == 2)
      lcd_clear_screen(sp);
    break;
  801210:	0001883a 	nop
  801214:	00000106 	br	80121c <lcd_handle_escape+0x294>
    if (parm1 < 1)
    {
      if (sp->x < ALT_LCD_VIRTUAL_WIDTH)
        memset(sp->line[sp->y].data + sp->x, ' ', ALT_LCD_VIRTUAL_WIDTH - sp->x);
    }
    break;
  801218:	0001883a 	nop
  }
}
  80121c:	0001883a 	nop
  801220:	e037883a 	mov	sp,fp
  801224:	dfc00117 	ldw	ra,4(sp)
  801228:	df000017 	ldw	fp,0(sp)
  80122c:	dec00204 	addi	sp,sp,8
  801230:	f800283a 	ret

00801234 <altera_avalon_lcd_16207_write>:

/* --------------------------------------------------------------------- */

int altera_avalon_lcd_16207_write(altera_avalon_lcd_16207_state* sp, 
  const char* ptr, int len, int flags)
{
  801234:	defff304 	addi	sp,sp,-52
  801238:	dfc00c15 	stw	ra,48(sp)
  80123c:	df000b15 	stw	fp,44(sp)
  801240:	df000b04 	addi	fp,sp,44
  801244:	e13ffc15 	stw	r4,-16(fp)
  801248:	e17ffd15 	stw	r5,-12(fp)
  80124c:	e1bffe15 	stw	r6,-8(fp)
  801250:	e1ffff15 	stw	r7,-4(fp)
  const char* end = ptr + len;
  801254:	e0bffe17 	ldw	r2,-8(fp)
  801258:	e0fffd17 	ldw	r3,-12(fp)
  80125c:	1885883a 	add	r2,r3,r2
  801260:	e0bff815 	stw	r2,-32(fp)

  ALT_SEM_PEND (sp->write_lock, 0);

  /* Tell the routine which is called off the timer interrupt that the
   * foreground routines are active so it must not repaint the display. */
  sp->active = 1;
  801264:	e0bffc17 	ldw	r2,-16(fp)
  801268:	00c00044 	movi	r3,1
  80126c:	10c009c5 	stb	r3,39(r2)

  for ( ; ptr < end ; ptr++)
  801270:	00009906 	br	8014d8 <altera_avalon_lcd_16207_write+0x2a4>
  {
    char c = *ptr;
  801274:	e0bffd17 	ldw	r2,-12(fp)
  801278:	10800003 	ldbu	r2,0(r2)
  80127c:	e0bff905 	stb	r2,-28(fp)

    if (sp->esccount >= 0)
  801280:	e0bffc17 	ldw	r2,-16(fp)
  801284:	10800903 	ldbu	r2,36(r2)
  801288:	10803fcc 	andi	r2,r2,255
  80128c:	1080201c 	xori	r2,r2,128
  801290:	10bfe004 	addi	r2,r2,-128
  801294:	10003716 	blt	r2,zero,801374 <altera_avalon_lcd_16207_write+0x140>
    {
      unsigned int esccount = sp->esccount;
  801298:	e0bffc17 	ldw	r2,-16(fp)
  80129c:	10800903 	ldbu	r2,36(r2)
  8012a0:	10803fcc 	andi	r2,r2,255
  8012a4:	1080201c 	xori	r2,r2,128
  8012a8:	10bfe004 	addi	r2,r2,-128
  8012ac:	e0bffa15 	stw	r2,-24(fp)

      /* Single character escape sequences can end with any character
       * Multi character escape sequences start with '[' and contain
       * digits and semicolons before terminating
       */
      if ((esccount == 0 && c != '[') ||
  8012b0:	e0bffa17 	ldw	r2,-24(fp)
  8012b4:	1000031e 	bne	r2,zero,8012c4 <altera_avalon_lcd_16207_write+0x90>
  8012b8:	e0bff907 	ldb	r2,-28(fp)
  8012bc:	108016d8 	cmpnei	r2,r2,91
  8012c0:	10000d1e 	bne	r2,zero,8012f8 <altera_avalon_lcd_16207_write+0xc4>
  8012c4:	e0bffa17 	ldw	r2,-24(fp)
  8012c8:	10001826 	beq	r2,zero,80132c <altera_avalon_lcd_16207_write+0xf8>
          (esccount > 0 && !isdigit(c) && c != ';'))
  8012cc:	d0e00a17 	ldw	r3,-32728(gp)
  8012d0:	e0bff907 	ldb	r2,-28(fp)
  8012d4:	10800044 	addi	r2,r2,1
  8012d8:	1885883a 	add	r2,r3,r2
  8012dc:	10800003 	ldbu	r2,0(r2)
  8012e0:	10803fcc 	andi	r2,r2,255
  8012e4:	1080010c 	andi	r2,r2,4
  8012e8:	1000101e 	bne	r2,zero,80132c <altera_avalon_lcd_16207_write+0xf8>
  8012ec:	e0bff907 	ldb	r2,-28(fp)
  8012f0:	10800ee0 	cmpeqi	r2,r2,59
  8012f4:	10000d1e 	bne	r2,zero,80132c <altera_avalon_lcd_16207_write+0xf8>
      {
        sp->escape[esccount] = 0;
  8012f8:	e0fffc17 	ldw	r3,-16(fp)
  8012fc:	e0bffa17 	ldw	r2,-24(fp)
  801300:	1885883a 	add	r2,r3,r2
  801304:	10800a04 	addi	r2,r2,40
  801308:	10000005 	stb	zero,0(r2)

        lcd_handle_escape(sp, c);
  80130c:	e0bff907 	ldb	r2,-28(fp)
  801310:	100b883a 	mov	r5,r2
  801314:	e13ffc17 	ldw	r4,-16(fp)
  801318:	0800f880 	call	800f88 <lcd_handle_escape>

        sp->esccount = -1;
  80131c:	e0bffc17 	ldw	r2,-16(fp)
  801320:	00ffffc4 	movi	r3,-1
  801324:	10c00905 	stb	r3,36(r2)
  801328:	00006806 	br	8014cc <altera_avalon_lcd_16207_write+0x298>
      }
      else if (sp->esccount < sizeof(sp->escape)-1)
  80132c:	e0bffc17 	ldw	r2,-16(fp)
  801330:	10800903 	ldbu	r2,36(r2)
  801334:	10803fcc 	andi	r2,r2,255
  801338:	108001e8 	cmpgeui	r2,r2,7
  80133c:	1000631e 	bne	r2,zero,8014cc <altera_avalon_lcd_16207_write+0x298>
      {
        sp->escape[esccount] = c;
  801340:	e0fffc17 	ldw	r3,-16(fp)
  801344:	e0bffa17 	ldw	r2,-24(fp)
  801348:	1885883a 	add	r2,r3,r2
  80134c:	10800a04 	addi	r2,r2,40
  801350:	e0fff903 	ldbu	r3,-28(fp)
  801354:	10c00005 	stb	r3,0(r2)
        sp->esccount++;
  801358:	e0bffc17 	ldw	r2,-16(fp)
  80135c:	10800903 	ldbu	r2,36(r2)
  801360:	10800044 	addi	r2,r2,1
  801364:	1007883a 	mov	r3,r2
  801368:	e0bffc17 	ldw	r2,-16(fp)
  80136c:	10c00905 	stb	r3,36(r2)
  801370:	00005606 	br	8014cc <altera_avalon_lcd_16207_write+0x298>
      }
    }
    else if (c == 27) /* ESC */
  801374:	e0bff907 	ldb	r2,-28(fp)
  801378:	108006d8 	cmpnei	r2,r2,27
  80137c:	1000031e 	bne	r2,zero,80138c <altera_avalon_lcd_16207_write+0x158>
    {
      sp->esccount = 0;
  801380:	e0bffc17 	ldw	r2,-16(fp)
  801384:	10000905 	stb	zero,36(r2)
  801388:	00005006 	br	8014cc <altera_avalon_lcd_16207_write+0x298>
    }
    else if (c == '\r')
  80138c:	e0bff907 	ldb	r2,-28(fp)
  801390:	10800358 	cmpnei	r2,r2,13
  801394:	1000031e 	bne	r2,zero,8013a4 <altera_avalon_lcd_16207_write+0x170>
    {
      sp->x = 0;
  801398:	e0bffc17 	ldw	r2,-16(fp)
  80139c:	10000845 	stb	zero,33(r2)
  8013a0:	00004a06 	br	8014cc <altera_avalon_lcd_16207_write+0x298>
    }
    else if (c == '\n')
  8013a4:	e0bff907 	ldb	r2,-28(fp)
  8013a8:	10800298 	cmpnei	r2,r2,10
  8013ac:	1000101e 	bne	r2,zero,8013f0 <altera_avalon_lcd_16207_write+0x1bc>
    {
      sp->x = 0;
  8013b0:	e0bffc17 	ldw	r2,-16(fp)
  8013b4:	10000845 	stb	zero,33(r2)
      sp->y++;
  8013b8:	e0bffc17 	ldw	r2,-16(fp)
  8013bc:	10800883 	ldbu	r2,34(r2)
  8013c0:	10800044 	addi	r2,r2,1
  8013c4:	1007883a 	mov	r3,r2
  8013c8:	e0bffc17 	ldw	r2,-16(fp)
  8013cc:	10c00885 	stb	r3,34(r2)

      /* Let the cursor sit at X=0, Y=HEIGHT without scrolling so the user
       * can print two lines of data without losing one.
       */
      if (sp->y > ALT_LCD_HEIGHT)
  8013d0:	e0bffc17 	ldw	r2,-16(fp)
  8013d4:	10800883 	ldbu	r2,34(r2)
  8013d8:	10803fcc 	andi	r2,r2,255
  8013dc:	108000f0 	cmpltui	r2,r2,3
  8013e0:	10003a1e 	bne	r2,zero,8014cc <altera_avalon_lcd_16207_write+0x298>
        lcd_scroll_up(sp);
  8013e4:	e13ffc17 	ldw	r4,-16(fp)
  8013e8:	0800ebc0 	call	800ebc <lcd_scroll_up>
  8013ec:	00003706 	br	8014cc <altera_avalon_lcd_16207_write+0x298>
    }
    else if (c == '\b')
  8013f0:	e0bff907 	ldb	r2,-28(fp)
  8013f4:	10800218 	cmpnei	r2,r2,8
  8013f8:	10000b1e 	bne	r2,zero,801428 <altera_avalon_lcd_16207_write+0x1f4>
    {
      if (sp->x > 0)
  8013fc:	e0bffc17 	ldw	r2,-16(fp)
  801400:	10800843 	ldbu	r2,33(r2)
  801404:	10803fcc 	andi	r2,r2,255
  801408:	10003026 	beq	r2,zero,8014cc <altera_avalon_lcd_16207_write+0x298>
        sp->x--;
  80140c:	e0bffc17 	ldw	r2,-16(fp)
  801410:	10800843 	ldbu	r2,33(r2)
  801414:	10bfffc4 	addi	r2,r2,-1
  801418:	1007883a 	mov	r3,r2
  80141c:	e0bffc17 	ldw	r2,-16(fp)
  801420:	10c00845 	stb	r3,33(r2)
  801424:	00002906 	br	8014cc <altera_avalon_lcd_16207_write+0x298>
    }
    else if (isprint(c))
  801428:	d0e00a17 	ldw	r3,-32728(gp)
  80142c:	e0bff907 	ldb	r2,-28(fp)
  801430:	10800044 	addi	r2,r2,1
  801434:	1885883a 	add	r2,r3,r2
  801438:	10800003 	ldbu	r2,0(r2)
  80143c:	10803fcc 	andi	r2,r2,255
  801440:	1080201c 	xori	r2,r2,128
  801444:	10bfe004 	addi	r2,r2,-128
  801448:	108025cc 	andi	r2,r2,151
  80144c:	10001f26 	beq	r2,zero,8014cc <altera_avalon_lcd_16207_write+0x298>
    {
      /* If we didn't scroll on the last linefeed then we might need to do
       * it now. */
      if (sp->y >= ALT_LCD_HEIGHT)
  801450:	e0bffc17 	ldw	r2,-16(fp)
  801454:	10800883 	ldbu	r2,34(r2)
  801458:	10803fcc 	andi	r2,r2,255
  80145c:	108000b0 	cmpltui	r2,r2,2
  801460:	1000021e 	bne	r2,zero,80146c <altera_avalon_lcd_16207_write+0x238>
        lcd_scroll_up(sp);
  801464:	e13ffc17 	ldw	r4,-16(fp)
  801468:	0800ebc0 	call	800ebc <lcd_scroll_up>

      if (sp->x < ALT_LCD_VIRTUAL_WIDTH)
  80146c:	e0bffc17 	ldw	r2,-16(fp)
  801470:	10800843 	ldbu	r2,33(r2)
  801474:	10803fcc 	andi	r2,r2,255
  801478:	10801428 	cmpgeui	r2,r2,80
  80147c:	10000d1e 	bne	r2,zero,8014b4 <altera_avalon_lcd_16207_write+0x280>
        sp->line[sp->y].data[sp->x] = c;
  801480:	e0bffc17 	ldw	r2,-16(fp)
  801484:	10800883 	ldbu	r2,34(r2)
  801488:	10c03fcc 	andi	r3,r2,255
  80148c:	e0bffc17 	ldw	r2,-16(fp)
  801490:	10800843 	ldbu	r2,33(r2)
  801494:	10803fcc 	andi	r2,r2,255
  801498:	e13ffc17 	ldw	r4,-16(fp)
  80149c:	18c018e4 	muli	r3,r3,99
  8014a0:	20c7883a 	add	r3,r4,r3
  8014a4:	1885883a 	add	r2,r3,r2
  8014a8:	10801004 	addi	r2,r2,64
  8014ac:	e0fff903 	ldbu	r3,-28(fp)
  8014b0:	10c00005 	stb	r3,0(r2)

      sp->x++;
  8014b4:	e0bffc17 	ldw	r2,-16(fp)
  8014b8:	10800843 	ldbu	r2,33(r2)
  8014bc:	10800044 	addi	r2,r2,1
  8014c0:	1007883a 	mov	r3,r2
  8014c4:	e0bffc17 	ldw	r2,-16(fp)
  8014c8:	10c00845 	stb	r3,33(r2)

  /* Tell the routine which is called off the timer interrupt that the
   * foreground routines are active so it must not repaint the display. */
  sp->active = 1;

  for ( ; ptr < end ; ptr++)
  8014cc:	e0bffd17 	ldw	r2,-12(fp)
  8014d0:	10800044 	addi	r2,r2,1
  8014d4:	e0bffd15 	stw	r2,-12(fp)
  8014d8:	e0fffd17 	ldw	r3,-12(fp)
  8014dc:	e0bff817 	ldw	r2,-32(fp)
  8014e0:	18bf6436 	bltu	r3,r2,801274 <__alt_data_end+0xff801274>
      sp->x++;
    }
  }

  /* Recalculate the scrolling parameters */
  widthmax = ALT_LCD_WIDTH;
  8014e4:	00800404 	movi	r2,16
  8014e8:	e0bff615 	stw	r2,-40(fp)
  for (y = 0 ; y < ALT_LCD_HEIGHT ; y++)
  8014ec:	e03ff515 	stw	zero,-44(fp)
  8014f0:	00003706 	br	8015d0 <altera_avalon_lcd_16207_write+0x39c>
  {
    int width;
    for (width = ALT_LCD_VIRTUAL_WIDTH ; width > 0 ; width--)
  8014f4:	00801404 	movi	r2,80
  8014f8:	e0bff715 	stw	r2,-36(fp)
  8014fc:	00001106 	br	801544 <altera_avalon_lcd_16207_write+0x310>
      if (sp->line[y].data[width-1] != ' ')
  801500:	e0bff717 	ldw	r2,-36(fp)
  801504:	10bfffc4 	addi	r2,r2,-1
  801508:	e13ffc17 	ldw	r4,-16(fp)
  80150c:	e0fff517 	ldw	r3,-44(fp)
  801510:	18c018e4 	muli	r3,r3,99
  801514:	20c7883a 	add	r3,r4,r3
  801518:	1885883a 	add	r2,r3,r2
  80151c:	10801004 	addi	r2,r2,64
  801520:	10800003 	ldbu	r2,0(r2)
  801524:	10803fcc 	andi	r2,r2,255
  801528:	1080201c 	xori	r2,r2,128
  80152c:	10bfe004 	addi	r2,r2,-128
  801530:	10800820 	cmpeqi	r2,r2,32
  801534:	10000626 	beq	r2,zero,801550 <altera_avalon_lcd_16207_write+0x31c>
  /* Recalculate the scrolling parameters */
  widthmax = ALT_LCD_WIDTH;
  for (y = 0 ; y < ALT_LCD_HEIGHT ; y++)
  {
    int width;
    for (width = ALT_LCD_VIRTUAL_WIDTH ; width > 0 ; width--)
  801538:	e0bff717 	ldw	r2,-36(fp)
  80153c:	10bfffc4 	addi	r2,r2,-1
  801540:	e0bff715 	stw	r2,-36(fp)
  801544:	e0bff717 	ldw	r2,-36(fp)
  801548:	00bfed16 	blt	zero,r2,801500 <__alt_data_end+0xff801500>
  80154c:	00000106 	br	801554 <altera_avalon_lcd_16207_write+0x320>
      if (sp->line[y].data[width-1] != ' ')
        break;
  801550:	0001883a 	nop

    /* The minimum width is the size of the LCD panel.  If the real width
     * is long enough to require scrolling then add an extra space so the
     * end of the message doesn't run into the beginning of it.
     */
    if (width <= ALT_LCD_WIDTH)
  801554:	e0bff717 	ldw	r2,-36(fp)
  801558:	10800448 	cmpgei	r2,r2,17
  80155c:	1000031e 	bne	r2,zero,80156c <altera_avalon_lcd_16207_write+0x338>
      width = ALT_LCD_WIDTH;
  801560:	00800404 	movi	r2,16
  801564:	e0bff715 	stw	r2,-36(fp)
  801568:	00000306 	br	801578 <altera_avalon_lcd_16207_write+0x344>
    else
      width++;
  80156c:	e0bff717 	ldw	r2,-36(fp)
  801570:	10800044 	addi	r2,r2,1
  801574:	e0bff715 	stw	r2,-36(fp)

    sp->line[y].width = width;
  801578:	e0bff717 	ldw	r2,-36(fp)
  80157c:	1009883a 	mov	r4,r2
  801580:	e0fffc17 	ldw	r3,-16(fp)
  801584:	e0bff517 	ldw	r2,-44(fp)
  801588:	108018e4 	muli	r2,r2,99
  80158c:	1885883a 	add	r2,r3,r2
  801590:	10802444 	addi	r2,r2,145
  801594:	11000005 	stb	r4,0(r2)
    if (widthmax < width)
  801598:	e0fff617 	ldw	r3,-40(fp)
  80159c:	e0bff717 	ldw	r2,-36(fp)
  8015a0:	1880020e 	bge	r3,r2,8015ac <altera_avalon_lcd_16207_write+0x378>
      widthmax = width;
  8015a4:	e0bff717 	ldw	r2,-36(fp)
  8015a8:	e0bff615 	stw	r2,-40(fp)
    sp->line[y].speed = 0; /* By default lines don't scroll */
  8015ac:	e0fffc17 	ldw	r3,-16(fp)
  8015b0:	e0bff517 	ldw	r2,-44(fp)
  8015b4:	108018e4 	muli	r2,r2,99
  8015b8:	1885883a 	add	r2,r3,r2
  8015bc:	10802484 	addi	r2,r2,146
  8015c0:	10000005 	stb	zero,0(r2)
    }
  }

  /* Recalculate the scrolling parameters */
  widthmax = ALT_LCD_WIDTH;
  for (y = 0 ; y < ALT_LCD_HEIGHT ; y++)
  8015c4:	e0bff517 	ldw	r2,-44(fp)
  8015c8:	10800044 	addi	r2,r2,1
  8015cc:	e0bff515 	stw	r2,-44(fp)
  8015d0:	e0bff517 	ldw	r2,-44(fp)
  8015d4:	10800090 	cmplti	r2,r2,2
  8015d8:	103fc61e 	bne	r2,zero,8014f4 <__alt_data_end+0xff8014f4>
    if (widthmax < width)
      widthmax = width;
    sp->line[y].speed = 0; /* By default lines don't scroll */
  }

  if (widthmax <= ALT_LCD_WIDTH)
  8015dc:	e0bff617 	ldw	r2,-40(fp)
  8015e0:	10800448 	cmpgei	r2,r2,17
  8015e4:	1000031e 	bne	r2,zero,8015f4 <altera_avalon_lcd_16207_write+0x3c0>
    sp->scrollmax = 0;
  8015e8:	e0bffc17 	ldw	r2,-16(fp)
  8015ec:	10000985 	stb	zero,38(r2)
  8015f0:	00002e06 	br	8016ac <altera_avalon_lcd_16207_write+0x478>
  else
  {
    widthmax *= 2;
  8015f4:	e0bff617 	ldw	r2,-40(fp)
  8015f8:	1085883a 	add	r2,r2,r2
  8015fc:	e0bff615 	stw	r2,-40(fp)
    sp->scrollmax = widthmax;
  801600:	e0bff617 	ldw	r2,-40(fp)
  801604:	1007883a 	mov	r3,r2
  801608:	e0bffc17 	ldw	r2,-16(fp)
  80160c:	10c00985 	stb	r3,38(r2)

    /* Now calculate how fast each of the other lines should go */
    for (y = 0 ; y < ALT_LCD_HEIGHT ; y++)
  801610:	e03ff515 	stw	zero,-44(fp)
  801614:	00002206 	br	8016a0 <altera_avalon_lcd_16207_write+0x46c>
      if (sp->line[y].width > ALT_LCD_WIDTH)
  801618:	e0fffc17 	ldw	r3,-16(fp)
  80161c:	e0bff517 	ldw	r2,-44(fp)
  801620:	108018e4 	muli	r2,r2,99
  801624:	1885883a 	add	r2,r3,r2
  801628:	10802444 	addi	r2,r2,145
  80162c:	10800003 	ldbu	r2,0(r2)
  801630:	10803fcc 	andi	r2,r2,255
  801634:	1080201c 	xori	r2,r2,128
  801638:	10bfe004 	addi	r2,r2,-128
  80163c:	10800450 	cmplti	r2,r2,17
  801640:	1000141e 	bne	r2,zero,801694 <altera_avalon_lcd_16207_write+0x460>
         */
#if 1
        /* This option makes all the lines scroll round at different speeds
         * which are chosen so that all the scrolls finish at the same time.
         */
        sp->line[y].speed = 256 * sp->line[y].width / widthmax;
  801644:	e0fffc17 	ldw	r3,-16(fp)
  801648:	e0bff517 	ldw	r2,-44(fp)
  80164c:	108018e4 	muli	r2,r2,99
  801650:	1885883a 	add	r2,r3,r2
  801654:	10802444 	addi	r2,r2,145
  801658:	10800003 	ldbu	r2,0(r2)
  80165c:	10803fcc 	andi	r2,r2,255
  801660:	1080201c 	xori	r2,r2,128
  801664:	10bfe004 	addi	r2,r2,-128
  801668:	1004923a 	slli	r2,r2,8
  80166c:	e17ff617 	ldw	r5,-40(fp)
  801670:	1009883a 	mov	r4,r2
  801674:	08060680 	call	806068 <__divsi3>
  801678:	1009883a 	mov	r4,r2
  80167c:	e0fffc17 	ldw	r3,-16(fp)
  801680:	e0bff517 	ldw	r2,-44(fp)
  801684:	108018e4 	muli	r2,r2,99
  801688:	1885883a 	add	r2,r3,r2
  80168c:	10802484 	addi	r2,r2,146
  801690:	11000005 	stb	r4,0(r2)
  {
    widthmax *= 2;
    sp->scrollmax = widthmax;

    /* Now calculate how fast each of the other lines should go */
    for (y = 0 ; y < ALT_LCD_HEIGHT ; y++)
  801694:	e0bff517 	ldw	r2,-44(fp)
  801698:	10800044 	addi	r2,r2,1
  80169c:	e0bff515 	stw	r2,-44(fp)
  8016a0:	e0bff517 	ldw	r2,-44(fp)
  8016a4:	10800090 	cmplti	r2,r2,2
  8016a8:	103fdb1e 	bne	r2,zero,801618 <__alt_data_end+0xff801618>
   * (because active was set when the timer interrupt occurred).  If there
   * has been a missed repaint then paint again.  And again.  etc.
   */
  for ( ; ; )
  {
    int old_scrollpos = sp->scrollpos;
  8016ac:	e0bffc17 	ldw	r2,-16(fp)
  8016b0:	10800943 	ldbu	r2,37(r2)
  8016b4:	10803fcc 	andi	r2,r2,255
  8016b8:	e0bffb15 	stw	r2,-20(fp)

    lcd_repaint_screen(sp);
  8016bc:	e13ffc17 	ldw	r4,-16(fp)
  8016c0:	0800cd00 	call	800cd0 <lcd_repaint_screen>

    /* Let the timer routines repaint the display again */
    sp->active = 0;
  8016c4:	e0bffc17 	ldw	r2,-16(fp)
  8016c8:	100009c5 	stb	zero,39(r2)

    /* Have the timer routines tried to scroll while we were painting?
     * If not then we can exit */
    if (sp->scrollpos == old_scrollpos)
  8016cc:	e0bffc17 	ldw	r2,-16(fp)
  8016d0:	10800943 	ldbu	r2,37(r2)
  8016d4:	10c03fcc 	andi	r3,r2,255
  8016d8:	e0bffb17 	ldw	r2,-20(fp)
  8016dc:	18800426 	beq	r3,r2,8016f0 <altera_avalon_lcd_16207_write+0x4bc>
      break;

    /* We need to repaint again since the display scrolled while we were
     * painting last time */
    sp->active = 1;
  8016e0:	e0bffc17 	ldw	r2,-16(fp)
  8016e4:	00c00044 	movi	r3,1
  8016e8:	10c009c5 	stb	r3,39(r2)
  }
  8016ec:	003fef06 	br	8016ac <__alt_data_end+0xff8016ac>
    sp->active = 0;

    /* Have the timer routines tried to scroll while we were painting?
     * If not then we can exit */
    if (sp->scrollpos == old_scrollpos)
      break;
  8016f0:	0001883a 	nop
   * semaphore so that other threads can access the buffer.
   */

  ALT_SEM_POST (sp->write_lock);

  return len;
  8016f4:	e0bffe17 	ldw	r2,-8(fp)
}
  8016f8:	e037883a 	mov	sp,fp
  8016fc:	dfc00117 	ldw	ra,4(sp)
  801700:	df000017 	ldw	fp,0(sp)
  801704:	dec00204 	addi	sp,sp,8
  801708:	f800283a 	ret

0080170c <alt_lcd_16207_timeout>:
/*
 * Timeout routine is called every second
 */

static alt_u32 alt_lcd_16207_timeout(void* context) 
{
  80170c:	defffc04 	addi	sp,sp,-16
  801710:	dfc00315 	stw	ra,12(sp)
  801714:	df000215 	stw	fp,8(sp)
  801718:	df000204 	addi	fp,sp,8
  80171c:	e13fff15 	stw	r4,-4(fp)
  altera_avalon_lcd_16207_state* sp = (altera_avalon_lcd_16207_state*)context;
  801720:	e0bfff17 	ldw	r2,-4(fp)
  801724:	e0bffe15 	stw	r2,-8(fp)

  /* Update the scrolling position */
  if (sp->scrollpos + 1 >= sp->scrollmax)
  801728:	e0bffe17 	ldw	r2,-8(fp)
  80172c:	10800943 	ldbu	r2,37(r2)
  801730:	10803fcc 	andi	r2,r2,255
  801734:	10c00044 	addi	r3,r2,1
  801738:	e0bffe17 	ldw	r2,-8(fp)
  80173c:	10800983 	ldbu	r2,38(r2)
  801740:	10803fcc 	andi	r2,r2,255
  801744:	18800316 	blt	r3,r2,801754 <alt_lcd_16207_timeout+0x48>
    sp->scrollpos = 0;
  801748:	e0bffe17 	ldw	r2,-8(fp)
  80174c:	10000945 	stb	zero,37(r2)
  801750:	00000606 	br	80176c <alt_lcd_16207_timeout+0x60>
  else
    sp->scrollpos = sp->scrollpos + 1;
  801754:	e0bffe17 	ldw	r2,-8(fp)
  801758:	10800943 	ldbu	r2,37(r2)
  80175c:	10800044 	addi	r2,r2,1
  801760:	1007883a 	mov	r3,r2
  801764:	e0bffe17 	ldw	r2,-8(fp)
  801768:	10c00945 	stb	r3,37(r2)

  /* Repaint the panel unless the foreground will do it again soon */
  if (sp->scrollmax > 0 && !sp->active)
  80176c:	e0bffe17 	ldw	r2,-8(fp)
  801770:	10800983 	ldbu	r2,38(r2)
  801774:	10803fcc 	andi	r2,r2,255
  801778:	10000826 	beq	r2,zero,80179c <alt_lcd_16207_timeout+0x90>
  80177c:	e0bffe17 	ldw	r2,-8(fp)
  801780:	108009c3 	ldbu	r2,39(r2)
  801784:	10803fcc 	andi	r2,r2,255
  801788:	1080201c 	xori	r2,r2,128
  80178c:	10bfe004 	addi	r2,r2,-128
  801790:	1000021e 	bne	r2,zero,80179c <alt_lcd_16207_timeout+0x90>
    lcd_repaint_screen(sp);
  801794:	e13ffe17 	ldw	r4,-8(fp)
  801798:	0800cd00 	call	800cd0 <lcd_repaint_screen>

  return sp->period;
  80179c:	e0bffe17 	ldw	r2,-8(fp)
  8017a0:	10800717 	ldw	r2,28(r2)
}
  8017a4:	e037883a 	mov	sp,fp
  8017a8:	dfc00117 	ldw	ra,4(sp)
  8017ac:	df000017 	ldw	fp,0(sp)
  8017b0:	dec00204 	addi	sp,sp,8
  8017b4:	f800283a 	ret

008017b8 <altera_avalon_lcd_16207_init>:

/*
 * Called at boot time to initialise the LCD driver
 */
void altera_avalon_lcd_16207_init(altera_avalon_lcd_16207_state* sp)
{
  8017b8:	defffc04 	addi	sp,sp,-16
  8017bc:	dfc00315 	stw	ra,12(sp)
  8017c0:	df000215 	stw	fp,8(sp)
  8017c4:	df000204 	addi	fp,sp,8
  8017c8:	e13fff15 	stw	r4,-4(fp)
  unsigned int base = sp->base;
  8017cc:	e0bfff17 	ldw	r2,-4(fp)
  8017d0:	10800017 	ldw	r2,0(r2)
  8017d4:	e0bffe15 	stw	r2,-8(fp)

  /* Mark the device as functional */
  sp->broken = 0;
  8017d8:	e0bfff17 	ldw	r2,-4(fp)
  8017dc:	10000805 	stb	zero,32(r2)
   * the BUSY bit in the status register doesn't work until the display
   * has been reset three times.
   */

  /* Wait for 15 ms then reset */
  usleep(15000);
  8017e0:	010ea604 	movi	r4,15000
  8017e4:	08036e40 	call	8036e4 <usleep>
  IOWR_ALTERA_AVALON_LCD_16207_COMMAND(base, LCD_CMD_FUNCTION_SET | LCD_CMD_8BIT);
  8017e8:	e0bffe17 	ldw	r2,-8(fp)
  8017ec:	00c00c04 	movi	r3,48
  8017f0:	10c00035 	stwio	r3,0(r2)

  /* Wait for another 4.1ms and reset again */
  usleep(4100);  
  8017f4:	01040104 	movi	r4,4100
  8017f8:	08036e40 	call	8036e4 <usleep>
  IOWR_ALTERA_AVALON_LCD_16207_COMMAND(base, LCD_CMD_FUNCTION_SET | LCD_CMD_8BIT);
  8017fc:	e0bffe17 	ldw	r2,-8(fp)
  801800:	00c00c04 	movi	r3,48
  801804:	10c00035 	stwio	r3,0(r2)

  /* Wait a further 1 ms and reset a third time */
  usleep(1000);
  801808:	0100fa04 	movi	r4,1000
  80180c:	08036e40 	call	8036e4 <usleep>
  IOWR_ALTERA_AVALON_LCD_16207_COMMAND(base, LCD_CMD_FUNCTION_SET | LCD_CMD_8BIT);
  801810:	e0bffe17 	ldw	r2,-8(fp)
  801814:	00c00c04 	movi	r3,48
  801818:	10c00035 	stwio	r3,0(r2)

  /* Setup interface parameters: 8 bit bus, 2 rows, 5x7 font */
  lcd_write_command(sp, LCD_CMD_FUNCTION_SET | LCD_CMD_8BIT | LCD_CMD_TWO_LINE);
  80181c:	01400e04 	movi	r5,56
  801820:	e13fff17 	ldw	r4,-4(fp)
  801824:	0800a700 	call	800a70 <lcd_write_command>
  
  /* Turn display off */
  lcd_write_command(sp, LCD_CMD_ONOFF);
  801828:	01400204 	movi	r5,8
  80182c:	e13fff17 	ldw	r4,-4(fp)
  801830:	0800a700 	call	800a70 <lcd_write_command>

  /* Clear display */
  lcd_clear_screen(sp);
  801834:	e13fff17 	ldw	r4,-4(fp)
  801838:	0800c000 	call	800c00 <lcd_clear_screen>
  
  /* Set mode: increment after writing, don't shift display */
  lcd_write_command(sp, LCD_CMD_MODES | LCD_CMD_MODE_INC);
  80183c:	01400184 	movi	r5,6
  801840:	e13fff17 	ldw	r4,-4(fp)
  801844:	0800a700 	call	800a70 <lcd_write_command>

  /* Turn display on */
  lcd_write_command(sp, LCD_CMD_ONOFF | LCD_CMD_ENABLE_DISP);
  801848:	01400304 	movi	r5,12
  80184c:	e13fff17 	ldw	r4,-4(fp)
  801850:	0800a700 	call	800a70 <lcd_write_command>

  sp->esccount = -1;
  801854:	e0bfff17 	ldw	r2,-4(fp)
  801858:	00ffffc4 	movi	r3,-1
  80185c:	10c00905 	stb	r3,36(r2)
  memset(sp->escape, 0, sizeof(sp->escape));
  801860:	e0bfff17 	ldw	r2,-4(fp)
  801864:	10800a04 	addi	r2,r2,40
  801868:	01800204 	movi	r6,8
  80186c:	000b883a 	mov	r5,zero
  801870:	1009883a 	mov	r4,r2
  801874:	0803d780 	call	803d78 <memset>

  sp->scrollpos = 0;
  801878:	e0bfff17 	ldw	r2,-4(fp)
  80187c:	10000945 	stb	zero,37(r2)
  sp->scrollmax = 0;
  801880:	e0bfff17 	ldw	r2,-4(fp)
  801884:	10000985 	stb	zero,38(r2)
  sp->active = 0;
  801888:	e0bfff17 	ldw	r2,-4(fp)
  80188c:	100009c5 	stb	zero,39(r2)
 * Obtain the system clock rate in ticks/s. 
 */

static ALT_INLINE alt_u32 ALT_ALWAYS_INLINE alt_ticks_per_second (void)
{
  return _alt_tick_rate;
  801890:	d0a33517 	ldw	r2,-29484(gp)

  sp->period = alt_ticks_per_second() / 10; /* Call every 100ms */
  801894:	01400284 	movi	r5,10
  801898:	1009883a 	mov	r4,r2
  80189c:	08061600 	call	806160 <__udivsi3>
  8018a0:	1007883a 	mov	r3,r2
  8018a4:	e0bfff17 	ldw	r2,-4(fp)
  8018a8:	10c00715 	stw	r3,28(r2)

  alt_alarm_start(&sp->alarm, sp->period, &alt_lcd_16207_timeout, sp);
  8018ac:	e0bfff17 	ldw	r2,-4(fp)
  8018b0:	10c00104 	addi	r3,r2,4
  8018b4:	e0bfff17 	ldw	r2,-4(fp)
  8018b8:	10800717 	ldw	r2,28(r2)
  8018bc:	e1ffff17 	ldw	r7,-4(fp)
  8018c0:	01802034 	movhi	r6,128
  8018c4:	3185c304 	addi	r6,r6,5900
  8018c8:	100b883a 	mov	r5,r2
  8018cc:	1809883a 	mov	r4,r3
  8018d0:	0802ab80 	call	802ab8 <alt_alarm_start>
}
  8018d4:	0001883a 	nop
  8018d8:	e037883a 	mov	sp,fp
  8018dc:	dfc00117 	ldw	ra,4(sp)
  8018e0:	df000017 	ldw	fp,0(sp)
  8018e4:	dec00204 	addi	sp,sp,8
  8018e8:	f800283a 	ret

008018ec <altera_avalon_lcd_16207_write_fd>:
extern int altera_avalon_lcd_16207_write(altera_avalon_lcd_16207_state* sp,
  const char* ptr, int count, int flags);

int 
altera_avalon_lcd_16207_write_fd(alt_fd* fd, const char* buffer, int space)
{
  8018ec:	defffa04 	addi	sp,sp,-24
  8018f0:	dfc00515 	stw	ra,20(sp)
  8018f4:	df000415 	stw	fp,16(sp)
  8018f8:	df000404 	addi	fp,sp,16
  8018fc:	e13ffd15 	stw	r4,-12(fp)
  801900:	e17ffe15 	stw	r5,-8(fp)
  801904:	e1bfff15 	stw	r6,-4(fp)
    altera_avalon_lcd_16207_dev* dev = (altera_avalon_lcd_16207_dev*) fd->dev; 
  801908:	e0bffd17 	ldw	r2,-12(fp)
  80190c:	10800017 	ldw	r2,0(r2)
  801910:	e0bffc15 	stw	r2,-16(fp)

    return altera_avalon_lcd_16207_write(&dev->state, buffer, space,
  801914:	e0bffc17 	ldw	r2,-16(fp)
  801918:	10c00a04 	addi	r3,r2,40
  80191c:	e0bffd17 	ldw	r2,-12(fp)
  801920:	10800217 	ldw	r2,8(r2)
  801924:	100f883a 	mov	r7,r2
  801928:	e1bfff17 	ldw	r6,-4(fp)
  80192c:	e17ffe17 	ldw	r5,-8(fp)
  801930:	1809883a 	mov	r4,r3
  801934:	08012340 	call	801234 <altera_avalon_lcd_16207_write>
      fd->fd_flags);
}
  801938:	e037883a 	mov	sp,fp
  80193c:	dfc00117 	ldw	ra,4(sp)
  801940:	df000017 	ldw	fp,0(sp)
  801944:	dec00204 	addi	sp,sp,8
  801948:	f800283a 	ret

0080194c <alt_avalon_timer_sc_irq>:
#ifdef ALT_ENHANCED_INTERRUPT_API_PRESENT
static void alt_avalon_timer_sc_irq (void* base)
#else
static void alt_avalon_timer_sc_irq (void* base, alt_u32 id)
#endif
{
  80194c:	defff904 	addi	sp,sp,-28
  801950:	dfc00615 	stw	ra,24(sp)
  801954:	df000515 	stw	fp,20(sp)
  801958:	df000504 	addi	fp,sp,20
  80195c:	e13ffe15 	stw	r4,-8(fp)
  801960:	e17fff15 	stw	r5,-4(fp)
  alt_irq_context cpu_sr;
  
  /* clear the interrupt */
  IOWR_ALTERA_AVALON_TIMER_STATUS (base, 0);
  801964:	0007883a 	mov	r3,zero
  801968:	e0bffe17 	ldw	r2,-8(fp)
  80196c:	10c00035 	stwio	r3,0(r2)
  /* 
   * Dummy read to ensure IRQ is negated before the ISR returns.
   * The control register is read because reading the status
   * register has side-effects per the register map documentation.
   */
  IORD_ALTERA_AVALON_TIMER_CONTROL (base);
  801970:	e0bffe17 	ldw	r2,-8(fp)
  801974:	10800104 	addi	r2,r2,4
  801978:	10800037 	ldwio	r2,0(r2)
static ALT_INLINE alt_irq_context ALT_ALWAYS_INLINE 
       alt_irq_disable_all (void)
{
  alt_irq_context context;

  NIOS2_READ_STATUS (context);
  80197c:	0005303a 	rdctl	r2,status
  801980:	e0bffc15 	stw	r2,-16(fp)

  NIOS2_WRITE_STATUS (context & ~NIOS2_STATUS_PIE_MSK);
  801984:	e0fffc17 	ldw	r3,-16(fp)
  801988:	00bfff84 	movi	r2,-2
  80198c:	1884703a 	and	r2,r3,r2
  801990:	1001703a 	wrctl	status,r2
  
  return context;
  801994:	e0bffc17 	ldw	r2,-16(fp)

  /* 
   * Notify the system of a clock tick. disable interrupts 
   * during this time to safely support ISR preemption
   */
  cpu_sr = alt_irq_disable_all();
  801998:	e0bffb15 	stw	r2,-20(fp)
  alt_tick ();
  80199c:	08035dc0 	call	8035dc <alt_tick>
  8019a0:	e0bffb17 	ldw	r2,-20(fp)
  8019a4:	e0bffd15 	stw	r2,-12(fp)
  status &= ~NIOS2_STATUS_PIE_MSK;
  status |= (context & NIOS2_STATUS_PIE_MSK);
  
  NIOS2_WRITE_STATUS (status);
#else
  NIOS2_WRITE_STATUS (context);
  8019a8:	e0bffd17 	ldw	r2,-12(fp)
  8019ac:	1001703a 	wrctl	status,r2
  alt_irq_enable_all(cpu_sr);
}
  8019b0:	0001883a 	nop
  8019b4:	e037883a 	mov	sp,fp
  8019b8:	dfc00117 	ldw	ra,4(sp)
  8019bc:	df000017 	ldw	fp,0(sp)
  8019c0:	dec00204 	addi	sp,sp,8
  8019c4:	f800283a 	ret

008019c8 <alt_avalon_timer_sc_init>:
 * auto-generated alt_sys_init() function.
 */

void alt_avalon_timer_sc_init (void* base, alt_u32 irq_controller_id, 
                                alt_u32 irq, alt_u32 freq)
{
  8019c8:	defff904 	addi	sp,sp,-28
  8019cc:	dfc00615 	stw	ra,24(sp)
  8019d0:	df000515 	stw	fp,20(sp)
  8019d4:	df000504 	addi	fp,sp,20
  8019d8:	e13ffc15 	stw	r4,-16(fp)
  8019dc:	e17ffd15 	stw	r5,-12(fp)
  8019e0:	e1bffe15 	stw	r6,-8(fp)
  8019e4:	e1ffff15 	stw	r7,-4(fp)
  8019e8:	e0bfff17 	ldw	r2,-4(fp)
  8019ec:	e0bffb15 	stw	r2,-20(fp)
 * in order to initialise the value of the clock frequency.
 */

static ALT_INLINE int ALT_ALWAYS_INLINE alt_sysclk_init (alt_u32 nticks)
{
  if (! _alt_tick_rate)
  8019f0:	d0a33517 	ldw	r2,-29484(gp)
  8019f4:	1000021e 	bne	r2,zero,801a00 <alt_avalon_timer_sc_init+0x38>
  {
    _alt_tick_rate = nticks;
  8019f8:	e0bffb17 	ldw	r2,-20(fp)
  8019fc:	d0a33515 	stw	r2,-29484(gp)
  
  alt_sysclk_init (freq);
  
  /* set to free running mode */
  
  IOWR_ALTERA_AVALON_TIMER_CONTROL (base, 
  801a00:	e0bffc17 	ldw	r2,-16(fp)
  801a04:	10800104 	addi	r2,r2,4
  801a08:	00c001c4 	movi	r3,7
  801a0c:	10c00035 	stwio	r3,0(r2)
  /* register the interrupt handler, and enable the interrupt */
#ifdef ALT_ENHANCED_INTERRUPT_API_PRESENT
  alt_ic_isr_register(irq_controller_id, irq, alt_avalon_timer_sc_irq, 
                      base, NULL);
#else
  alt_irq_register (irq, base, alt_avalon_timer_sc_irq);
  801a10:	01802034 	movhi	r6,128
  801a14:	31865304 	addi	r6,r6,6476
  801a18:	e17ffc17 	ldw	r5,-16(fp)
  801a1c:	e13ffe17 	ldw	r4,-8(fp)
  801a20:	08031080 	call	803108 <alt_irq_register>
#endif  
}
  801a24:	0001883a 	nop
  801a28:	e037883a 	mov	sp,fp
  801a2c:	dfc00117 	ldw	ra,4(sp)
  801a30:	df000017 	ldw	fp,0(sp)
  801a34:	dec00204 	addi	sp,sp,8
  801a38:	f800283a 	ret

00801a3c <altera_avalon_uart_read_fd>:
 *
 */

int 
altera_avalon_uart_read_fd(alt_fd* fd, char* buffer, int space)
{
  801a3c:	defffa04 	addi	sp,sp,-24
  801a40:	dfc00515 	stw	ra,20(sp)
  801a44:	df000415 	stw	fp,16(sp)
  801a48:	df000404 	addi	fp,sp,16
  801a4c:	e13ffd15 	stw	r4,-12(fp)
  801a50:	e17ffe15 	stw	r5,-8(fp)
  801a54:	e1bfff15 	stw	r6,-4(fp)
    altera_avalon_uart_dev* dev = (altera_avalon_uart_dev*) fd->dev; 
  801a58:	e0bffd17 	ldw	r2,-12(fp)
  801a5c:	10800017 	ldw	r2,0(r2)
  801a60:	e0bffc15 	stw	r2,-16(fp)

    return altera_avalon_uart_read(&dev->state, buffer, space,
  801a64:	e0bffc17 	ldw	r2,-16(fp)
  801a68:	10c00a04 	addi	r3,r2,40
  801a6c:	e0bffd17 	ldw	r2,-12(fp)
  801a70:	10800217 	ldw	r2,8(r2)
  801a74:	100f883a 	mov	r7,r2
  801a78:	e1bfff17 	ldw	r6,-4(fp)
  801a7c:	e17ffe17 	ldw	r5,-8(fp)
  801a80:	1809883a 	mov	r4,r3
  801a84:	0801f4c0 	call	801f4c <altera_avalon_uart_read>
      fd->fd_flags);
}
  801a88:	e037883a 	mov	sp,fp
  801a8c:	dfc00117 	ldw	ra,4(sp)
  801a90:	df000017 	ldw	fp,0(sp)
  801a94:	dec00204 	addi	sp,sp,8
  801a98:	f800283a 	ret

00801a9c <altera_avalon_uart_write_fd>:

int 
altera_avalon_uart_write_fd(alt_fd* fd, const char* buffer, int space)
{
  801a9c:	defffa04 	addi	sp,sp,-24
  801aa0:	dfc00515 	stw	ra,20(sp)
  801aa4:	df000415 	stw	fp,16(sp)
  801aa8:	df000404 	addi	fp,sp,16
  801aac:	e13ffd15 	stw	r4,-12(fp)
  801ab0:	e17ffe15 	stw	r5,-8(fp)
  801ab4:	e1bfff15 	stw	r6,-4(fp)
    altera_avalon_uart_dev* dev = (altera_avalon_uart_dev*) fd->dev; 
  801ab8:	e0bffd17 	ldw	r2,-12(fp)
  801abc:	10800017 	ldw	r2,0(r2)
  801ac0:	e0bffc15 	stw	r2,-16(fp)

    return altera_avalon_uart_write(&dev->state, buffer, space,
  801ac4:	e0bffc17 	ldw	r2,-16(fp)
  801ac8:	10c00a04 	addi	r3,r2,40
  801acc:	e0bffd17 	ldw	r2,-12(fp)
  801ad0:	10800217 	ldw	r2,8(r2)
  801ad4:	100f883a 	mov	r7,r2
  801ad8:	e1bfff17 	ldw	r6,-4(fp)
  801adc:	e17ffe17 	ldw	r5,-8(fp)
  801ae0:	1809883a 	mov	r4,r3
  801ae4:	08021640 	call	802164 <altera_avalon_uart_write>
      fd->fd_flags);
}
  801ae8:	e037883a 	mov	sp,fp
  801aec:	dfc00117 	ldw	ra,4(sp)
  801af0:	df000017 	ldw	fp,0(sp)
  801af4:	dec00204 	addi	sp,sp,8
  801af8:	f800283a 	ret

00801afc <altera_avalon_uart_close_fd>:

#endif /* ALTERA_AVALON_UART_USE_IOCTL */

int 
altera_avalon_uart_close_fd(alt_fd* fd)
{
  801afc:	defffc04 	addi	sp,sp,-16
  801b00:	dfc00315 	stw	ra,12(sp)
  801b04:	df000215 	stw	fp,8(sp)
  801b08:	df000204 	addi	fp,sp,8
  801b0c:	e13fff15 	stw	r4,-4(fp)
    altera_avalon_uart_dev* dev = (altera_avalon_uart_dev*) fd->dev; 
  801b10:	e0bfff17 	ldw	r2,-4(fp)
  801b14:	10800017 	ldw	r2,0(r2)
  801b18:	e0bffe15 	stw	r2,-8(fp)

    return altera_avalon_uart_close(&dev->state, fd->fd_flags);
  801b1c:	e0bffe17 	ldw	r2,-8(fp)
  801b20:	10c00a04 	addi	r3,r2,40
  801b24:	e0bfff17 	ldw	r2,-4(fp)
  801b28:	10800217 	ldw	r2,8(r2)
  801b2c:	100b883a 	mov	r5,r2
  801b30:	1809883a 	mov	r4,r3
  801b34:	0801ebc0 	call	801ebc <altera_avalon_uart_close>
}
  801b38:	e037883a 	mov	sp,fp
  801b3c:	dfc00117 	ldw	ra,4(sp)
  801b40:	df000017 	ldw	fp,0(sp)
  801b44:	dec00204 	addi	sp,sp,8
  801b48:	f800283a 	ret

00801b4c <altera_avalon_uart_init>:
  alt_u32 status);

void 
altera_avalon_uart_init(altera_avalon_uart_state* sp, 
  alt_u32 irq_controller_id,  alt_u32 irq)
{
  801b4c:	defff904 	addi	sp,sp,-28
  801b50:	dfc00615 	stw	ra,24(sp)
  801b54:	df000515 	stw	fp,20(sp)
  801b58:	df000504 	addi	fp,sp,20
  801b5c:	e13ffd15 	stw	r4,-12(fp)
  801b60:	e17ffe15 	stw	r5,-8(fp)
  801b64:	e1bfff15 	stw	r6,-4(fp)
  void* base = sp->base;
  801b68:	e0bffd17 	ldw	r2,-12(fp)
  801b6c:	10800017 	ldw	r2,0(r2)
  801b70:	e0bffb15 	stw	r2,-20(fp)
 * HAL.
 */

static ALT_INLINE int ALT_ALWAYS_INLINE alt_no_error (void)
{
  return 0;
  801b74:	0005883a 	mov	r2,zero
   * Initialise the read and write flags and the semaphores used to 
   * protect access to the circular buffers when running in a multi-threaded
   * environment.
   */
  error = ALT_FLAG_CREATE (&sp->events, 0)    || 
          ALT_SEM_CREATE (&sp->read_lock, 1)  ||
  801b78:	1000041e 	bne	r2,zero,801b8c <altera_avalon_uart_init+0x40>
  801b7c:	0005883a 	mov	r2,zero
  /* 
   * Initialise the read and write flags and the semaphores used to 
   * protect access to the circular buffers when running in a multi-threaded
   * environment.
   */
  error = ALT_FLAG_CREATE (&sp->events, 0)    || 
  801b80:	1000021e 	bne	r2,zero,801b8c <altera_avalon_uart_init+0x40>
  801b84:	0005883a 	mov	r2,zero
          ALT_SEM_CREATE (&sp->read_lock, 1)  ||
  801b88:	10000226 	beq	r2,zero,801b94 <altera_avalon_uart_init+0x48>
  801b8c:	00800044 	movi	r2,1
  801b90:	00000106 	br	801b98 <altera_avalon_uart_init+0x4c>
  801b94:	0005883a 	mov	r2,zero
  /* 
   * Initialise the read and write flags and the semaphores used to 
   * protect access to the circular buffers when running in a multi-threaded
   * environment.
   */
  error = ALT_FLAG_CREATE (&sp->events, 0)    || 
  801b98:	e0bffc15 	stw	r2,-16(fp)
          ALT_SEM_CREATE (&sp->read_lock, 1)  ||
          ALT_SEM_CREATE (&sp->write_lock, 1);

  if (!error)
  801b9c:	e0bffc17 	ldw	r2,-16(fp)
  801ba0:	10000d1e 	bne	r2,zero,801bd8 <altera_avalon_uart_init+0x8c>
  {
    /* enable interrupts at the device */
    sp->ctrl = ALTERA_AVALON_UART_CONTROL_RTS_MSK  |
  801ba4:	e0bffd17 	ldw	r2,-12(fp)
  801ba8:	00c32004 	movi	r3,3200
  801bac:	10c00115 	stw	r3,4(r2)
                ALTERA_AVALON_UART_CONTROL_RRDY_MSK |
                ALTERA_AVALON_UART_CONTROL_DCTS_MSK;

    IOWR_ALTERA_AVALON_UART_CONTROL(base, sp->ctrl); 
  801bb0:	e0bffb17 	ldw	r2,-20(fp)
  801bb4:	10800304 	addi	r2,r2,12
  801bb8:	e0fffd17 	ldw	r3,-12(fp)
  801bbc:	18c00117 	ldw	r3,4(r3)
  801bc0:	10c00035 	stwio	r3,0(r2)
    /* register the interrupt handler */
#ifdef ALT_ENHANCED_INTERRUPT_API_PRESENT
    alt_ic_isr_register(irq_controller_id, irq, altera_avalon_uart_irq, sp, 
      0x0);
#else
    alt_irq_register (irq, sp, altera_avalon_uart_irq);
  801bc4:	01802034 	movhi	r6,128
  801bc8:	3186fc04 	addi	r6,r6,7152
  801bcc:	e17ffd17 	ldw	r5,-12(fp)
  801bd0:	e13fff17 	ldw	r4,-4(fp)
  801bd4:	08031080 	call	803108 <alt_irq_register>
#endif  
  }
}
  801bd8:	0001883a 	nop
  801bdc:	e037883a 	mov	sp,fp
  801be0:	dfc00117 	ldw	ra,4(sp)
  801be4:	df000017 	ldw	fp,0(sp)
  801be8:	dec00204 	addi	sp,sp,8
  801bec:	f800283a 	ret

00801bf0 <altera_avalon_uart_irq>:
#ifdef ALT_ENHANCED_INTERRUPT_API_PRESENT
static void altera_avalon_uart_irq(void* context)
#else
static void altera_avalon_uart_irq(void* context, alt_u32 id)
#endif
{
  801bf0:	defff904 	addi	sp,sp,-28
  801bf4:	dfc00615 	stw	ra,24(sp)
  801bf8:	df000515 	stw	fp,20(sp)
  801bfc:	df000504 	addi	fp,sp,20
  801c00:	e13ffe15 	stw	r4,-8(fp)
  801c04:	e17fff15 	stw	r5,-4(fp)
  alt_u32 status;

  altera_avalon_uart_state* sp = (altera_avalon_uart_state*) context;
  801c08:	e0bffe17 	ldw	r2,-8(fp)
  801c0c:	e0bffb15 	stw	r2,-20(fp)
  void* base               = sp->base;
  801c10:	e0bffb17 	ldw	r2,-20(fp)
  801c14:	10800017 	ldw	r2,0(r2)
  801c18:	e0bffc15 	stw	r2,-16(fp)
  /*
   * Read the status register in order to determine the cause of the
   * interrupt.
   */

  status = IORD_ALTERA_AVALON_UART_STATUS(base);
  801c1c:	e0bffc17 	ldw	r2,-16(fp)
  801c20:	10800204 	addi	r2,r2,8
  801c24:	10800037 	ldwio	r2,0(r2)
  801c28:	e0bffd15 	stw	r2,-12(fp)

  /* Clear any error flags set at the device */
  IOWR_ALTERA_AVALON_UART_STATUS(base, 0);
  801c2c:	e0bffc17 	ldw	r2,-16(fp)
  801c30:	10800204 	addi	r2,r2,8
  801c34:	0007883a 	mov	r3,zero
  801c38:	10c00035 	stwio	r3,0(r2)

  /* Dummy read to ensure IRQ is negated before ISR returns */
  IORD_ALTERA_AVALON_UART_STATUS(base);
  801c3c:	e0bffc17 	ldw	r2,-16(fp)
  801c40:	10800204 	addi	r2,r2,8
  801c44:	10800037 	ldwio	r2,0(r2)
  
  /* process a read irq */
  if (status & ALTERA_AVALON_UART_STATUS_RRDY_MSK)
  801c48:	e0bffd17 	ldw	r2,-12(fp)
  801c4c:	1080200c 	andi	r2,r2,128
  801c50:	10000326 	beq	r2,zero,801c60 <altera_avalon_uart_irq+0x70>
  {
    altera_avalon_uart_rxirq(sp, status);
  801c54:	e17ffd17 	ldw	r5,-12(fp)
  801c58:	e13ffb17 	ldw	r4,-20(fp)
  801c5c:	0801c900 	call	801c90 <altera_avalon_uart_rxirq>
  }

  /* process a write irq */
  if (status & (ALTERA_AVALON_UART_STATUS_TRDY_MSK | 
  801c60:	e0bffd17 	ldw	r2,-12(fp)
  801c64:	1081100c 	andi	r2,r2,1088
  801c68:	10000326 	beq	r2,zero,801c78 <altera_avalon_uart_irq+0x88>
                  ALTERA_AVALON_UART_STATUS_DCTS_MSK))
  {
    altera_avalon_uart_txirq(sp, status);
  801c6c:	e17ffd17 	ldw	r5,-12(fp)
  801c70:	e13ffb17 	ldw	r4,-20(fp)
  801c74:	0801d740 	call	801d74 <altera_avalon_uart_txirq>
  }
  

}
  801c78:	0001883a 	nop
  801c7c:	e037883a 	mov	sp,fp
  801c80:	dfc00117 	ldw	ra,4(sp)
  801c84:	df000017 	ldw	fp,0(sp)
  801c88:	dec00204 	addi	sp,sp,8
  801c8c:	f800283a 	ret

00801c90 <altera_avalon_uart_rxirq>:
 * the receive circular buffer, and sets the apropriate flags to indicate 
 * that there is data ready to be processed.
 */
static void 
altera_avalon_uart_rxirq(altera_avalon_uart_state* sp, alt_u32 status)
{
  801c90:	defffc04 	addi	sp,sp,-16
  801c94:	df000315 	stw	fp,12(sp)
  801c98:	df000304 	addi	fp,sp,12
  801c9c:	e13ffe15 	stw	r4,-8(fp)
  801ca0:	e17fff15 	stw	r5,-4(fp)
  alt_u32 next;
  
  /* If there was an error, discard the data */

  if (status & (ALTERA_AVALON_UART_STATUS_PE_MSK | 
  801ca4:	e0bfff17 	ldw	r2,-4(fp)
  801ca8:	108000cc 	andi	r2,r2,3
  801cac:	10002c1e 	bne	r2,zero,801d60 <altera_avalon_uart_rxirq+0xd0>
   * In a multi-threaded environment, set the read event flag to indicate
   * that there is data ready. This is only done if the circular buffer was
   * previously empty.
   */

  if (sp->rx_end == sp->rx_start)
  801cb0:	e0bffe17 	ldw	r2,-8(fp)
  801cb4:	10800317 	ldw	r2,12(r2)
  801cb8:	e0bffe17 	ldw	r2,-8(fp)
  801cbc:	10800217 	ldw	r2,8(r2)
    ALT_FLAG_POST (sp->events, ALT_UART_READ_RDY, OS_FLAG_SET);
  }

  /* Determine which slot to use next in the circular buffer */

  next = (sp->rx_end + 1) & ALT_AVALON_UART_BUF_MSK;
  801cc0:	e0bffe17 	ldw	r2,-8(fp)
  801cc4:	10800317 	ldw	r2,12(r2)
  801cc8:	10800044 	addi	r2,r2,1
  801ccc:	10800fcc 	andi	r2,r2,63
  801cd0:	e0bffd15 	stw	r2,-12(fp)

  /* Transfer data from the device to the circular buffer */

  sp->rx_buf[sp->rx_end] = IORD_ALTERA_AVALON_UART_RXDATA(sp->base);
  801cd4:	e0bffe17 	ldw	r2,-8(fp)
  801cd8:	10800317 	ldw	r2,12(r2)
  801cdc:	e0fffe17 	ldw	r3,-8(fp)
  801ce0:	18c00017 	ldw	r3,0(r3)
  801ce4:	18c00037 	ldwio	r3,0(r3)
  801ce8:	1809883a 	mov	r4,r3
  801cec:	e0fffe17 	ldw	r3,-8(fp)
  801cf0:	1885883a 	add	r2,r3,r2
  801cf4:	10800704 	addi	r2,r2,28
  801cf8:	11000005 	stb	r4,0(r2)

  sp->rx_end = next;
  801cfc:	e0bffe17 	ldw	r2,-8(fp)
  801d00:	e0fffd17 	ldw	r3,-12(fp)
  801d04:	10c00315 	stw	r3,12(r2)

  next = (sp->rx_end + 1) & ALT_AVALON_UART_BUF_MSK;
  801d08:	e0bffe17 	ldw	r2,-8(fp)
  801d0c:	10800317 	ldw	r2,12(r2)
  801d10:	10800044 	addi	r2,r2,1
  801d14:	10800fcc 	andi	r2,r2,63
  801d18:	e0bffd15 	stw	r2,-12(fp)
  /*
   * If the cicular buffer was full, disable interrupts. Interrupts will be
   * re-enabled when data is removed from the buffer.
   */

  if (next == sp->rx_start)
  801d1c:	e0bffe17 	ldw	r2,-8(fp)
  801d20:	10c00217 	ldw	r3,8(r2)
  801d24:	e0bffd17 	ldw	r2,-12(fp)
  801d28:	18800e1e 	bne	r3,r2,801d64 <altera_avalon_uart_rxirq+0xd4>
  {
    sp->ctrl &= ~ALTERA_AVALON_UART_CONTROL_RRDY_MSK;
  801d2c:	e0bffe17 	ldw	r2,-8(fp)
  801d30:	10c00117 	ldw	r3,4(r2)
  801d34:	00bfdfc4 	movi	r2,-129
  801d38:	1886703a 	and	r3,r3,r2
  801d3c:	e0bffe17 	ldw	r2,-8(fp)
  801d40:	10c00115 	stw	r3,4(r2)
    IOWR_ALTERA_AVALON_UART_CONTROL(sp->base, sp->ctrl); 
  801d44:	e0bffe17 	ldw	r2,-8(fp)
  801d48:	10800017 	ldw	r2,0(r2)
  801d4c:	10800304 	addi	r2,r2,12
  801d50:	e0fffe17 	ldw	r3,-8(fp)
  801d54:	18c00117 	ldw	r3,4(r3)
  801d58:	10c00035 	stwio	r3,0(r2)
  801d5c:	00000106 	br	801d64 <altera_avalon_uart_rxirq+0xd4>
  /* If there was an error, discard the data */

  if (status & (ALTERA_AVALON_UART_STATUS_PE_MSK | 
                  ALTERA_AVALON_UART_STATUS_FE_MSK))
  {
    return;
  801d60:	0001883a 	nop
  if (next == sp->rx_start)
  {
    sp->ctrl &= ~ALTERA_AVALON_UART_CONTROL_RRDY_MSK;
    IOWR_ALTERA_AVALON_UART_CONTROL(sp->base, sp->ctrl); 
  }   
}
  801d64:	e037883a 	mov	sp,fp
  801d68:	df000017 	ldw	fp,0(sp)
  801d6c:	dec00104 	addi	sp,sp,4
  801d70:	f800283a 	ret

00801d74 <altera_avalon_uart_txirq>:
 * buffer to the device, and sets the apropriate flags to indicate that 
 * there is data ready to be processed.
 */
static void 
altera_avalon_uart_txirq(altera_avalon_uart_state* sp, alt_u32 status)
{
  801d74:	defffb04 	addi	sp,sp,-20
  801d78:	df000415 	stw	fp,16(sp)
  801d7c:	df000404 	addi	fp,sp,16
  801d80:	e13ffc15 	stw	r4,-16(fp)
  801d84:	e17ffd15 	stw	r5,-12(fp)
  /* Transfer data if there is some ready to be transfered */

  if (sp->tx_start != sp->tx_end)
  801d88:	e0bffc17 	ldw	r2,-16(fp)
  801d8c:	10c00417 	ldw	r3,16(r2)
  801d90:	e0bffc17 	ldw	r2,-16(fp)
  801d94:	10800517 	ldw	r2,20(r2)
  801d98:	18803226 	beq	r3,r2,801e64 <altera_avalon_uart_txirq+0xf0>
    /* 
     * If the device is using flow control (i.e. RTS/CTS), then the
     * transmitter is required to throttle if CTS is high.
     */

    if (!(sp->flags & ALT_AVALON_UART_FC) ||
  801d9c:	e0bffc17 	ldw	r2,-16(fp)
  801da0:	10800617 	ldw	r2,24(r2)
  801da4:	1080008c 	andi	r2,r2,2
  801da8:	10000326 	beq	r2,zero,801db8 <altera_avalon_uart_txirq+0x44>
      (status & ALTERA_AVALON_UART_STATUS_CTS_MSK))
  801dac:	e0bffd17 	ldw	r2,-12(fp)
  801db0:	1082000c 	andi	r2,r2,2048
    /* 
     * If the device is using flow control (i.e. RTS/CTS), then the
     * transmitter is required to throttle if CTS is high.
     */

    if (!(sp->flags & ALT_AVALON_UART_FC) ||
  801db4:	10001d26 	beq	r2,zero,801e2c <altera_avalon_uart_txirq+0xb8>
       * In a multi-threaded environment, set the write event flag to indicate
       * that there is space in the circular buffer. This is only done if the
       * buffer was previously empty.
       */

      if (sp->tx_start == ((sp->tx_end + 1) & ALT_AVALON_UART_BUF_MSK))
  801db8:	e0bffc17 	ldw	r2,-16(fp)
  801dbc:	10800417 	ldw	r2,16(r2)
  801dc0:	e0bffc17 	ldw	r2,-16(fp)
  801dc4:	10800517 	ldw	r2,20(r2)
                       OS_FLAG_SET);
      }

      /* Write the data to the device */

      IOWR_ALTERA_AVALON_UART_TXDATA(sp->base, sp->tx_buf[sp->tx_start]);
  801dc8:	e0bffc17 	ldw	r2,-16(fp)
  801dcc:	10800017 	ldw	r2,0(r2)
  801dd0:	10800104 	addi	r2,r2,4
  801dd4:	e0fffc17 	ldw	r3,-16(fp)
  801dd8:	18c00417 	ldw	r3,16(r3)
  801ddc:	e13ffc17 	ldw	r4,-16(fp)
  801de0:	20c7883a 	add	r3,r4,r3
  801de4:	18c01704 	addi	r3,r3,92
  801de8:	18c00003 	ldbu	r3,0(r3)
  801dec:	18c03fcc 	andi	r3,r3,255
  801df0:	10c00035 	stwio	r3,0(r2)

      sp->tx_start = (++sp->tx_start) & ALT_AVALON_UART_BUF_MSK;
  801df4:	e0bffc17 	ldw	r2,-16(fp)
  801df8:	10800417 	ldw	r2,16(r2)
  801dfc:	10800044 	addi	r2,r2,1
  801e00:	e0fffc17 	ldw	r3,-16(fp)
  801e04:	18800415 	stw	r2,16(r3)
  801e08:	10c00fcc 	andi	r3,r2,63
  801e0c:	e0bffc17 	ldw	r2,-16(fp)
  801e10:	10c00415 	stw	r3,16(r2)
      /*
       * In case the tranmit interrupt had previously been disabled by 
       * detecting a low value on CTS, it is reenabled here.
       */ 

      sp->ctrl |= ALTERA_AVALON_UART_CONTROL_TRDY_MSK;
  801e14:	e0bffc17 	ldw	r2,-16(fp)
  801e18:	10800117 	ldw	r2,4(r2)
  801e1c:	10c01014 	ori	r3,r2,64
  801e20:	e0bffc17 	ldw	r2,-16(fp)
  801e24:	10c00115 	stw	r3,4(r2)
  801e28:	00000e06 	br	801e64 <altera_avalon_uart_txirq+0xf0>
       * the last write to the status register. To avoid this resulting in
       * deadlock, it's necessary to re-check the status register here
       * before throttling.
       */
 
      status = IORD_ALTERA_AVALON_UART_STATUS(sp->base); 
  801e2c:	e0bffc17 	ldw	r2,-16(fp)
  801e30:	10800017 	ldw	r2,0(r2)
  801e34:	10800204 	addi	r2,r2,8
  801e38:	10800037 	ldwio	r2,0(r2)
  801e3c:	e0bffd15 	stw	r2,-12(fp)

      if (!(status & ALTERA_AVALON_UART_STATUS_CTS_MSK))
  801e40:	e0bffd17 	ldw	r2,-12(fp)
  801e44:	1082000c 	andi	r2,r2,2048
  801e48:	1000061e 	bne	r2,zero,801e64 <altera_avalon_uart_txirq+0xf0>
      {
        sp->ctrl &= ~ALTERA_AVALON_UART_CONTROL_TRDY_MSK;
  801e4c:	e0bffc17 	ldw	r2,-16(fp)
  801e50:	10c00117 	ldw	r3,4(r2)
  801e54:	00bfefc4 	movi	r2,-65
  801e58:	1886703a 	and	r3,r3,r2
  801e5c:	e0bffc17 	ldw	r2,-16(fp)
  801e60:	10c00115 	stw	r3,4(r2)
  /*
   * If the circular buffer is empty, disable the interrupt. This will be
   * re-enabled when new data is placed in the buffer.
   */

  if (sp->tx_start == sp->tx_end)
  801e64:	e0bffc17 	ldw	r2,-16(fp)
  801e68:	10c00417 	ldw	r3,16(r2)
  801e6c:	e0bffc17 	ldw	r2,-16(fp)
  801e70:	10800517 	ldw	r2,20(r2)
  801e74:	1880061e 	bne	r3,r2,801e90 <altera_avalon_uart_txirq+0x11c>
  {
    sp->ctrl &= ~(ALTERA_AVALON_UART_CONTROL_TRDY_MSK |
  801e78:	e0bffc17 	ldw	r2,-16(fp)
  801e7c:	10c00117 	ldw	r3,4(r2)
  801e80:	00beefc4 	movi	r2,-1089
  801e84:	1886703a 	and	r3,r3,r2
  801e88:	e0bffc17 	ldw	r2,-16(fp)
  801e8c:	10c00115 	stw	r3,4(r2)
                    ALTERA_AVALON_UART_CONTROL_DCTS_MSK);
  }

  IOWR_ALTERA_AVALON_UART_CONTROL(sp->base, sp->ctrl);
  801e90:	e0bffc17 	ldw	r2,-16(fp)
  801e94:	10800017 	ldw	r2,0(r2)
  801e98:	10800304 	addi	r2,r2,12
  801e9c:	e0fffc17 	ldw	r3,-16(fp)
  801ea0:	18c00117 	ldw	r3,4(r3)
  801ea4:	10c00035 	stwio	r3,0(r2)
}
  801ea8:	0001883a 	nop
  801eac:	e037883a 	mov	sp,fp
  801eb0:	df000017 	ldw	fp,0(sp)
  801eb4:	dec00104 	addi	sp,sp,4
  801eb8:	f800283a 	ret

00801ebc <altera_avalon_uart_close>:
 * The close routine is not implemented for the small driver; instead it will
 * map to null. This is because the small driver simply waits while characters
 * are transmitted; there is no interrupt-serviced buffer to empty 
 */
int altera_avalon_uart_close(altera_avalon_uart_state* sp, int flags)
{
  801ebc:	defffd04 	addi	sp,sp,-12
  801ec0:	df000215 	stw	fp,8(sp)
  801ec4:	df000204 	addi	fp,sp,8
  801ec8:	e13ffe15 	stw	r4,-8(fp)
  801ecc:	e17fff15 	stw	r5,-4(fp)
  /* 
   * Wait for all transmit data to be emptied by the UART ISR.
   */
  while (sp->tx_start != sp->tx_end) {
  801ed0:	00000506 	br	801ee8 <altera_avalon_uart_close+0x2c>
    if (flags & O_NONBLOCK) {
  801ed4:	e0bfff17 	ldw	r2,-4(fp)
  801ed8:	1090000c 	andi	r2,r2,16384
  801edc:	10000226 	beq	r2,zero,801ee8 <altera_avalon_uart_close+0x2c>
      return -EWOULDBLOCK; 
  801ee0:	00bffd44 	movi	r2,-11
  801ee4:	00000606 	br	801f00 <altera_avalon_uart_close+0x44>
int altera_avalon_uart_close(altera_avalon_uart_state* sp, int flags)
{
  /* 
   * Wait for all transmit data to be emptied by the UART ISR.
   */
  while (sp->tx_start != sp->tx_end) {
  801ee8:	e0bffe17 	ldw	r2,-8(fp)
  801eec:	10c00417 	ldw	r3,16(r2)
  801ef0:	e0bffe17 	ldw	r2,-8(fp)
  801ef4:	10800517 	ldw	r2,20(r2)
  801ef8:	18bff61e 	bne	r3,r2,801ed4 <__alt_data_end+0xff801ed4>
    if (flags & O_NONBLOCK) {
      return -EWOULDBLOCK; 
    }
  }

  return 0;
  801efc:	0005883a 	mov	r2,zero
}
  801f00:	e037883a 	mov	sp,fp
  801f04:	df000017 	ldw	fp,0(sp)
  801f08:	dec00104 	addi	sp,sp,4
  801f0c:	f800283a 	ret

00801f10 <alt_get_errno>:
#undef errno

extern int errno;

static ALT_INLINE int* alt_get_errno(void)
{
  801f10:	defffe04 	addi	sp,sp,-8
  801f14:	dfc00115 	stw	ra,4(sp)
  801f18:	df000015 	stw	fp,0(sp)
  801f1c:	d839883a 	mov	fp,sp
  return ((alt_errno) ? alt_errno() : &errno);
  801f20:	d0a00617 	ldw	r2,-32744(gp)
  801f24:	10000326 	beq	r2,zero,801f34 <alt_get_errno+0x24>
  801f28:	d0a00617 	ldw	r2,-32744(gp)
  801f2c:	103ee83a 	callr	r2
  801f30:	00000106 	br	801f38 <alt_get_errno+0x28>
  801f34:	d0a33804 	addi	r2,gp,-29472
}
  801f38:	e037883a 	mov	sp,fp
  801f3c:	dfc00117 	ldw	ra,4(sp)
  801f40:	df000017 	ldw	fp,0(sp)
  801f44:	dec00204 	addi	sp,sp,8
  801f48:	f800283a 	ret

00801f4c <altera_avalon_uart_read>:
 */

int 
altera_avalon_uart_read(altera_avalon_uart_state* sp, char* ptr, int len,
  int flags)
{
  801f4c:	defff204 	addi	sp,sp,-56
  801f50:	dfc00d15 	stw	ra,52(sp)
  801f54:	df000c15 	stw	fp,48(sp)
  801f58:	df000c04 	addi	fp,sp,48
  801f5c:	e13ffc15 	stw	r4,-16(fp)
  801f60:	e17ffd15 	stw	r5,-12(fp)
  801f64:	e1bffe15 	stw	r6,-8(fp)
  801f68:	e1ffff15 	stw	r7,-4(fp)
  alt_irq_context context;
  int             block;
  alt_u8          read_would_block = 0;
  801f6c:	e03ff405 	stb	zero,-48(fp)
  int             count = 0;
  801f70:	e03ff515 	stw	zero,-44(fp)
  /* 
   * Construct a flag to indicate whether the device is being accessed in
   * blocking or non-blocking mode.
   */

  block = !(flags & O_NONBLOCK);
  801f74:	e0bfff17 	ldw	r2,-4(fp)
  801f78:	1090000c 	andi	r2,r2,16384
  801f7c:	1005003a 	cmpeq	r2,r2,zero
  801f80:	10803fcc 	andi	r2,r2,255
  801f84:	e0bff615 	stw	r2,-40(fp)
    /*
     * Read the required amount of data, until the circular buffer runs
     * empty
     */

    while ((count < len) && (sp->rx_start != sp->rx_end))
  801f88:	00001306 	br	801fd8 <altera_avalon_uart_read+0x8c>
    {
      count++;
  801f8c:	e0bff517 	ldw	r2,-44(fp)
  801f90:	10800044 	addi	r2,r2,1
  801f94:	e0bff515 	stw	r2,-44(fp)
      *ptr++ = sp->rx_buf[sp->rx_start];
  801f98:	e0bffd17 	ldw	r2,-12(fp)
  801f9c:	10c00044 	addi	r3,r2,1
  801fa0:	e0fffd15 	stw	r3,-12(fp)
  801fa4:	e0fffc17 	ldw	r3,-16(fp)
  801fa8:	18c00217 	ldw	r3,8(r3)
  801fac:	e13ffc17 	ldw	r4,-16(fp)
  801fb0:	20c7883a 	add	r3,r4,r3
  801fb4:	18c00704 	addi	r3,r3,28
  801fb8:	18c00003 	ldbu	r3,0(r3)
  801fbc:	10c00005 	stb	r3,0(r2)
      
      sp->rx_start = (sp->rx_start+1) & ALT_AVALON_UART_BUF_MSK;
  801fc0:	e0bffc17 	ldw	r2,-16(fp)
  801fc4:	10800217 	ldw	r2,8(r2)
  801fc8:	10800044 	addi	r2,r2,1
  801fcc:	10c00fcc 	andi	r3,r2,63
  801fd0:	e0bffc17 	ldw	r2,-16(fp)
  801fd4:	10c00215 	stw	r3,8(r2)
    /*
     * Read the required amount of data, until the circular buffer runs
     * empty
     */

    while ((count < len) && (sp->rx_start != sp->rx_end))
  801fd8:	e0fff517 	ldw	r3,-44(fp)
  801fdc:	e0bffe17 	ldw	r2,-8(fp)
  801fe0:	1880050e 	bge	r3,r2,801ff8 <altera_avalon_uart_read+0xac>
  801fe4:	e0bffc17 	ldw	r2,-16(fp)
  801fe8:	10c00217 	ldw	r3,8(r2)
  801fec:	e0bffc17 	ldw	r2,-16(fp)
  801ff0:	10800317 	ldw	r2,12(r2)
  801ff4:	18bfe51e 	bne	r3,r2,801f8c <__alt_data_end+0xff801f8c>
    /*
     * If no data has been transferred, the circular buffer is empty, and
     * this is not a non-blocking access, block waiting for data to arrive.
     */

    if (!count && (sp->rx_start == sp->rx_end))
  801ff8:	e0bff517 	ldw	r2,-44(fp)
  801ffc:	1000251e 	bne	r2,zero,802094 <altera_avalon_uart_read+0x148>
  802000:	e0bffc17 	ldw	r2,-16(fp)
  802004:	10c00217 	ldw	r3,8(r2)
  802008:	e0bffc17 	ldw	r2,-16(fp)
  80200c:	10800317 	ldw	r2,12(r2)
  802010:	1880201e 	bne	r3,r2,802094 <altera_avalon_uart_read+0x148>
    {
      if (!block)
  802014:	e0bff617 	ldw	r2,-40(fp)
  802018:	1000071e 	bne	r2,zero,802038 <altera_avalon_uart_read+0xec>
      {
        /* Set errno to indicate the reason we're not returning any data */

        ALT_ERRNO = EWOULDBLOCK;
  80201c:	0801f100 	call	801f10 <alt_get_errno>
  802020:	1007883a 	mov	r3,r2
  802024:	008002c4 	movi	r2,11
  802028:	18800015 	stw	r2,0(r3)
        read_would_block = 1;
  80202c:	00800044 	movi	r2,1
  802030:	e0bff405 	stb	r2,-48(fp)
        break;
  802034:	00001b06 	br	8020a4 <altera_avalon_uart_read+0x158>
static ALT_INLINE alt_irq_context ALT_ALWAYS_INLINE 
       alt_irq_disable_all (void)
{
  alt_irq_context context;

  NIOS2_READ_STATUS (context);
  802038:	0005303a 	rdctl	r2,status
  80203c:	e0bff915 	stw	r2,-28(fp)

  NIOS2_WRITE_STATUS (context & ~NIOS2_STATUS_PIE_MSK);
  802040:	e0fff917 	ldw	r3,-28(fp)
  802044:	00bfff84 	movi	r2,-2
  802048:	1884703a 	and	r2,r3,r2
  80204c:	1001703a 	wrctl	status,r2
  
  return context;
  802050:	e0bff917 	ldw	r2,-28(fp)
      {
       /* Block waiting for some data to arrive */

       /* First, ensure read interrupts are enabled to avoid deadlock */

       context = alt_irq_disable_all ();
  802054:	e0bff815 	stw	r2,-32(fp)
       sp->ctrl |= ALTERA_AVALON_UART_CONTROL_RRDY_MSK;
  802058:	e0bffc17 	ldw	r2,-16(fp)
  80205c:	10800117 	ldw	r2,4(r2)
  802060:	10c02014 	ori	r3,r2,128
  802064:	e0bffc17 	ldw	r2,-16(fp)
  802068:	10c00115 	stw	r3,4(r2)
       IOWR_ALTERA_AVALON_UART_CONTROL(sp->base, sp->ctrl);
  80206c:	e0bffc17 	ldw	r2,-16(fp)
  802070:	10800017 	ldw	r2,0(r2)
  802074:	10800304 	addi	r2,r2,12
  802078:	e0fffc17 	ldw	r3,-16(fp)
  80207c:	18c00117 	ldw	r3,4(r3)
  802080:	10c00035 	stwio	r3,0(r2)
  802084:	e0bff817 	ldw	r2,-32(fp)
  802088:	e0bffa15 	stw	r2,-24(fp)
  status &= ~NIOS2_STATUS_PIE_MSK;
  status |= (context & NIOS2_STATUS_PIE_MSK);
  
  NIOS2_WRITE_STATUS (status);
#else
  NIOS2_WRITE_STATUS (context);
  80208c:	e0bffa17 	ldw	r2,-24(fp)
  802090:	1001703a 	wrctl	status,r2
                      OS_FLAG_WAIT_SET_ANY + OS_FLAG_CONSUME,
                      0);
      }
    }
  }
  while (!count && len);
  802094:	e0bff517 	ldw	r2,-44(fp)
  802098:	1000021e 	bne	r2,zero,8020a4 <altera_avalon_uart_read+0x158>
  80209c:	e0bffe17 	ldw	r2,-8(fp)
  8020a0:	103fcd1e 	bne	r2,zero,801fd8 <__alt_data_end+0xff801fd8>
static ALT_INLINE alt_irq_context ALT_ALWAYS_INLINE 
       alt_irq_disable_all (void)
{
  alt_irq_context context;

  NIOS2_READ_STATUS (context);
  8020a4:	0005303a 	rdctl	r2,status
  8020a8:	e0bffb15 	stw	r2,-20(fp)

  NIOS2_WRITE_STATUS (context & ~NIOS2_STATUS_PIE_MSK);
  8020ac:	e0fffb17 	ldw	r3,-20(fp)
  8020b0:	00bfff84 	movi	r2,-2
  8020b4:	1884703a 	and	r2,r3,r2
  8020b8:	1001703a 	wrctl	status,r2
  
  return context;
  8020bc:	e0bffb17 	ldw	r2,-20(fp)
  /*
   * Ensure that interrupts are enabled, so that the circular buffer can
   * re-fill.
   */

  context = alt_irq_disable_all ();
  8020c0:	e0bff815 	stw	r2,-32(fp)
  sp->ctrl |= ALTERA_AVALON_UART_CONTROL_RRDY_MSK;
  8020c4:	e0bffc17 	ldw	r2,-16(fp)
  8020c8:	10800117 	ldw	r2,4(r2)
  8020cc:	10c02014 	ori	r3,r2,128
  8020d0:	e0bffc17 	ldw	r2,-16(fp)
  8020d4:	10c00115 	stw	r3,4(r2)
  IOWR_ALTERA_AVALON_UART_CONTROL(sp->base, sp->ctrl);
  8020d8:	e0bffc17 	ldw	r2,-16(fp)
  8020dc:	10800017 	ldw	r2,0(r2)
  8020e0:	10800304 	addi	r2,r2,12
  8020e4:	e0fffc17 	ldw	r3,-16(fp)
  8020e8:	18c00117 	ldw	r3,4(r3)
  8020ec:	10c00035 	stwio	r3,0(r2)
  8020f0:	e0bff817 	ldw	r2,-32(fp)
  8020f4:	e0bff715 	stw	r2,-36(fp)
  status &= ~NIOS2_STATUS_PIE_MSK;
  status |= (context & NIOS2_STATUS_PIE_MSK);
  
  NIOS2_WRITE_STATUS (status);
#else
  NIOS2_WRITE_STATUS (context);
  8020f8:	e0bff717 	ldw	r2,-36(fp)
  8020fc:	1001703a 	wrctl	status,r2
  alt_irq_enable_all (context);

  /* Return the number of bytes read */
  if(read_would_block) {
  802100:	e0bff403 	ldbu	r2,-48(fp)
  802104:	10000226 	beq	r2,zero,802110 <altera_avalon_uart_read+0x1c4>
    return -EWOULDBLOCK;
  802108:	00bffd44 	movi	r2,-11
  80210c:	00000106 	br	802114 <altera_avalon_uart_read+0x1c8>
  }
  else {
    return count;
  802110:	e0bff517 	ldw	r2,-44(fp)
  }
}
  802114:	e037883a 	mov	sp,fp
  802118:	dfc00117 	ldw	ra,4(sp)
  80211c:	df000017 	ldw	fp,0(sp)
  802120:	dec00204 	addi	sp,sp,8
  802124:	f800283a 	ret

00802128 <alt_get_errno>:
#undef errno

extern int errno;

static ALT_INLINE int* alt_get_errno(void)
{
  802128:	defffe04 	addi	sp,sp,-8
  80212c:	dfc00115 	stw	ra,4(sp)
  802130:	df000015 	stw	fp,0(sp)
  802134:	d839883a 	mov	fp,sp
  return ((alt_errno) ? alt_errno() : &errno);
  802138:	d0a00617 	ldw	r2,-32744(gp)
  80213c:	10000326 	beq	r2,zero,80214c <alt_get_errno+0x24>
  802140:	d0a00617 	ldw	r2,-32744(gp)
  802144:	103ee83a 	callr	r2
  802148:	00000106 	br	802150 <alt_get_errno+0x28>
  80214c:	d0a33804 	addi	r2,gp,-29472
}
  802150:	e037883a 	mov	sp,fp
  802154:	dfc00117 	ldw	ra,4(sp)
  802158:	df000017 	ldw	fp,0(sp)
  80215c:	dec00204 	addi	sp,sp,8
  802160:	f800283a 	ret

00802164 <altera_avalon_uart_write>:
 */

int
altera_avalon_uart_write(altera_avalon_uart_state* sp, const char* ptr, int len,
  int flags)
{
  802164:	defff204 	addi	sp,sp,-56
  802168:	dfc00d15 	stw	ra,52(sp)
  80216c:	df000c15 	stw	fp,48(sp)
  802170:	df000c04 	addi	fp,sp,48
  802174:	e13ffc15 	stw	r4,-16(fp)
  802178:	e17ffd15 	stw	r5,-12(fp)
  80217c:	e1bffe15 	stw	r6,-8(fp)
  802180:	e1ffff15 	stw	r7,-4(fp)
  alt_irq_context context;
  int             no_block;
  alt_u32         next;
  int             count = len;
  802184:	e0bffe17 	ldw	r2,-8(fp)
  802188:	e0bff415 	stw	r2,-48(fp)
  /* 
   * Construct a flag to indicate whether the device is being accessed in
   * blocking or non-blocking mode.
   */

  no_block = (flags & O_NONBLOCK);
  80218c:	e0bfff17 	ldw	r2,-4(fp)
  802190:	1090000c 	andi	r2,r2,16384
  802194:	e0bff515 	stw	r2,-44(fp)
   * Loop transferring data from the input buffer to the transmit circular
   * buffer. The loop is terminated once all the data has been transferred,
   * or, (if in non-blocking mode) the buffer becomes full.
   */

  while (count)
  802198:	00003c06 	br	80228c <altera_avalon_uart_write+0x128>
  {
    /* Determine the next slot in the buffer to access */

    next = (sp->tx_end + 1) & ALT_AVALON_UART_BUF_MSK;
  80219c:	e0bffc17 	ldw	r2,-16(fp)
  8021a0:	10800517 	ldw	r2,20(r2)
  8021a4:	10800044 	addi	r2,r2,1
  8021a8:	10800fcc 	andi	r2,r2,63
  8021ac:	e0bff715 	stw	r2,-36(fp)

    /* block waiting for space if necessary */

    if (next == sp->tx_start)
  8021b0:	e0bffc17 	ldw	r2,-16(fp)
  8021b4:	10c00417 	ldw	r3,16(r2)
  8021b8:	e0bff717 	ldw	r2,-36(fp)
  8021bc:	1880221e 	bne	r3,r2,802248 <altera_avalon_uart_write+0xe4>
    {
      if (no_block)
  8021c0:	e0bff517 	ldw	r2,-44(fp)
  8021c4:	10000526 	beq	r2,zero,8021dc <altera_avalon_uart_write+0x78>
      {
        /* Set errno to indicate why this function returned early */
 
        ALT_ERRNO = EWOULDBLOCK;
  8021c8:	08021280 	call	802128 <alt_get_errno>
  8021cc:	1007883a 	mov	r3,r2
  8021d0:	008002c4 	movi	r2,11
  8021d4:	18800015 	stw	r2,0(r3)
        break;
  8021d8:	00002e06 	br	802294 <altera_avalon_uart_write+0x130>
static ALT_INLINE alt_irq_context ALT_ALWAYS_INLINE 
       alt_irq_disable_all (void)
{
  alt_irq_context context;

  NIOS2_READ_STATUS (context);
  8021dc:	0005303a 	rdctl	r2,status
  8021e0:	e0bff915 	stw	r2,-28(fp)

  NIOS2_WRITE_STATUS (context & ~NIOS2_STATUS_PIE_MSK);
  8021e4:	e0fff917 	ldw	r3,-28(fp)
  8021e8:	00bfff84 	movi	r2,-2
  8021ec:	1884703a 	and	r2,r3,r2
  8021f0:	1001703a 	wrctl	status,r2
  
  return context;
  8021f4:	e0bff917 	ldw	r2,-28(fp)
      {
        /* Block waiting for space in the circular buffer */

        /* First, ensure transmit interrupts are enabled to avoid deadlock */

        context = alt_irq_disable_all ();
  8021f8:	e0bff815 	stw	r2,-32(fp)
        sp->ctrl |= (ALTERA_AVALON_UART_CONTROL_TRDY_MSK |
  8021fc:	e0bffc17 	ldw	r2,-16(fp)
  802200:	10800117 	ldw	r2,4(r2)
  802204:	10c11014 	ori	r3,r2,1088
  802208:	e0bffc17 	ldw	r2,-16(fp)
  80220c:	10c00115 	stw	r3,4(r2)
                        ALTERA_AVALON_UART_CONTROL_DCTS_MSK);
        IOWR_ALTERA_AVALON_UART_CONTROL(sp->base, sp->ctrl);
  802210:	e0bffc17 	ldw	r2,-16(fp)
  802214:	10800017 	ldw	r2,0(r2)
  802218:	10800304 	addi	r2,r2,12
  80221c:	e0fffc17 	ldw	r3,-16(fp)
  802220:	18c00117 	ldw	r3,4(r3)
  802224:	10c00035 	stwio	r3,0(r2)
  802228:	e0bff817 	ldw	r2,-32(fp)
  80222c:	e0bff615 	stw	r2,-40(fp)
  status &= ~NIOS2_STATUS_PIE_MSK;
  status |= (context & NIOS2_STATUS_PIE_MSK);
  
  NIOS2_WRITE_STATUS (status);
#else
  NIOS2_WRITE_STATUS (context);
  802230:	e0bff617 	ldw	r2,-40(fp)
  802234:	1001703a 	wrctl	status,r2
          ALT_FLAG_PEND (sp->events, 
                         ALT_UART_WRITE_RDY,
                         OS_FLAG_WAIT_SET_ANY + OS_FLAG_CONSUME,
                         0);
        }
        while ((next == sp->tx_start));
  802238:	e0bffc17 	ldw	r2,-16(fp)
  80223c:	10c00417 	ldw	r3,16(r2)
  802240:	e0bff717 	ldw	r2,-36(fp)
  802244:	18bffc26 	beq	r3,r2,802238 <__alt_data_end+0xff802238>
      }
    }

    count--;
  802248:	e0bff417 	ldw	r2,-48(fp)
  80224c:	10bfffc4 	addi	r2,r2,-1
  802250:	e0bff415 	stw	r2,-48(fp)

    /* Add the next character to the transmit buffer */

    sp->tx_buf[sp->tx_end] = *ptr++;
  802254:	e0bffc17 	ldw	r2,-16(fp)
  802258:	10c00517 	ldw	r3,20(r2)
  80225c:	e0bffd17 	ldw	r2,-12(fp)
  802260:	11000044 	addi	r4,r2,1
  802264:	e13ffd15 	stw	r4,-12(fp)
  802268:	10800003 	ldbu	r2,0(r2)
  80226c:	1009883a 	mov	r4,r2
  802270:	e0bffc17 	ldw	r2,-16(fp)
  802274:	10c5883a 	add	r2,r2,r3
  802278:	10801704 	addi	r2,r2,92
  80227c:	11000005 	stb	r4,0(r2)
    sp->tx_end = next;
  802280:	e0bffc17 	ldw	r2,-16(fp)
  802284:	e0fff717 	ldw	r3,-36(fp)
  802288:	10c00515 	stw	r3,20(r2)
   * Loop transferring data from the input buffer to the transmit circular
   * buffer. The loop is terminated once all the data has been transferred,
   * or, (if in non-blocking mode) the buffer becomes full.
   */

  while (count)
  80228c:	e0bff417 	ldw	r2,-48(fp)
  802290:	103fc21e 	bne	r2,zero,80219c <__alt_data_end+0xff80219c>
static ALT_INLINE alt_irq_context ALT_ALWAYS_INLINE 
       alt_irq_disable_all (void)
{
  alt_irq_context context;

  NIOS2_READ_STATUS (context);
  802294:	0005303a 	rdctl	r2,status
  802298:	e0bffb15 	stw	r2,-20(fp)

  NIOS2_WRITE_STATUS (context & ~NIOS2_STATUS_PIE_MSK);
  80229c:	e0fffb17 	ldw	r3,-20(fp)
  8022a0:	00bfff84 	movi	r2,-2
  8022a4:	1884703a 	and	r2,r3,r2
  8022a8:	1001703a 	wrctl	status,r2
  
  return context;
  8022ac:	e0bffb17 	ldw	r2,-20(fp)
  /* 
   * Ensure that interrupts are enabled, so that the circular buffer can 
   * drain.
   */

  context = alt_irq_disable_all ();
  8022b0:	e0bff815 	stw	r2,-32(fp)
  sp->ctrl |= ALTERA_AVALON_UART_CONTROL_TRDY_MSK |
  8022b4:	e0bffc17 	ldw	r2,-16(fp)
  8022b8:	10800117 	ldw	r2,4(r2)
  8022bc:	10c11014 	ori	r3,r2,1088
  8022c0:	e0bffc17 	ldw	r2,-16(fp)
  8022c4:	10c00115 	stw	r3,4(r2)
                 ALTERA_AVALON_UART_CONTROL_DCTS_MSK;
  IOWR_ALTERA_AVALON_UART_CONTROL(sp->base, sp->ctrl);
  8022c8:	e0bffc17 	ldw	r2,-16(fp)
  8022cc:	10800017 	ldw	r2,0(r2)
  8022d0:	10800304 	addi	r2,r2,12
  8022d4:	e0fffc17 	ldw	r3,-16(fp)
  8022d8:	18c00117 	ldw	r3,4(r3)
  8022dc:	10c00035 	stwio	r3,0(r2)
  8022e0:	e0bff817 	ldw	r2,-32(fp)
  8022e4:	e0bffa15 	stw	r2,-24(fp)
  status &= ~NIOS2_STATUS_PIE_MSK;
  status |= (context & NIOS2_STATUS_PIE_MSK);
  
  NIOS2_WRITE_STATUS (status);
#else
  NIOS2_WRITE_STATUS (context);
  8022e8:	e0bffa17 	ldw	r2,-24(fp)
  8022ec:	1001703a 	wrctl	status,r2
  alt_irq_enable_all (context);

  /* return the number of bytes written */

  return (len - count);
  8022f0:	e0fffe17 	ldw	r3,-8(fp)
  8022f4:	e0bff417 	ldw	r2,-48(fp)
  8022f8:	1885c83a 	sub	r2,r3,r2
}
  8022fc:	e037883a 	mov	sp,fp
  802300:	dfc00117 	ldw	ra,4(sp)
  802304:	df000017 	ldw	fp,0(sp)
  802308:	dec00204 	addi	sp,sp,8
  80230c:	f800283a 	ret

00802310 <alt_up_audio_open_dev>:
#include "altera_up_avalon_audio_regs.h"

///////////////////////////////////////////////////////////////////////////
// Direct functions
alt_up_audio_dev* alt_up_audio_open_dev(const char* name)
{
  802310:	defffc04 	addi	sp,sp,-16
  802314:	dfc00315 	stw	ra,12(sp)
  802318:	df000215 	stw	fp,8(sp)
  80231c:	df000204 	addi	fp,sp,8
  802320:	e13fff15 	stw	r4,-4(fp)
  // find the device from the device list 
  // (see altera_hal/HAL/inc/priv/alt_file.h 
  // and altera_hal/HAL/src/alt_find_dev.c 
  // for details)
  alt_up_audio_dev *dev = (alt_up_audio_dev*)alt_find_dev(name, &alt_dev_list);
  802324:	d1600304 	addi	r5,gp,-32756
  802328:	e13fff17 	ldw	r4,-4(fp)
  80232c:	0802f040 	call	802f04 <alt_find_dev>
  802330:	e0bffe15 	stw	r2,-8(fp)
  return dev;
  802334:	e0bffe17 	ldw	r2,-8(fp)
}
  802338:	e037883a 	mov	sp,fp
  80233c:	dfc00117 	ldw	ra,4(sp)
  802340:	df000017 	ldw	fp,0(sp)
  802344:	dec00204 	addi	sp,sp,8
  802348:	f800283a 	ret

0080234c <alt_up_audio_enable_read_interrupt>:

void alt_up_audio_enable_read_interrupt(alt_up_audio_dev *audio)
{
  80234c:	defffd04 	addi	sp,sp,-12
  802350:	df000215 	stw	fp,8(sp)
  802354:	df000204 	addi	fp,sp,8
  802358:	e13fff15 	stw	r4,-4(fp)
	unsigned int ctrl_reg;
	ctrl_reg = IORD_ALT_UP_AUDIO_CONTROL(audio->base); 
  80235c:	e0bfff17 	ldw	r2,-4(fp)
  802360:	10800a17 	ldw	r2,40(r2)
  802364:	10800037 	ldwio	r2,0(r2)
  802368:	e0bffe15 	stw	r2,-8(fp)
	// set RE to 1 while maintaining other bits the same
	ctrl_reg |= ALT_UP_AUDIO_CONTROL_RE_MSK;
  80236c:	e0bffe17 	ldw	r2,-8(fp)
  802370:	10800054 	ori	r2,r2,1
  802374:	e0bffe15 	stw	r2,-8(fp)
	IOWR_ALT_UP_AUDIO_CONTROL(audio->base, ctrl_reg);
  802378:	e0bfff17 	ldw	r2,-4(fp)
  80237c:	10800a17 	ldw	r2,40(r2)
  802380:	1007883a 	mov	r3,r2
  802384:	e0bffe17 	ldw	r2,-8(fp)
  802388:	18800035 	stwio	r2,0(r3)
}
  80238c:	0001883a 	nop
  802390:	e037883a 	mov	sp,fp
  802394:	df000017 	ldw	fp,0(sp)
  802398:	dec00104 	addi	sp,sp,4
  80239c:	f800283a 	ret

008023a0 <alt_up_audio_disable_read_interrupt>:

void alt_up_audio_disable_read_interrupt(alt_up_audio_dev *audio)
{
  8023a0:	defffd04 	addi	sp,sp,-12
  8023a4:	df000215 	stw	fp,8(sp)
  8023a8:	df000204 	addi	fp,sp,8
  8023ac:	e13fff15 	stw	r4,-4(fp)
	unsigned int ctrl_reg;
	ctrl_reg = IORD_ALT_UP_AUDIO_CONTROL(audio->base); 
  8023b0:	e0bfff17 	ldw	r2,-4(fp)
  8023b4:	10800a17 	ldw	r2,40(r2)
  8023b8:	10800037 	ldwio	r2,0(r2)
  8023bc:	e0bffe15 	stw	r2,-8(fp)
	// set RE to 0 while maintaining other bits the same
	ctrl_reg &= ~ALT_UP_AUDIO_CONTROL_RE_MSK;
  8023c0:	e0fffe17 	ldw	r3,-8(fp)
  8023c4:	00bfff84 	movi	r2,-2
  8023c8:	1884703a 	and	r2,r3,r2
  8023cc:	e0bffe15 	stw	r2,-8(fp)
	IOWR_ALT_UP_AUDIO_CONTROL(audio->base, ctrl_reg);
  8023d0:	e0bfff17 	ldw	r2,-4(fp)
  8023d4:	10800a17 	ldw	r2,40(r2)
  8023d8:	1007883a 	mov	r3,r2
  8023dc:	e0bffe17 	ldw	r2,-8(fp)
  8023e0:	18800035 	stwio	r2,0(r3)
}
  8023e4:	0001883a 	nop
  8023e8:	e037883a 	mov	sp,fp
  8023ec:	df000017 	ldw	fp,0(sp)
  8023f0:	dec00104 	addi	sp,sp,4
  8023f4:	f800283a 	ret

008023f8 <alt_up_audio_enable_write_interrupt>:

void alt_up_audio_enable_write_interrupt(alt_up_audio_dev *audio)
{
  8023f8:	defffd04 	addi	sp,sp,-12
  8023fc:	df000215 	stw	fp,8(sp)
  802400:	df000204 	addi	fp,sp,8
  802404:	e13fff15 	stw	r4,-4(fp)
	unsigned int ctrl_reg;
	ctrl_reg = IORD_ALT_UP_AUDIO_CONTROL(audio->base); 
  802408:	e0bfff17 	ldw	r2,-4(fp)
  80240c:	10800a17 	ldw	r2,40(r2)
  802410:	10800037 	ldwio	r2,0(r2)
  802414:	e0bffe15 	stw	r2,-8(fp)
	// set WE to 1 while maintaining other bits the same
	ctrl_reg |= ALT_UP_AUDIO_CONTROL_WE_MSK;
  802418:	e0bffe17 	ldw	r2,-8(fp)
  80241c:	10800094 	ori	r2,r2,2
  802420:	e0bffe15 	stw	r2,-8(fp)
	IOWR_ALT_UP_AUDIO_CONTROL(audio->base, ctrl_reg);
  802424:	e0bfff17 	ldw	r2,-4(fp)
  802428:	10800a17 	ldw	r2,40(r2)
  80242c:	1007883a 	mov	r3,r2
  802430:	e0bffe17 	ldw	r2,-8(fp)
  802434:	18800035 	stwio	r2,0(r3)
}
  802438:	0001883a 	nop
  80243c:	e037883a 	mov	sp,fp
  802440:	df000017 	ldw	fp,0(sp)
  802444:	dec00104 	addi	sp,sp,4
  802448:	f800283a 	ret

0080244c <alt_up_audio_disable_write_interrupt>:

void alt_up_audio_disable_write_interrupt(alt_up_audio_dev *audio)
{
  80244c:	defffd04 	addi	sp,sp,-12
  802450:	df000215 	stw	fp,8(sp)
  802454:	df000204 	addi	fp,sp,8
  802458:	e13fff15 	stw	r4,-4(fp)
	unsigned int ctrl_reg;
	ctrl_reg = IORD_ALT_UP_AUDIO_CONTROL(audio->base); 
  80245c:	e0bfff17 	ldw	r2,-4(fp)
  802460:	10800a17 	ldw	r2,40(r2)
  802464:	10800037 	ldwio	r2,0(r2)
  802468:	e0bffe15 	stw	r2,-8(fp)
	// set WE to 0 while maintaining other bits the same
	ctrl_reg &= ~ALT_UP_AUDIO_CONTROL_WE_MSK;
  80246c:	e0fffe17 	ldw	r3,-8(fp)
  802470:	00bfff44 	movi	r2,-3
  802474:	1884703a 	and	r2,r3,r2
  802478:	e0bffe15 	stw	r2,-8(fp)
	IOWR_ALT_UP_AUDIO_CONTROL(audio->base, ctrl_reg);
  80247c:	e0bfff17 	ldw	r2,-4(fp)
  802480:	10800a17 	ldw	r2,40(r2)
  802484:	1007883a 	mov	r3,r2
  802488:	e0bffe17 	ldw	r2,-8(fp)
  80248c:	18800035 	stwio	r2,0(r3)
}
  802490:	0001883a 	nop
  802494:	e037883a 	mov	sp,fp
  802498:	df000017 	ldw	fp,0(sp)
  80249c:	dec00104 	addi	sp,sp,4
  8024a0:	f800283a 	ret

008024a4 <alt_up_audio_read_interrupt_pending>:

int alt_up_audio_read_interrupt_pending(alt_up_audio_dev *audio)
{
  8024a4:	defffd04 	addi	sp,sp,-12
  8024a8:	df000215 	stw	fp,8(sp)
  8024ac:	df000204 	addi	fp,sp,8
  8024b0:	e13fff15 	stw	r4,-4(fp)
	unsigned int ctrl_reg;
	ctrl_reg = IORD_ALT_UP_AUDIO_CONTROL(audio->base); 
  8024b4:	e0bfff17 	ldw	r2,-4(fp)
  8024b8:	10800a17 	ldw	r2,40(r2)
  8024bc:	10800037 	ldwio	r2,0(r2)
  8024c0:	e0bffe15 	stw	r2,-8(fp)
	// return 1 if RI is set to 1
	return ( (ctrl_reg & ALT_UP_AUDIO_CONTROL_RI_MSK) ? 1 : 0 );
  8024c4:	e0bffe17 	ldw	r2,-8(fp)
  8024c8:	1080400c 	andi	r2,r2,256
  8024cc:	1004c03a 	cmpne	r2,r2,zero
  8024d0:	10803fcc 	andi	r2,r2,255
}
  8024d4:	e037883a 	mov	sp,fp
  8024d8:	df000017 	ldw	fp,0(sp)
  8024dc:	dec00104 	addi	sp,sp,4
  8024e0:	f800283a 	ret

008024e4 <alt_up_audio_write_interrupt_pending>:

int alt_up_audio_write_interrupt_pending(alt_up_audio_dev *audio)
{
  8024e4:	defffd04 	addi	sp,sp,-12
  8024e8:	df000215 	stw	fp,8(sp)
  8024ec:	df000204 	addi	fp,sp,8
  8024f0:	e13fff15 	stw	r4,-4(fp)
	unsigned int ctrl_reg;
	ctrl_reg = IORD_ALT_UP_AUDIO_CONTROL(audio->base); 
  8024f4:	e0bfff17 	ldw	r2,-4(fp)
  8024f8:	10800a17 	ldw	r2,40(r2)
  8024fc:	10800037 	ldwio	r2,0(r2)
  802500:	e0bffe15 	stw	r2,-8(fp)
	// return the WI value
	return ( (ctrl_reg & ALT_UP_AUDIO_CONTROL_WI_MSK) ? 1 : 0 );
  802504:	e0bffe17 	ldw	r2,-8(fp)
  802508:	1080800c 	andi	r2,r2,512
  80250c:	1004c03a 	cmpne	r2,r2,zero
  802510:	10803fcc 	andi	r2,r2,255
}
  802514:	e037883a 	mov	sp,fp
  802518:	df000017 	ldw	fp,0(sp)
  80251c:	dec00104 	addi	sp,sp,4
  802520:	f800283a 	ret

00802524 <alt_up_audio_reset_audio_core>:

void alt_up_audio_reset_audio_core(alt_up_audio_dev *audio)
{
  802524:	defffd04 	addi	sp,sp,-12
  802528:	df000215 	stw	fp,8(sp)
  80252c:	df000204 	addi	fp,sp,8
  802530:	e13fff15 	stw	r4,-4(fp)
	unsigned int ctrl_reg;
	ctrl_reg = IORD_ALT_UP_AUDIO_CONTROL(audio->base); 
  802534:	e0bfff17 	ldw	r2,-4(fp)
  802538:	10800a17 	ldw	r2,40(r2)
  80253c:	10800037 	ldwio	r2,0(r2)
  802540:	e0bffe15 	stw	r2,-8(fp)
	// set CR and CW to 1 while maintaining other bits the same
	ctrl_reg |= ALT_UP_AUDIO_CONTROL_CR_MSK;
  802544:	e0bffe17 	ldw	r2,-8(fp)
  802548:	10800114 	ori	r2,r2,4
  80254c:	e0bffe15 	stw	r2,-8(fp)
	ctrl_reg |= ALT_UP_AUDIO_CONTROL_CW_MSK;
  802550:	e0bffe17 	ldw	r2,-8(fp)
  802554:	10800214 	ori	r2,r2,8
  802558:	e0bffe15 	stw	r2,-8(fp)
	IOWR_ALT_UP_AUDIO_CONTROL(audio->base, ctrl_reg);
  80255c:	e0bfff17 	ldw	r2,-4(fp)
  802560:	10800a17 	ldw	r2,40(r2)
  802564:	1007883a 	mov	r3,r2
  802568:	e0bffe17 	ldw	r2,-8(fp)
  80256c:	18800035 	stwio	r2,0(r3)
	// set CR and CW to 0 while maintaining other bits the same
	ctrl_reg &= ~ALT_UP_AUDIO_CONTROL_CR_MSK;
  802570:	e0fffe17 	ldw	r3,-8(fp)
  802574:	00bffec4 	movi	r2,-5
  802578:	1884703a 	and	r2,r3,r2
  80257c:	e0bffe15 	stw	r2,-8(fp)
	ctrl_reg &= ~ALT_UP_AUDIO_CONTROL_CW_MSK;
  802580:	e0fffe17 	ldw	r3,-8(fp)
  802584:	00bffdc4 	movi	r2,-9
  802588:	1884703a 	and	r2,r3,r2
  80258c:	e0bffe15 	stw	r2,-8(fp)
	IOWR_ALT_UP_AUDIO_CONTROL(audio->base, ctrl_reg);
  802590:	e0bfff17 	ldw	r2,-4(fp)
  802594:	10800a17 	ldw	r2,40(r2)
  802598:	1007883a 	mov	r3,r2
  80259c:	e0bffe17 	ldw	r2,-8(fp)
  8025a0:	18800035 	stwio	r2,0(r3)
}
  8025a4:	0001883a 	nop
  8025a8:	e037883a 	mov	sp,fp
  8025ac:	df000017 	ldw	fp,0(sp)
  8025b0:	dec00104 	addi	sp,sp,4
  8025b4:	f800283a 	ret

008025b8 <alt_up_audio_read_fifo_avail>:

/* Provides number of words of data available in the incoming FIFO: RALC or RARC */
unsigned int alt_up_audio_read_fifo_avail(alt_up_audio_dev *audio, int channel)
{
  8025b8:	defffc04 	addi	sp,sp,-16
  8025bc:	df000315 	stw	fp,12(sp)
  8025c0:	df000304 	addi	fp,sp,12
  8025c4:	e13ffe15 	stw	r4,-8(fp)
  8025c8:	e17fff15 	stw	r5,-4(fp)
	unsigned int fifospace;
	// read the whole fifospace register
	fifospace = IORD_ALT_UP_AUDIO_FIFOSPACE(audio->base);
  8025cc:	e0bffe17 	ldw	r2,-8(fp)
  8025d0:	10800a17 	ldw	r2,40(r2)
  8025d4:	10800104 	addi	r2,r2,4
  8025d8:	10800037 	ldwio	r2,0(r2)
  8025dc:	e0bffd15 	stw	r2,-12(fp)
	// extract the part for proper Channel Read Space
	fifospace = (channel == ALT_UP_AUDIO_LEFT) ? 
		(fifospace & ALT_UP_AUDIO_FIFOSPACE_RALC_MSK) >> ALT_UP_AUDIO_FIFOSPACE_RALC_OFST :
  8025e0:	e0bfff17 	ldw	r2,-4(fp)
  8025e4:	1000041e 	bne	r2,zero,8025f8 <alt_up_audio_read_fifo_avail+0x40>
  8025e8:	e0bffd17 	ldw	r2,-12(fp)
  8025ec:	10bfc00c 	andi	r2,r2,65280
  8025f0:	1004d23a 	srli	r2,r2,8
  8025f4:	00000206 	br	802600 <alt_up_audio_read_fifo_avail+0x48>
  8025f8:	e0bffd17 	ldw	r2,-12(fp)
  8025fc:	10803fcc 	andi	r2,r2,255
{
	unsigned int fifospace;
	// read the whole fifospace register
	fifospace = IORD_ALT_UP_AUDIO_FIFOSPACE(audio->base);
	// extract the part for proper Channel Read Space
	fifospace = (channel == ALT_UP_AUDIO_LEFT) ? 
  802600:	e0bffd15 	stw	r2,-12(fp)
		(fifospace & ALT_UP_AUDIO_FIFOSPACE_RALC_MSK) >> ALT_UP_AUDIO_FIFOSPACE_RALC_OFST :
		(fifospace & ALT_UP_AUDIO_FIFOSPACE_RARC_MSK) >> ALT_UP_AUDIO_FIFOSPACE_RARC_OFST;
	return (fifospace);
  802604:	e0bffd17 	ldw	r2,-12(fp)
}
  802608:	e037883a 	mov	sp,fp
  80260c:	df000017 	ldw	fp,0(sp)
  802610:	dec00104 	addi	sp,sp,4
  802614:	f800283a 	ret

00802618 <alt_up_audio_record_r>:
/* Checks if the read FIFO for the right channel has at least BUF_THRESHOLD data words 
 * available. If it doesn't, then just returns 0. If it does, then data is read from the
 * FIFO up to a maximum of len words, and stored into buf.
 */
unsigned int alt_up_audio_record_r(alt_up_audio_dev *audio, unsigned int *buf, int len)
{
  802618:	defffa04 	addi	sp,sp,-24
  80261c:	dfc00515 	stw	ra,20(sp)
  802620:	df000415 	stw	fp,16(sp)
  802624:	df000404 	addi	fp,sp,16
  802628:	e13ffd15 	stw	r4,-12(fp)
  80262c:	e17ffe15 	stw	r5,-8(fp)
  802630:	e1bfff15 	stw	r6,-4(fp)
	unsigned int data_words = alt_up_audio_read_fifo_avail (audio, ALT_UP_AUDIO_RIGHT);
  802634:	01400044 	movi	r5,1
  802638:	e13ffd17 	ldw	r4,-12(fp)
  80263c:	08025b80 	call	8025b8 <alt_up_audio_read_fifo_avail>
  802640:	e0bffc15 	stw	r2,-16(fp)
	if (data_words <= BUF_THRESHOLD)
  802644:	e0bffc17 	ldw	r2,-16(fp)
  802648:	10801868 	cmpgeui	r2,r2,97
  80264c:	1000021e 	bne	r2,zero,802658 <alt_up_audio_record_r+0x40>
		return 0;
  802650:	0005883a 	mov	r2,zero
  802654:	00000506 	br	80266c <alt_up_audio_record_r+0x54>
	else
		return (alt_up_audio_read_fifo(audio, buf, len, ALT_UP_AUDIO_RIGHT));
  802658:	01c00044 	movi	r7,1
  80265c:	e1bfff17 	ldw	r6,-4(fp)
  802660:	e17ffe17 	ldw	r5,-8(fp)
  802664:	e13ffd17 	ldw	r4,-12(fp)
  802668:	08028180 	call	802818 <alt_up_audio_read_fifo>
}
  80266c:	e037883a 	mov	sp,fp
  802670:	dfc00117 	ldw	ra,4(sp)
  802674:	df000017 	ldw	fp,0(sp)
  802678:	dec00204 	addi	sp,sp,8
  80267c:	f800283a 	ret

00802680 <alt_up_audio_record_l>:
/* Checks if the read FIFO for the left channel has at least BUF_THRESHOLD data words 
 * available. If it doesn't, then just returns 0. If it does, then data is read from the
 * FIFO up to a maximum of len words, and stored into buf.
 */
unsigned int alt_up_audio_record_l(alt_up_audio_dev *audio, unsigned int *buf, int len)
{
  802680:	defffa04 	addi	sp,sp,-24
  802684:	dfc00515 	stw	ra,20(sp)
  802688:	df000415 	stw	fp,16(sp)
  80268c:	df000404 	addi	fp,sp,16
  802690:	e13ffd15 	stw	r4,-12(fp)
  802694:	e17ffe15 	stw	r5,-8(fp)
  802698:	e1bfff15 	stw	r6,-4(fp)
	unsigned int data_words = alt_up_audio_read_fifo_avail (audio, ALT_UP_AUDIO_LEFT);
  80269c:	000b883a 	mov	r5,zero
  8026a0:	e13ffd17 	ldw	r4,-12(fp)
  8026a4:	08025b80 	call	8025b8 <alt_up_audio_read_fifo_avail>
  8026a8:	e0bffc15 	stw	r2,-16(fp)
	if (data_words <= BUF_THRESHOLD)
  8026ac:	e0bffc17 	ldw	r2,-16(fp)
  8026b0:	10801868 	cmpgeui	r2,r2,97
  8026b4:	1000021e 	bne	r2,zero,8026c0 <alt_up_audio_record_l+0x40>
		return 0;
  8026b8:	0005883a 	mov	r2,zero
  8026bc:	00000506 	br	8026d4 <alt_up_audio_record_l+0x54>
	else
		return (alt_up_audio_read_fifo(audio, buf, len, ALT_UP_AUDIO_LEFT));
  8026c0:	000f883a 	mov	r7,zero
  8026c4:	e1bfff17 	ldw	r6,-4(fp)
  8026c8:	e17ffe17 	ldw	r5,-8(fp)
  8026cc:	e13ffd17 	ldw	r4,-12(fp)
  8026d0:	08028180 	call	802818 <alt_up_audio_read_fifo>
}
  8026d4:	e037883a 	mov	sp,fp
  8026d8:	dfc00117 	ldw	ra,4(sp)
  8026dc:	df000017 	ldw	fp,0(sp)
  8026e0:	dec00204 	addi	sp,sp,8
  8026e4:	f800283a 	ret

008026e8 <alt_up_audio_write_fifo_space>:

/* Provides the amount of empty space available in the outgoing FIFO: WSLC or WSRC */
unsigned int alt_up_audio_write_fifo_space(alt_up_audio_dev *audio, int channel)
{
  8026e8:	defffc04 	addi	sp,sp,-16
  8026ec:	df000315 	stw	fp,12(sp)
  8026f0:	df000304 	addi	fp,sp,12
  8026f4:	e13ffe15 	stw	r4,-8(fp)
  8026f8:	e17fff15 	stw	r5,-4(fp)
	unsigned int fifospace;
	// read the whole fifospace register
	fifospace = IORD_ALT_UP_AUDIO_FIFOSPACE(audio->base);
  8026fc:	e0bffe17 	ldw	r2,-8(fp)
  802700:	10800a17 	ldw	r2,40(r2)
  802704:	10800104 	addi	r2,r2,4
  802708:	10800037 	ldwio	r2,0(r2)
  80270c:	e0bffd15 	stw	r2,-12(fp)
	// extract the part for proper Channel Read Space
	fifospace = (channel == ALT_UP_AUDIO_LEFT) ? 
		(fifospace & ALT_UP_AUDIO_FIFOSPACE_WSLC_MSK) >> ALT_UP_AUDIO_FIFOSPACE_WSLC_OFST :
  802710:	e0bfff17 	ldw	r2,-4(fp)
  802714:	1000031e 	bne	r2,zero,802724 <alt_up_audio_write_fifo_space+0x3c>
  802718:	e0bffd17 	ldw	r2,-12(fp)
  80271c:	1004d63a 	srli	r2,r2,24
  802720:	00000306 	br	802730 <alt_up_audio_write_fifo_space+0x48>
		(fifospace & ALT_UP_AUDIO_FIFOSPACE_WSRC_MSK) >> ALT_UP_AUDIO_FIFOSPACE_WSRC_OFST;
  802724:	e0bffd17 	ldw	r2,-12(fp)
  802728:	10803fec 	andhi	r2,r2,255
	unsigned int fifospace;
	// read the whole fifospace register
	fifospace = IORD_ALT_UP_AUDIO_FIFOSPACE(audio->base);
	// extract the part for proper Channel Read Space
	fifospace = (channel == ALT_UP_AUDIO_LEFT) ? 
		(fifospace & ALT_UP_AUDIO_FIFOSPACE_WSLC_MSK) >> ALT_UP_AUDIO_FIFOSPACE_WSLC_OFST :
  80272c:	1004d43a 	srli	r2,r2,16
{
	unsigned int fifospace;
	// read the whole fifospace register
	fifospace = IORD_ALT_UP_AUDIO_FIFOSPACE(audio->base);
	// extract the part for proper Channel Read Space
	fifospace = (channel == ALT_UP_AUDIO_LEFT) ? 
  802730:	e0bffd15 	stw	r2,-12(fp)
		(fifospace & ALT_UP_AUDIO_FIFOSPACE_WSLC_MSK) >> ALT_UP_AUDIO_FIFOSPACE_WSLC_OFST :
		(fifospace & ALT_UP_AUDIO_FIFOSPACE_WSRC_MSK) >> ALT_UP_AUDIO_FIFOSPACE_WSRC_OFST;
	return (fifospace);
  802734:	e0bffd17 	ldw	r2,-12(fp)
}
  802738:	e037883a 	mov	sp,fp
  80273c:	df000017 	ldw	fp,0(sp)
  802740:	dec00104 	addi	sp,sp,4
  802744:	f800283a 	ret

00802748 <alt_up_audio_play_r>:
/* Checks if the write FIFO for the right channel has at least BUF_THRESHOLD space available.
 * If it doesn't, then just returns 0. If it does, then data from buf is written into the 
 * FIFO, up to a maximum of len words.
 */
unsigned int alt_up_audio_play_r(alt_up_audio_dev *audio, unsigned int *buf, int len)
{
  802748:	defffa04 	addi	sp,sp,-24
  80274c:	dfc00515 	stw	ra,20(sp)
  802750:	df000415 	stw	fp,16(sp)
  802754:	df000404 	addi	fp,sp,16
  802758:	e13ffd15 	stw	r4,-12(fp)
  80275c:	e17ffe15 	stw	r5,-8(fp)
  802760:	e1bfff15 	stw	r6,-4(fp)
	unsigned int space = alt_up_audio_write_fifo_space (audio, ALT_UP_AUDIO_RIGHT);
  802764:	01400044 	movi	r5,1
  802768:	e13ffd17 	ldw	r4,-12(fp)
  80276c:	08026e80 	call	8026e8 <alt_up_audio_write_fifo_space>
  802770:	e0bffc15 	stw	r2,-16(fp)
	if (space <= BUF_THRESHOLD)
  802774:	e0bffc17 	ldw	r2,-16(fp)
  802778:	10801868 	cmpgeui	r2,r2,97
  80277c:	1000021e 	bne	r2,zero,802788 <alt_up_audio_play_r+0x40>
		return 0;
  802780:	0005883a 	mov	r2,zero
  802784:	00000506 	br	80279c <alt_up_audio_play_r+0x54>
	else
		return (alt_up_audio_write_fifo(audio, buf, len, ALT_UP_AUDIO_RIGHT));
  802788:	01c00044 	movi	r7,1
  80278c:	e1bfff17 	ldw	r6,-4(fp)
  802790:	e17ffe17 	ldw	r5,-8(fp)
  802794:	e13ffd17 	ldw	r4,-12(fp)
  802798:	08028f80 	call	8028f8 <alt_up_audio_write_fifo>
}
  80279c:	e037883a 	mov	sp,fp
  8027a0:	dfc00117 	ldw	ra,4(sp)
  8027a4:	df000017 	ldw	fp,0(sp)
  8027a8:	dec00204 	addi	sp,sp,8
  8027ac:	f800283a 	ret

008027b0 <alt_up_audio_play_l>:
/* Checks if the write FIFO for the left channel has at least BUF_THRESHOLD space available.
 * If it doesn't, then just returns 0. If it does, then data from buf is written into the 
 * FIFO, up to a maximum of len words.
 */
unsigned int alt_up_audio_play_l(alt_up_audio_dev *audio, unsigned int *buf, int len)
{
  8027b0:	defffa04 	addi	sp,sp,-24
  8027b4:	dfc00515 	stw	ra,20(sp)
  8027b8:	df000415 	stw	fp,16(sp)
  8027bc:	df000404 	addi	fp,sp,16
  8027c0:	e13ffd15 	stw	r4,-12(fp)
  8027c4:	e17ffe15 	stw	r5,-8(fp)
  8027c8:	e1bfff15 	stw	r6,-4(fp)
	unsigned int space = alt_up_audio_write_fifo_space (audio, ALT_UP_AUDIO_LEFT);
  8027cc:	000b883a 	mov	r5,zero
  8027d0:	e13ffd17 	ldw	r4,-12(fp)
  8027d4:	08026e80 	call	8026e8 <alt_up_audio_write_fifo_space>
  8027d8:	e0bffc15 	stw	r2,-16(fp)
	if (space <= BUF_THRESHOLD)
  8027dc:	e0bffc17 	ldw	r2,-16(fp)
  8027e0:	10801868 	cmpgeui	r2,r2,97
  8027e4:	1000021e 	bne	r2,zero,8027f0 <alt_up_audio_play_l+0x40>
		return 0;
  8027e8:	0005883a 	mov	r2,zero
  8027ec:	00000506 	br	802804 <alt_up_audio_play_l+0x54>
	else
		return (alt_up_audio_write_fifo(audio, buf, len, ALT_UP_AUDIO_LEFT));
  8027f0:	000f883a 	mov	r7,zero
  8027f4:	e1bfff17 	ldw	r6,-4(fp)
  8027f8:	e17ffe17 	ldw	r5,-8(fp)
  8027fc:	e13ffd17 	ldw	r4,-12(fp)
  802800:	08028f80 	call	8028f8 <alt_up_audio_write_fifo>
}
  802804:	e037883a 	mov	sp,fp
  802808:	dfc00117 	ldw	ra,4(sp)
  80280c:	df000017 	ldw	fp,0(sp)
  802810:	dec00204 	addi	sp,sp,8
  802814:	f800283a 	ret

00802818 <alt_up_audio_read_fifo>:

int alt_up_audio_read_fifo(alt_up_audio_dev *audio, unsigned int *buf, int len, int channel)
{
  802818:	defff904 	addi	sp,sp,-28
  80281c:	df000615 	stw	fp,24(sp)
  802820:	df000604 	addi	fp,sp,24
  802824:	e13ffc15 	stw	r4,-16(fp)
  802828:	e17ffd15 	stw	r5,-12(fp)
  80282c:	e1bffe15 	stw	r6,-8(fp)
  802830:	e1ffff15 	stw	r7,-4(fp)
	unsigned int fifospace;
	int count = 0;
  802834:	e03ffa15 	stw	zero,-24(fp)
	while ( count < len ) 
  802838:	00002506 	br	8028d0 <alt_up_audio_read_fifo+0xb8>
	{
		// read the whole fifospace register
		fifospace = IORD_ALT_UP_AUDIO_FIFOSPACE(audio->base);
  80283c:	e0bffc17 	ldw	r2,-16(fp)
  802840:	10800a17 	ldw	r2,40(r2)
  802844:	10800104 	addi	r2,r2,4
  802848:	10800037 	ldwio	r2,0(r2)
  80284c:	e0bffb15 	stw	r2,-20(fp)
		// extract the part for proper Channel Read Space
		fifospace = (channel == ALT_UP_AUDIO_LEFT) ? 
			(fifospace & ALT_UP_AUDIO_FIFOSPACE_RALC_MSK) >> ALT_UP_AUDIO_FIFOSPACE_RALC_OFST 
			:
  802850:	e0bfff17 	ldw	r2,-4(fp)
  802854:	1000041e 	bne	r2,zero,802868 <alt_up_audio_read_fifo+0x50>
	{
		// read the whole fifospace register
		fifospace = IORD_ALT_UP_AUDIO_FIFOSPACE(audio->base);
		// extract the part for proper Channel Read Space
		fifospace = (channel == ALT_UP_AUDIO_LEFT) ? 
			(fifospace & ALT_UP_AUDIO_FIFOSPACE_RALC_MSK) >> ALT_UP_AUDIO_FIFOSPACE_RALC_OFST 
  802858:	e0bffb17 	ldw	r2,-20(fp)
  80285c:	10bfc00c 	andi	r2,r2,65280
			:
  802860:	1004d23a 	srli	r2,r2,8
  802864:	00000206 	br	802870 <alt_up_audio_read_fifo+0x58>
  802868:	e0bffb17 	ldw	r2,-20(fp)
  80286c:	10803fcc 	andi	r2,r2,255
	while ( count < len ) 
	{
		// read the whole fifospace register
		fifospace = IORD_ALT_UP_AUDIO_FIFOSPACE(audio->base);
		// extract the part for proper Channel Read Space
		fifospace = (channel == ALT_UP_AUDIO_LEFT) ? 
  802870:	e0bffb15 	stw	r2,-20(fp)
			(fifospace & ALT_UP_AUDIO_FIFOSPACE_RALC_MSK) >> ALT_UP_AUDIO_FIFOSPACE_RALC_OFST 
			:
			(fifospace & ALT_UP_AUDIO_FIFOSPACE_RARC_MSK) >> ALT_UP_AUDIO_FIFOSPACE_RARC_OFST;
		if (fifospace > 0) 
  802874:	e0bffb17 	ldw	r2,-20(fp)
  802878:	10001926 	beq	r2,zero,8028e0 <alt_up_audio_read_fifo+0xc8>
		{
			buf[count] = (channel == ALT_UP_AUDIO_LEFT) ? 
  80287c:	e0bffa17 	ldw	r2,-24(fp)
  802880:	1085883a 	add	r2,r2,r2
  802884:	1085883a 	add	r2,r2,r2
  802888:	1007883a 	mov	r3,r2
  80288c:	e0bffd17 	ldw	r2,-12(fp)
  802890:	10c5883a 	add	r2,r2,r3
  802894:	e0ffff17 	ldw	r3,-4(fp)
  802898:	1800051e 	bne	r3,zero,8028b0 <alt_up_audio_read_fifo+0x98>
				IORD_ALT_UP_AUDIO_LEFTDATA(audio->base) :
  80289c:	e0fffc17 	ldw	r3,-16(fp)
  8028a0:	18c00a17 	ldw	r3,40(r3)
  8028a4:	18c00204 	addi	r3,r3,8
  8028a8:	18c00037 	ldwio	r3,0(r3)
  8028ac:	00000406 	br	8028c0 <alt_up_audio_read_fifo+0xa8>
				IORD_ALT_UP_AUDIO_RIGHTDATA(audio->base);
  8028b0:	e0fffc17 	ldw	r3,-16(fp)
  8028b4:	18c00a17 	ldw	r3,40(r3)
  8028b8:	18c00304 	addi	r3,r3,12
  8028bc:	18c00037 	ldwio	r3,0(r3)
			(fifospace & ALT_UP_AUDIO_FIFOSPACE_RALC_MSK) >> ALT_UP_AUDIO_FIFOSPACE_RALC_OFST 
			:
			(fifospace & ALT_UP_AUDIO_FIFOSPACE_RARC_MSK) >> ALT_UP_AUDIO_FIFOSPACE_RARC_OFST;
		if (fifospace > 0) 
		{
			buf[count] = (channel == ALT_UP_AUDIO_LEFT) ? 
  8028c0:	10c00015 	stw	r3,0(r2)
				IORD_ALT_UP_AUDIO_LEFTDATA(audio->base) :
				IORD_ALT_UP_AUDIO_RIGHTDATA(audio->base);
			count ++;
  8028c4:	e0bffa17 	ldw	r2,-24(fp)
  8028c8:	10800044 	addi	r2,r2,1
  8028cc:	e0bffa15 	stw	r2,-24(fp)

int alt_up_audio_read_fifo(alt_up_audio_dev *audio, unsigned int *buf, int len, int channel)
{
	unsigned int fifospace;
	int count = 0;
	while ( count < len ) 
  8028d0:	e0fffa17 	ldw	r3,-24(fp)
  8028d4:	e0bffe17 	ldw	r2,-8(fp)
  8028d8:	18bfd816 	blt	r3,r2,80283c <__alt_data_end+0xff80283c>
  8028dc:	00000106 	br	8028e4 <alt_up_audio_read_fifo+0xcc>
			count ++;
		}
		else
		{
			// no more data to read
			break;
  8028e0:	0001883a 	nop
		}
	}
	return count;
  8028e4:	e0bffa17 	ldw	r2,-24(fp)
}
  8028e8:	e037883a 	mov	sp,fp
  8028ec:	df000017 	ldw	fp,0(sp)
  8028f0:	dec00104 	addi	sp,sp,4
  8028f4:	f800283a 	ret

008028f8 <alt_up_audio_write_fifo>:

int alt_up_audio_write_fifo(alt_up_audio_dev *audio, unsigned int *buf, int len, int channel)
{
  8028f8:	defff904 	addi	sp,sp,-28
  8028fc:	df000615 	stw	fp,24(sp)
  802900:	df000604 	addi	fp,sp,24
  802904:	e13ffc15 	stw	r4,-16(fp)
  802908:	e17ffd15 	stw	r5,-12(fp)
  80290c:	e1bffe15 	stw	r6,-8(fp)
  802910:	e1ffff15 	stw	r7,-4(fp)
	unsigned int fifospace;
	int count = 0;
  802914:	e03ffa15 	stw	zero,-24(fp)
	while ( count < len ) 
  802918:	00002f06 	br	8029d8 <alt_up_audio_write_fifo+0xe0>
	{
		// read the whole fifospace register
		fifospace = IORD_ALT_UP_AUDIO_FIFOSPACE(audio->base);
  80291c:	e0bffc17 	ldw	r2,-16(fp)
  802920:	10800a17 	ldw	r2,40(r2)
  802924:	10800104 	addi	r2,r2,4
  802928:	10800037 	ldwio	r2,0(r2)
  80292c:	e0bffb15 	stw	r2,-20(fp)
		// extract the part for Left Channel Write Space 
		fifospace = (channel == ALT_UP_AUDIO_LEFT) ? 
			(fifospace & ALT_UP_AUDIO_FIFOSPACE_WSLC_MSK) >> ALT_UP_AUDIO_FIFOSPACE_WSLC_OFST :
  802930:	e0bfff17 	ldw	r2,-4(fp)
  802934:	1000031e 	bne	r2,zero,802944 <alt_up_audio_write_fifo+0x4c>
  802938:	e0bffb17 	ldw	r2,-20(fp)
  80293c:	1004d63a 	srli	r2,r2,24
  802940:	00000306 	br	802950 <alt_up_audio_write_fifo+0x58>
			(fifospace & ALT_UP_AUDIO_FIFOSPACE_WSRC_MSK) >> ALT_UP_AUDIO_FIFOSPACE_WSRC_OFST;
  802944:	e0bffb17 	ldw	r2,-20(fp)
  802948:	10803fec 	andhi	r2,r2,255
	{
		// read the whole fifospace register
		fifospace = IORD_ALT_UP_AUDIO_FIFOSPACE(audio->base);
		// extract the part for Left Channel Write Space 
		fifospace = (channel == ALT_UP_AUDIO_LEFT) ? 
			(fifospace & ALT_UP_AUDIO_FIFOSPACE_WSLC_MSK) >> ALT_UP_AUDIO_FIFOSPACE_WSLC_OFST :
  80294c:	1004d43a 	srli	r2,r2,16
	while ( count < len ) 
	{
		// read the whole fifospace register
		fifospace = IORD_ALT_UP_AUDIO_FIFOSPACE(audio->base);
		// extract the part for Left Channel Write Space 
		fifospace = (channel == ALT_UP_AUDIO_LEFT) ? 
  802950:	e0bffb15 	stw	r2,-20(fp)
			(fifospace & ALT_UP_AUDIO_FIFOSPACE_WSLC_MSK) >> ALT_UP_AUDIO_FIFOSPACE_WSLC_OFST :
			(fifospace & ALT_UP_AUDIO_FIFOSPACE_WSRC_MSK) >> ALT_UP_AUDIO_FIFOSPACE_WSRC_OFST;
		if (fifospace > 0) 
  802954:	e0bffb17 	ldw	r2,-20(fp)
  802958:	10002326 	beq	r2,zero,8029e8 <alt_up_audio_write_fifo+0xf0>
		{
			if (channel == ALT_UP_AUDIO_LEFT) 
  80295c:	e0bfff17 	ldw	r2,-4(fp)
  802960:	10000f1e 	bne	r2,zero,8029a0 <alt_up_audio_write_fifo+0xa8>
				IOWR_ALT_UP_AUDIO_LEFTDATA(audio->base, buf[count++]);
  802964:	e0bffc17 	ldw	r2,-16(fp)
  802968:	10800a17 	ldw	r2,40(r2)
  80296c:	10800204 	addi	r2,r2,8
  802970:	1009883a 	mov	r4,r2
  802974:	e0bffa17 	ldw	r2,-24(fp)
  802978:	10c00044 	addi	r3,r2,1
  80297c:	e0fffa15 	stw	r3,-24(fp)
  802980:	1085883a 	add	r2,r2,r2
  802984:	1085883a 	add	r2,r2,r2
  802988:	1007883a 	mov	r3,r2
  80298c:	e0bffd17 	ldw	r2,-12(fp)
  802990:	10c5883a 	add	r2,r2,r3
  802994:	10800017 	ldw	r2,0(r2)
  802998:	20800035 	stwio	r2,0(r4)
  80299c:	00000e06 	br	8029d8 <alt_up_audio_write_fifo+0xe0>
			else
				IOWR_ALT_UP_AUDIO_RIGHTDATA(audio->base, buf[count++]);
  8029a0:	e0bffc17 	ldw	r2,-16(fp)
  8029a4:	10800a17 	ldw	r2,40(r2)
  8029a8:	10800304 	addi	r2,r2,12
  8029ac:	1009883a 	mov	r4,r2
  8029b0:	e0bffa17 	ldw	r2,-24(fp)
  8029b4:	10c00044 	addi	r3,r2,1
  8029b8:	e0fffa15 	stw	r3,-24(fp)
  8029bc:	1085883a 	add	r2,r2,r2
  8029c0:	1085883a 	add	r2,r2,r2
  8029c4:	1007883a 	mov	r3,r2
  8029c8:	e0bffd17 	ldw	r2,-12(fp)
  8029cc:	10c5883a 	add	r2,r2,r3
  8029d0:	10800017 	ldw	r2,0(r2)
  8029d4:	20800035 	stwio	r2,0(r4)

int alt_up_audio_write_fifo(alt_up_audio_dev *audio, unsigned int *buf, int len, int channel)
{
	unsigned int fifospace;
	int count = 0;
	while ( count < len ) 
  8029d8:	e0fffa17 	ldw	r3,-24(fp)
  8029dc:	e0bffe17 	ldw	r2,-8(fp)
  8029e0:	18bfce16 	blt	r3,r2,80291c <__alt_data_end+0xff80291c>
  8029e4:	00000106 	br	8029ec <alt_up_audio_write_fifo+0xf4>
				IOWR_ALT_UP_AUDIO_RIGHTDATA(audio->base, buf[count++]);
		}
		else
		{
			// no more space to write
			break;
  8029e8:	0001883a 	nop
		}
	}
	return count;
  8029ec:	e0bffa17 	ldw	r2,-24(fp)
}
  8029f0:	e037883a 	mov	sp,fp
  8029f4:	df000017 	ldw	fp,0(sp)
  8029f8:	dec00104 	addi	sp,sp,4
  8029fc:	f800283a 	ret

00802a00 <alt_up_audio_read_fifo_head>:

unsigned int alt_up_audio_read_fifo_head(alt_up_audio_dev *audio, int channel)
{
  802a00:	defffd04 	addi	sp,sp,-12
  802a04:	df000215 	stw	fp,8(sp)
  802a08:	df000204 	addi	fp,sp,8
  802a0c:	e13ffe15 	stw	r4,-8(fp)
  802a10:	e17fff15 	stw	r5,-4(fp)
	return ( (channel == ALT_UP_AUDIO_LEFT) ?  IORD_ALT_UP_AUDIO_LEFTDATA(audio->base) :
  802a14:	e0bfff17 	ldw	r2,-4(fp)
  802a18:	1000051e 	bne	r2,zero,802a30 <alt_up_audio_read_fifo_head+0x30>
  802a1c:	e0bffe17 	ldw	r2,-8(fp)
  802a20:	10800a17 	ldw	r2,40(r2)
  802a24:	10800204 	addi	r2,r2,8
  802a28:	10800037 	ldwio	r2,0(r2)
  802a2c:	00000406 	br	802a40 <alt_up_audio_read_fifo_head+0x40>
				IORD_ALT_UP_AUDIO_RIGHTDATA(audio->base) );
  802a30:	e0bffe17 	ldw	r2,-8(fp)
  802a34:	10800a17 	ldw	r2,40(r2)
  802a38:	10800304 	addi	r2,r2,12
  802a3c:	10800037 	ldwio	r2,0(r2)
}
  802a40:	e037883a 	mov	sp,fp
  802a44:	df000017 	ldw	fp,0(sp)
  802a48:	dec00104 	addi	sp,sp,4
  802a4c:	f800283a 	ret

00802a50 <alt_up_audio_write_fifo_head>:

void alt_up_audio_write_fifo_head(alt_up_audio_dev *audio, unsigned int data, int channel)
{
  802a50:	defffc04 	addi	sp,sp,-16
  802a54:	df000315 	stw	fp,12(sp)
  802a58:	df000304 	addi	fp,sp,12
  802a5c:	e13ffd15 	stw	r4,-12(fp)
  802a60:	e17ffe15 	stw	r5,-8(fp)
  802a64:	e1bfff15 	stw	r6,-4(fp)
	if (channel == ALT_UP_AUDIO_LEFT) 
  802a68:	e0bfff17 	ldw	r2,-4(fp)
  802a6c:	1000071e 	bne	r2,zero,802a8c <alt_up_audio_write_fifo_head+0x3c>
		IOWR_ALT_UP_AUDIO_LEFTDATA(audio->base, data);
  802a70:	e0bffd17 	ldw	r2,-12(fp)
  802a74:	10800a17 	ldw	r2,40(r2)
  802a78:	10800204 	addi	r2,r2,8
  802a7c:	1007883a 	mov	r3,r2
  802a80:	e0bffe17 	ldw	r2,-8(fp)
  802a84:	18800035 	stwio	r2,0(r3)
	else
		IOWR_ALT_UP_AUDIO_RIGHTDATA(audio->base, data);
}
  802a88:	00000606 	br	802aa4 <alt_up_audio_write_fifo_head+0x54>
void alt_up_audio_write_fifo_head(alt_up_audio_dev *audio, unsigned int data, int channel)
{
	if (channel == ALT_UP_AUDIO_LEFT) 
		IOWR_ALT_UP_AUDIO_LEFTDATA(audio->base, data);
	else
		IOWR_ALT_UP_AUDIO_RIGHTDATA(audio->base, data);
  802a8c:	e0bffd17 	ldw	r2,-12(fp)
  802a90:	10800a17 	ldw	r2,40(r2)
  802a94:	10800304 	addi	r2,r2,12
  802a98:	1007883a 	mov	r3,r2
  802a9c:	e0bffe17 	ldw	r2,-8(fp)
  802aa0:	18800035 	stwio	r2,0(r3)
}
  802aa4:	0001883a 	nop
  802aa8:	e037883a 	mov	sp,fp
  802aac:	df000017 	ldw	fp,0(sp)
  802ab0:	dec00104 	addi	sp,sp,4
  802ab4:	f800283a 	ret

00802ab8 <alt_alarm_start>:
 */ 

int alt_alarm_start (alt_alarm* alarm, alt_u32 nticks,
                     alt_u32 (*callback) (void* context),
                     void* context)
{
  802ab8:	defff504 	addi	sp,sp,-44
  802abc:	df000a15 	stw	fp,40(sp)
  802ac0:	df000a04 	addi	fp,sp,40
  802ac4:	e13ffc15 	stw	r4,-16(fp)
  802ac8:	e17ffd15 	stw	r5,-12(fp)
  802acc:	e1bffe15 	stw	r6,-8(fp)
  802ad0:	e1ffff15 	stw	r7,-4(fp)
  alt_irq_context irq_context;
  alt_u32 current_nticks = 0;
  802ad4:	e03ff615 	stw	zero,-40(fp)
 * Obtain the system clock rate in ticks/s. 
 */

static ALT_INLINE alt_u32 ALT_ALWAYS_INLINE alt_ticks_per_second (void)
{
  return _alt_tick_rate;
  802ad8:	d0a33517 	ldw	r2,-29484(gp)
  
  if (alt_ticks_per_second ())
  802adc:	10003c26 	beq	r2,zero,802bd0 <alt_alarm_start+0x118>
  {
    if (alarm)
  802ae0:	e0bffc17 	ldw	r2,-16(fp)
  802ae4:	10003826 	beq	r2,zero,802bc8 <alt_alarm_start+0x110>
    {
      alarm->callback = callback;
  802ae8:	e0bffc17 	ldw	r2,-16(fp)
  802aec:	e0fffe17 	ldw	r3,-8(fp)
  802af0:	10c00315 	stw	r3,12(r2)
      alarm->context  = context;
  802af4:	e0bffc17 	ldw	r2,-16(fp)
  802af8:	e0ffff17 	ldw	r3,-4(fp)
  802afc:	10c00515 	stw	r3,20(r2)
static ALT_INLINE alt_irq_context ALT_ALWAYS_INLINE 
       alt_irq_disable_all (void)
{
  alt_irq_context context;

  NIOS2_READ_STATUS (context);
  802b00:	0005303a 	rdctl	r2,status
  802b04:	e0bff915 	stw	r2,-28(fp)

  NIOS2_WRITE_STATUS (context & ~NIOS2_STATUS_PIE_MSK);
  802b08:	e0fff917 	ldw	r3,-28(fp)
  802b0c:	00bfff84 	movi	r2,-2
  802b10:	1884703a 	and	r2,r3,r2
  802b14:	1001703a 	wrctl	status,r2
  
  return context;
  802b18:	e0bff917 	ldw	r2,-28(fp)
 
      irq_context = alt_irq_disable_all ();
  802b1c:	e0bff815 	stw	r2,-32(fp)
 * alt_nticks() returns the elapsed number of system clock ticks since reset.
 */

static ALT_INLINE alt_u32 ALT_ALWAYS_INLINE alt_nticks (void)
{
  return _alt_nticks;
  802b20:	d0a33617 	ldw	r2,-29480(gp)
      
      current_nticks = alt_nticks();
  802b24:	e0bff615 	stw	r2,-40(fp)
      
      alarm->time = nticks + current_nticks + 1; 
  802b28:	e0fffd17 	ldw	r3,-12(fp)
  802b2c:	e0bff617 	ldw	r2,-40(fp)
  802b30:	1885883a 	add	r2,r3,r2
  802b34:	10c00044 	addi	r3,r2,1
  802b38:	e0bffc17 	ldw	r2,-16(fp)
  802b3c:	10c00215 	stw	r3,8(r2)
      /* 
       * If the desired alarm time causes a roll-over, set the rollover
       * flag. This will prevent the subsequent tick event from causing
       * an alarm too early.
       */
      if(alarm->time < current_nticks)
  802b40:	e0bffc17 	ldw	r2,-16(fp)
  802b44:	10c00217 	ldw	r3,8(r2)
  802b48:	e0bff617 	ldw	r2,-40(fp)
  802b4c:	1880042e 	bgeu	r3,r2,802b60 <alt_alarm_start+0xa8>
      {
        alarm->rollover = 1;
  802b50:	e0bffc17 	ldw	r2,-16(fp)
  802b54:	00c00044 	movi	r3,1
  802b58:	10c00405 	stb	r3,16(r2)
  802b5c:	00000206 	br	802b68 <alt_alarm_start+0xb0>
      }
      else
      {
        alarm->rollover = 0;
  802b60:	e0bffc17 	ldw	r2,-16(fp)
  802b64:	10000405 	stb	zero,16(r2)
      }
    
      alt_llist_insert (&alt_alarm_list, &alarm->llist);
  802b68:	e0bffc17 	ldw	r2,-16(fp)
  802b6c:	d0e00804 	addi	r3,gp,-32736
  802b70:	e0fffa15 	stw	r3,-24(fp)
  802b74:	e0bffb15 	stw	r2,-20(fp)
 */

static ALT_INLINE void ALT_ALWAYS_INLINE alt_llist_insert(alt_llist* list, 
                alt_llist* entry)
{
  entry->previous = list;
  802b78:	e0bffb17 	ldw	r2,-20(fp)
  802b7c:	e0fffa17 	ldw	r3,-24(fp)
  802b80:	10c00115 	stw	r3,4(r2)
  entry->next     = list->next;
  802b84:	e0bffa17 	ldw	r2,-24(fp)
  802b88:	10c00017 	ldw	r3,0(r2)
  802b8c:	e0bffb17 	ldw	r2,-20(fp)
  802b90:	10c00015 	stw	r3,0(r2)

  list->next->previous = entry;
  802b94:	e0bffa17 	ldw	r2,-24(fp)
  802b98:	10800017 	ldw	r2,0(r2)
  802b9c:	e0fffb17 	ldw	r3,-20(fp)
  802ba0:	10c00115 	stw	r3,4(r2)
  list->next           = entry;
  802ba4:	e0bffa17 	ldw	r2,-24(fp)
  802ba8:	e0fffb17 	ldw	r3,-20(fp)
  802bac:	10c00015 	stw	r3,0(r2)
  802bb0:	e0bff817 	ldw	r2,-32(fp)
  802bb4:	e0bff715 	stw	r2,-36(fp)
  status &= ~NIOS2_STATUS_PIE_MSK;
  status |= (context & NIOS2_STATUS_PIE_MSK);
  
  NIOS2_WRITE_STATUS (status);
#else
  NIOS2_WRITE_STATUS (context);
  802bb8:	e0bff717 	ldw	r2,-36(fp)
  802bbc:	1001703a 	wrctl	status,r2
      alt_irq_enable_all (irq_context);

      return 0;
  802bc0:	0005883a 	mov	r2,zero
  802bc4:	00000306 	br	802bd4 <alt_alarm_start+0x11c>
    }
    else
    {
      return -EINVAL;
  802bc8:	00bffa84 	movi	r2,-22
  802bcc:	00000106 	br	802bd4 <alt_alarm_start+0x11c>
    }
  }
  else
  {
    return -ENOTSUP;
  802bd0:	00bfde84 	movi	r2,-134
  }
}
  802bd4:	e037883a 	mov	sp,fp
  802bd8:	df000017 	ldw	fp,0(sp)
  802bdc:	dec00104 	addi	sp,sp,4
  802be0:	f800283a 	ret

00802be4 <alt_get_errno>:
#undef errno

extern int errno;

static ALT_INLINE int* alt_get_errno(void)
{
  802be4:	defffe04 	addi	sp,sp,-8
  802be8:	dfc00115 	stw	ra,4(sp)
  802bec:	df000015 	stw	fp,0(sp)
  802bf0:	d839883a 	mov	fp,sp
  return ((alt_errno) ? alt_errno() : &errno);
  802bf4:	d0a00617 	ldw	r2,-32744(gp)
  802bf8:	10000326 	beq	r2,zero,802c08 <alt_get_errno+0x24>
  802bfc:	d0a00617 	ldw	r2,-32744(gp)
  802c00:	103ee83a 	callr	r2
  802c04:	00000106 	br	802c0c <alt_get_errno+0x28>
  802c08:	d0a33804 	addi	r2,gp,-29472
}
  802c0c:	e037883a 	mov	sp,fp
  802c10:	dfc00117 	ldw	ra,4(sp)
  802c14:	df000017 	ldw	fp,0(sp)
  802c18:	dec00204 	addi	sp,sp,8
  802c1c:	f800283a 	ret

00802c20 <close>:
 *
 * ALT_CLOSE is mapped onto the close() system call in alt_syscall.h
 */
 
int ALT_CLOSE (int fildes)
{
  802c20:	defffb04 	addi	sp,sp,-20
  802c24:	dfc00415 	stw	ra,16(sp)
  802c28:	df000315 	stw	fp,12(sp)
  802c2c:	df000304 	addi	fp,sp,12
  802c30:	e13fff15 	stw	r4,-4(fp)
   * A common error case is that when the file descriptor was created, the call
   * to open() failed resulting in a negative file descriptor. This is trapped
   * below so that we don't try and process an invalid file descriptor.
   */

  fd = (fildes < 0) ? NULL : &alt_fd_list[fildes];
  802c34:	e0bfff17 	ldw	r2,-4(fp)
  802c38:	10000616 	blt	r2,zero,802c54 <close+0x34>
  802c3c:	e0bfff17 	ldw	r2,-4(fp)
  802c40:	10c00324 	muli	r3,r2,12
  802c44:	00802034 	movhi	r2,128
  802c48:	109b9c04 	addi	r2,r2,28272
  802c4c:	1885883a 	add	r2,r3,r2
  802c50:	00000106 	br	802c58 <close+0x38>
  802c54:	0005883a 	mov	r2,zero
  802c58:	e0bffd15 	stw	r2,-12(fp)

  if (fd)
  802c5c:	e0bffd17 	ldw	r2,-12(fp)
  802c60:	10001926 	beq	r2,zero,802cc8 <close+0xa8>
    /*
     * If the associated file system/device has a close function, call it so 
     * that any necessary cleanup code can run.
     */

    rval = (fd->dev->close) ? fd->dev->close(fd) : 0;
  802c64:	e0bffd17 	ldw	r2,-12(fp)
  802c68:	10800017 	ldw	r2,0(r2)
  802c6c:	10800417 	ldw	r2,16(r2)
  802c70:	10000626 	beq	r2,zero,802c8c <close+0x6c>
  802c74:	e0bffd17 	ldw	r2,-12(fp)
  802c78:	10800017 	ldw	r2,0(r2)
  802c7c:	10800417 	ldw	r2,16(r2)
  802c80:	e13ffd17 	ldw	r4,-12(fp)
  802c84:	103ee83a 	callr	r2
  802c88:	00000106 	br	802c90 <close+0x70>
  802c8c:	0005883a 	mov	r2,zero
  802c90:	e0bffe15 	stw	r2,-8(fp)

    /* Free the file descriptor structure and return. */

    alt_release_fd (fildes);
  802c94:	e13fff17 	ldw	r4,-4(fp)
  802c98:	08034dc0 	call	8034dc <alt_release_fd>
    if (rval < 0)
  802c9c:	e0bffe17 	ldw	r2,-8(fp)
  802ca0:	1000070e 	bge	r2,zero,802cc0 <close+0xa0>
    {
      ALT_ERRNO = -rval;
  802ca4:	0802be40 	call	802be4 <alt_get_errno>
  802ca8:	1007883a 	mov	r3,r2
  802cac:	e0bffe17 	ldw	r2,-8(fp)
  802cb0:	0085c83a 	sub	r2,zero,r2
  802cb4:	18800015 	stw	r2,0(r3)
      return -1;
  802cb8:	00bfffc4 	movi	r2,-1
  802cbc:	00000706 	br	802cdc <close+0xbc>
    }
    return 0;
  802cc0:	0005883a 	mov	r2,zero
  802cc4:	00000506 	br	802cdc <close+0xbc>
  }
  else
  {
    ALT_ERRNO = EBADFD;
  802cc8:	0802be40 	call	802be4 <alt_get_errno>
  802ccc:	1007883a 	mov	r3,r2
  802cd0:	00801444 	movi	r2,81
  802cd4:	18800015 	stw	r2,0(r3)
    return -1;
  802cd8:	00bfffc4 	movi	r2,-1
  }
}
  802cdc:	e037883a 	mov	sp,fp
  802ce0:	dfc00117 	ldw	ra,4(sp)
  802ce4:	df000017 	ldw	fp,0(sp)
  802ce8:	dec00204 	addi	sp,sp,8
  802cec:	f800283a 	ret

00802cf0 <alt_dcache_flush_all>:
/*
 * alt_dcache_flush_all() is called to flush the entire data cache.
 */

void alt_dcache_flush_all (void)
{
  802cf0:	defffe04 	addi	sp,sp,-8
  802cf4:	df000115 	stw	fp,4(sp)
  802cf8:	df000104 	addi	fp,sp,4
#if NIOS2_DCACHE_SIZE > 0
  char* i;
  
  for (i = (char*) 0; i < (char*) NIOS2_DCACHE_SIZE; i+= NIOS2_DCACHE_LINE_SIZE)
  802cfc:	e03fff15 	stw	zero,-4(fp)
  802d00:	00000506 	br	802d18 <alt_dcache_flush_all+0x28>
  { 
    __asm__ volatile ("flushd (%0)" :: "r" (i));
  802d04:	e0bfff17 	ldw	r2,-4(fp)
  802d08:	1000003b 	flushd	0(r2)
void alt_dcache_flush_all (void)
{
#if NIOS2_DCACHE_SIZE > 0
  char* i;
  
  for (i = (char*) 0; i < (char*) NIOS2_DCACHE_SIZE; i+= NIOS2_DCACHE_LINE_SIZE)
  802d0c:	e0bfff17 	ldw	r2,-4(fp)
  802d10:	10800804 	addi	r2,r2,32
  802d14:	e0bfff15 	stw	r2,-4(fp)
  802d18:	e0bfff17 	ldw	r2,-4(fp)
  802d1c:	10820030 	cmpltui	r2,r2,2048
  802d20:	103ff81e 	bne	r2,zero,802d04 <__alt_data_end+0xff802d04>
  { 
    __asm__ volatile ("flushd (%0)" :: "r" (i));
  }
#endif /* NIOS2_DCACHE_SIZE > 0 */
}
  802d24:	0001883a 	nop
  802d28:	e037883a 	mov	sp,fp
  802d2c:	df000017 	ldw	fp,0(sp)
  802d30:	dec00104 	addi	sp,sp,4
  802d34:	f800283a 	ret

00802d38 <alt_dev_null_write>:
 * by the alt_dev_null device. It simple discards all data passed to it, and
 * indicates that the data has been successfully transmitted.
 */

static int alt_dev_null_write (alt_fd* fd, const char* ptr, int len)
{
  802d38:	defffc04 	addi	sp,sp,-16
  802d3c:	df000315 	stw	fp,12(sp)
  802d40:	df000304 	addi	fp,sp,12
  802d44:	e13ffd15 	stw	r4,-12(fp)
  802d48:	e17ffe15 	stw	r5,-8(fp)
  802d4c:	e1bfff15 	stw	r6,-4(fp)
  return len;
  802d50:	e0bfff17 	ldw	r2,-4(fp)
}
  802d54:	e037883a 	mov	sp,fp
  802d58:	df000017 	ldw	fp,0(sp)
  802d5c:	dec00104 	addi	sp,sp,4
  802d60:	f800283a 	ret

00802d64 <alt_get_errno>:
#undef errno

extern int errno;

static ALT_INLINE int* alt_get_errno(void)
{
  802d64:	defffe04 	addi	sp,sp,-8
  802d68:	dfc00115 	stw	ra,4(sp)
  802d6c:	df000015 	stw	fp,0(sp)
  802d70:	d839883a 	mov	fp,sp
  return ((alt_errno) ? alt_errno() : &errno);
  802d74:	d0a00617 	ldw	r2,-32744(gp)
  802d78:	10000326 	beq	r2,zero,802d88 <alt_get_errno+0x24>
  802d7c:	d0a00617 	ldw	r2,-32744(gp)
  802d80:	103ee83a 	callr	r2
  802d84:	00000106 	br	802d8c <alt_get_errno+0x28>
  802d88:	d0a33804 	addi	r2,gp,-29472
}
  802d8c:	e037883a 	mov	sp,fp
  802d90:	dfc00117 	ldw	ra,4(sp)
  802d94:	df000017 	ldw	fp,0(sp)
  802d98:	dec00204 	addi	sp,sp,8
  802d9c:	f800283a 	ret

00802da0 <alt_dev_llist_insert>:
/*
 *
 */

int alt_dev_llist_insert (alt_dev_llist* dev, alt_llist* list)
{
  802da0:	defffa04 	addi	sp,sp,-24
  802da4:	dfc00515 	stw	ra,20(sp)
  802da8:	df000415 	stw	fp,16(sp)
  802dac:	df000404 	addi	fp,sp,16
  802db0:	e13ffe15 	stw	r4,-8(fp)
  802db4:	e17fff15 	stw	r5,-4(fp)
  /*
   * check that the device exists, and that it has a valid name.
   */

  if (!dev || !dev->name)
  802db8:	e0bffe17 	ldw	r2,-8(fp)
  802dbc:	10000326 	beq	r2,zero,802dcc <alt_dev_llist_insert+0x2c>
  802dc0:	e0bffe17 	ldw	r2,-8(fp)
  802dc4:	10800217 	ldw	r2,8(r2)
  802dc8:	1000061e 	bne	r2,zero,802de4 <alt_dev_llist_insert+0x44>
  {
    ALT_ERRNO = EINVAL;
  802dcc:	0802d640 	call	802d64 <alt_get_errno>
  802dd0:	1007883a 	mov	r3,r2
  802dd4:	00800584 	movi	r2,22
  802dd8:	18800015 	stw	r2,0(r3)
    return -EINVAL;
  802ddc:	00bffa84 	movi	r2,-22
  802de0:	00001306 	br	802e30 <alt_dev_llist_insert+0x90>
  
  /*
   * register the device.
   */
  
  alt_llist_insert(list, &dev->llist);
  802de4:	e0bffe17 	ldw	r2,-8(fp)
  802de8:	e0ffff17 	ldw	r3,-4(fp)
  802dec:	e0fffc15 	stw	r3,-16(fp)
  802df0:	e0bffd15 	stw	r2,-12(fp)
 */

static ALT_INLINE void ALT_ALWAYS_INLINE alt_llist_insert(alt_llist* list, 
                alt_llist* entry)
{
  entry->previous = list;
  802df4:	e0bffd17 	ldw	r2,-12(fp)
  802df8:	e0fffc17 	ldw	r3,-16(fp)
  802dfc:	10c00115 	stw	r3,4(r2)
  entry->next     = list->next;
  802e00:	e0bffc17 	ldw	r2,-16(fp)
  802e04:	10c00017 	ldw	r3,0(r2)
  802e08:	e0bffd17 	ldw	r2,-12(fp)
  802e0c:	10c00015 	stw	r3,0(r2)

  list->next->previous = entry;
  802e10:	e0bffc17 	ldw	r2,-16(fp)
  802e14:	10800017 	ldw	r2,0(r2)
  802e18:	e0fffd17 	ldw	r3,-12(fp)
  802e1c:	10c00115 	stw	r3,4(r2)
  list->next           = entry;
  802e20:	e0bffc17 	ldw	r2,-16(fp)
  802e24:	e0fffd17 	ldw	r3,-12(fp)
  802e28:	10c00015 	stw	r3,0(r2)

  return 0;  
  802e2c:	0005883a 	mov	r2,zero
}
  802e30:	e037883a 	mov	sp,fp
  802e34:	dfc00117 	ldw	ra,4(sp)
  802e38:	df000017 	ldw	fp,0(sp)
  802e3c:	dec00204 	addi	sp,sp,8
  802e40:	f800283a 	ret

00802e44 <_do_ctors>:
/*
 * Run the C++ static constructors.
 */

void _do_ctors(void)
{
  802e44:	defffd04 	addi	sp,sp,-12
  802e48:	dfc00215 	stw	ra,8(sp)
  802e4c:	df000115 	stw	fp,4(sp)
  802e50:	df000104 	addi	fp,sp,4
  constructor* ctor;

  for (ctor = &__CTOR_END__[-1]; ctor >= __CTOR_LIST__; ctor--)
  802e54:	00802034 	movhi	r2,128
  802e58:	109a2304 	addi	r2,r2,26764
  802e5c:	e0bfff15 	stw	r2,-4(fp)
  802e60:	00000606 	br	802e7c <_do_ctors+0x38>
        (*ctor) (); 
  802e64:	e0bfff17 	ldw	r2,-4(fp)
  802e68:	10800017 	ldw	r2,0(r2)
  802e6c:	103ee83a 	callr	r2

void _do_ctors(void)
{
  constructor* ctor;

  for (ctor = &__CTOR_END__[-1]; ctor >= __CTOR_LIST__; ctor--)
  802e70:	e0bfff17 	ldw	r2,-4(fp)
  802e74:	10bfff04 	addi	r2,r2,-4
  802e78:	e0bfff15 	stw	r2,-4(fp)
  802e7c:	e0ffff17 	ldw	r3,-4(fp)
  802e80:	00802034 	movhi	r2,128
  802e84:	109a2404 	addi	r2,r2,26768
  802e88:	18bff62e 	bgeu	r3,r2,802e64 <__alt_data_end+0xff802e64>
        (*ctor) (); 
}
  802e8c:	0001883a 	nop
  802e90:	e037883a 	mov	sp,fp
  802e94:	dfc00117 	ldw	ra,4(sp)
  802e98:	df000017 	ldw	fp,0(sp)
  802e9c:	dec00204 	addi	sp,sp,8
  802ea0:	f800283a 	ret

00802ea4 <_do_dtors>:
/*
 * Run the C++ static destructors.
 */

void _do_dtors(void)
{
  802ea4:	defffd04 	addi	sp,sp,-12
  802ea8:	dfc00215 	stw	ra,8(sp)
  802eac:	df000115 	stw	fp,4(sp)
  802eb0:	df000104 	addi	fp,sp,4
  destructor* dtor;

  for (dtor = &__DTOR_END__[-1]; dtor >= __DTOR_LIST__; dtor--)
  802eb4:	00802034 	movhi	r2,128
  802eb8:	109a2304 	addi	r2,r2,26764
  802ebc:	e0bfff15 	stw	r2,-4(fp)
  802ec0:	00000606 	br	802edc <_do_dtors+0x38>
        (*dtor) (); 
  802ec4:	e0bfff17 	ldw	r2,-4(fp)
  802ec8:	10800017 	ldw	r2,0(r2)
  802ecc:	103ee83a 	callr	r2

void _do_dtors(void)
{
  destructor* dtor;

  for (dtor = &__DTOR_END__[-1]; dtor >= __DTOR_LIST__; dtor--)
  802ed0:	e0bfff17 	ldw	r2,-4(fp)
  802ed4:	10bfff04 	addi	r2,r2,-4
  802ed8:	e0bfff15 	stw	r2,-4(fp)
  802edc:	e0ffff17 	ldw	r3,-4(fp)
  802ee0:	00802034 	movhi	r2,128
  802ee4:	109a2404 	addi	r2,r2,26768
  802ee8:	18bff62e 	bgeu	r3,r2,802ec4 <__alt_data_end+0xff802ec4>
        (*dtor) (); 
}
  802eec:	0001883a 	nop
  802ef0:	e037883a 	mov	sp,fp
  802ef4:	dfc00117 	ldw	ra,4(sp)
  802ef8:	df000017 	ldw	fp,0(sp)
  802efc:	dec00204 	addi	sp,sp,8
  802f00:	f800283a 	ret

00802f04 <alt_find_dev>:
 * "name" must be an exact match for the devices registered name for a match to
 * be found.
 */
 
alt_dev* alt_find_dev(const char* name, alt_llist* llist)
{
  802f04:	defffa04 	addi	sp,sp,-24
  802f08:	dfc00515 	stw	ra,20(sp)
  802f0c:	df000415 	stw	fp,16(sp)
  802f10:	df000404 	addi	fp,sp,16
  802f14:	e13ffe15 	stw	r4,-8(fp)
  802f18:	e17fff15 	stw	r5,-4(fp)
  alt_dev* next = (alt_dev*) llist->next;
  802f1c:	e0bfff17 	ldw	r2,-4(fp)
  802f20:	10800017 	ldw	r2,0(r2)
  802f24:	e0bffc15 	stw	r2,-16(fp)
  alt_32 len;

  len  = strlen(name) + 1;
  802f28:	e13ffe17 	ldw	r4,-8(fp)
  802f2c:	08040080 	call	804008 <strlen>
  802f30:	10800044 	addi	r2,r2,1
  802f34:	e0bffd15 	stw	r2,-12(fp)
  /*
   * Check each list entry in turn, until a match is found, or we reach the
   * end of the list (i.e. next winds up pointing back to the list head).
   */ 

  while (next != (alt_dev*) llist)
  802f38:	00000d06 	br	802f70 <alt_find_dev+0x6c>
    /* 
     * memcmp() is used here rather than strcmp() in order to reduce the size
     * of the executable.
     */

    if (!memcmp (next->name, name, len))
  802f3c:	e0bffc17 	ldw	r2,-16(fp)
  802f40:	10800217 	ldw	r2,8(r2)
  802f44:	e0fffd17 	ldw	r3,-12(fp)
  802f48:	180d883a 	mov	r6,r3
  802f4c:	e17ffe17 	ldw	r5,-8(fp)
  802f50:	1009883a 	mov	r4,r2
  802f54:	0803bb40 	call	803bb4 <memcmp>
  802f58:	1000021e 	bne	r2,zero,802f64 <alt_find_dev+0x60>
    {
      /* match found */

      return next;
  802f5c:	e0bffc17 	ldw	r2,-16(fp)
  802f60:	00000706 	br	802f80 <alt_find_dev+0x7c>
    }
    next = (alt_dev*) next->llist.next;
  802f64:	e0bffc17 	ldw	r2,-16(fp)
  802f68:	10800017 	ldw	r2,0(r2)
  802f6c:	e0bffc15 	stw	r2,-16(fp)
  /*
   * Check each list entry in turn, until a match is found, or we reach the
   * end of the list (i.e. next winds up pointing back to the list head).
   */ 

  while (next != (alt_dev*) llist)
  802f70:	e0fffc17 	ldw	r3,-16(fp)
  802f74:	e0bfff17 	ldw	r2,-4(fp)
  802f78:	18bff01e 	bne	r3,r2,802f3c <__alt_data_end+0xff802f3c>
    next = (alt_dev*) next->llist.next;
  }
  
  /* No match found */
  
  return NULL;
  802f7c:	0005883a 	mov	r2,zero
}
  802f80:	e037883a 	mov	sp,fp
  802f84:	dfc00117 	ldw	ra,4(sp)
  802f88:	df000017 	ldw	fp,0(sp)
  802f8c:	dec00204 	addi	sp,sp,8
  802f90:	f800283a 	ret

00802f94 <alt_icache_flush_all>:
/*
 * alt_icache_flush_all() is called to flush the entire instruction cache.
 */

void alt_icache_flush_all (void)
{
  802f94:	defffe04 	addi	sp,sp,-8
  802f98:	dfc00115 	stw	ra,4(sp)
  802f9c:	df000015 	stw	fp,0(sp)
  802fa0:	d839883a 	mov	fp,sp
#if NIOS2_ICACHE_SIZE > 0
  alt_icache_flush (0, NIOS2_ICACHE_SIZE);
  802fa4:	01440004 	movi	r5,4096
  802fa8:	0009883a 	mov	r4,zero
  802fac:	0803a3c0 	call	803a3c <alt_icache_flush>
#endif
}
  802fb0:	0001883a 	nop
  802fb4:	e037883a 	mov	sp,fp
  802fb8:	dfc00117 	ldw	ra,4(sp)
  802fbc:	df000017 	ldw	fp,0(sp)
  802fc0:	dec00204 	addi	sp,sp,8
  802fc4:	f800283a 	ret

00802fc8 <alt_open_fd>:
 * If the device can not be succesfully opened, then the input file descriptor
 * remains unchanged.
 */

static void alt_open_fd(alt_fd* fd, const char* name, int flags, int mode)
{
  802fc8:	defff904 	addi	sp,sp,-28
  802fcc:	dfc00615 	stw	ra,24(sp)
  802fd0:	df000515 	stw	fp,20(sp)
  802fd4:	df000504 	addi	fp,sp,20
  802fd8:	e13ffc15 	stw	r4,-16(fp)
  802fdc:	e17ffd15 	stw	r5,-12(fp)
  802fe0:	e1bffe15 	stw	r6,-8(fp)
  802fe4:	e1ffff15 	stw	r7,-4(fp)
  int old;

  old = open (name, flags, mode);
  802fe8:	e1bfff17 	ldw	r6,-4(fp)
  802fec:	e17ffe17 	ldw	r5,-8(fp)
  802ff0:	e13ffd17 	ldw	r4,-12(fp)
  802ff4:	08033880 	call	803388 <open>
  802ff8:	e0bffb15 	stw	r2,-20(fp)

  if (old >= 0)
  802ffc:	e0bffb17 	ldw	r2,-20(fp)
  803000:	10001c16 	blt	r2,zero,803074 <alt_open_fd+0xac>
  {
    fd->dev      = alt_fd_list[old].dev;
  803004:	00802034 	movhi	r2,128
  803008:	109b9c04 	addi	r2,r2,28272
  80300c:	e0fffb17 	ldw	r3,-20(fp)
  803010:	18c00324 	muli	r3,r3,12
  803014:	10c5883a 	add	r2,r2,r3
  803018:	10c00017 	ldw	r3,0(r2)
  80301c:	e0bffc17 	ldw	r2,-16(fp)
  803020:	10c00015 	stw	r3,0(r2)
    fd->priv     = alt_fd_list[old].priv;
  803024:	00802034 	movhi	r2,128
  803028:	109b9c04 	addi	r2,r2,28272
  80302c:	e0fffb17 	ldw	r3,-20(fp)
  803030:	18c00324 	muli	r3,r3,12
  803034:	10c5883a 	add	r2,r2,r3
  803038:	10800104 	addi	r2,r2,4
  80303c:	10c00017 	ldw	r3,0(r2)
  803040:	e0bffc17 	ldw	r2,-16(fp)
  803044:	10c00115 	stw	r3,4(r2)
    fd->fd_flags = alt_fd_list[old].fd_flags;
  803048:	00802034 	movhi	r2,128
  80304c:	109b9c04 	addi	r2,r2,28272
  803050:	e0fffb17 	ldw	r3,-20(fp)
  803054:	18c00324 	muli	r3,r3,12
  803058:	10c5883a 	add	r2,r2,r3
  80305c:	10800204 	addi	r2,r2,8
  803060:	10c00017 	ldw	r3,0(r2)
  803064:	e0bffc17 	ldw	r2,-16(fp)
  803068:	10c00215 	stw	r3,8(r2)

    alt_release_fd (old);
  80306c:	e13ffb17 	ldw	r4,-20(fp)
  803070:	08034dc0 	call	8034dc <alt_release_fd>
  }
} 
  803074:	0001883a 	nop
  803078:	e037883a 	mov	sp,fp
  80307c:	dfc00117 	ldw	ra,4(sp)
  803080:	df000017 	ldw	fp,0(sp)
  803084:	dec00204 	addi	sp,sp,8
  803088:	f800283a 	ret

0080308c <alt_io_redirect>:
 */
 
void alt_io_redirect(const char* stdout_dev, 
                     const char* stdin_dev, 
                     const char* stderr_dev)
{
  80308c:	defffb04 	addi	sp,sp,-20
  803090:	dfc00415 	stw	ra,16(sp)
  803094:	df000315 	stw	fp,12(sp)
  803098:	df000304 	addi	fp,sp,12
  80309c:	e13ffd15 	stw	r4,-12(fp)
  8030a0:	e17ffe15 	stw	r5,-8(fp)
  8030a4:	e1bfff15 	stw	r6,-4(fp)
  /* Redirect the channels */

  alt_open_fd (&alt_fd_list[STDOUT_FILENO], stdout_dev, O_WRONLY, 0777);
  8030a8:	01c07fc4 	movi	r7,511
  8030ac:	01800044 	movi	r6,1
  8030b0:	e17ffd17 	ldw	r5,-12(fp)
  8030b4:	01002034 	movhi	r4,128
  8030b8:	211b9f04 	addi	r4,r4,28284
  8030bc:	0802fc80 	call	802fc8 <alt_open_fd>
  alt_open_fd (&alt_fd_list[STDIN_FILENO], stdin_dev, O_RDONLY, 0777);
  8030c0:	01c07fc4 	movi	r7,511
  8030c4:	000d883a 	mov	r6,zero
  8030c8:	e17ffe17 	ldw	r5,-8(fp)
  8030cc:	01002034 	movhi	r4,128
  8030d0:	211b9c04 	addi	r4,r4,28272
  8030d4:	0802fc80 	call	802fc8 <alt_open_fd>
  alt_open_fd (&alt_fd_list[STDERR_FILENO], stderr_dev, O_WRONLY, 0777);
  8030d8:	01c07fc4 	movi	r7,511
  8030dc:	01800044 	movi	r6,1
  8030e0:	e17fff17 	ldw	r5,-4(fp)
  8030e4:	01002034 	movhi	r4,128
  8030e8:	211ba204 	addi	r4,r4,28296
  8030ec:	0802fc80 	call	802fc8 <alt_open_fd>
}  
  8030f0:	0001883a 	nop
  8030f4:	e037883a 	mov	sp,fp
  8030f8:	dfc00117 	ldw	ra,4(sp)
  8030fc:	df000017 	ldw	fp,0(sp)
  803100:	dec00204 	addi	sp,sp,8
  803104:	f800283a 	ret

00803108 <alt_irq_register>:
 */
 
int alt_irq_register (alt_u32 id, 
                      void* context, 
                      alt_isr_func handler)
{
  803108:	defff004 	addi	sp,sp,-64
  80310c:	df000f15 	stw	fp,60(sp)
  803110:	df000f04 	addi	fp,sp,60
  803114:	e13ffd15 	stw	r4,-12(fp)
  803118:	e17ffe15 	stw	r5,-8(fp)
  80311c:	e1bfff15 	stw	r6,-4(fp)
  int rc = -EINVAL;  
  803120:	00bffa84 	movi	r2,-22
  803124:	e0bff115 	stw	r2,-60(fp)
  alt_irq_context status;

  if (id < ALT_NIRQ)
  803128:	e0bffd17 	ldw	r2,-12(fp)
  80312c:	10800828 	cmpgeui	r2,r2,32
  803130:	1000501e 	bne	r2,zero,803274 <alt_irq_register+0x16c>
static ALT_INLINE alt_irq_context ALT_ALWAYS_INLINE 
       alt_irq_disable_all (void)
{
  alt_irq_context context;

  NIOS2_READ_STATUS (context);
  803134:	0005303a 	rdctl	r2,status
  803138:	e0bff615 	stw	r2,-40(fp)

  NIOS2_WRITE_STATUS (context & ~NIOS2_STATUS_PIE_MSK);
  80313c:	e0fff617 	ldw	r3,-40(fp)
  803140:	00bfff84 	movi	r2,-2
  803144:	1884703a 	and	r2,r3,r2
  803148:	1001703a 	wrctl	status,r2
  
  return context;
  80314c:	e0bff617 	ldw	r2,-40(fp)
     * interrupts are disabled while the handler tables are updated to ensure
     * that an interrupt doesn't occur while the tables are in an inconsistant
     * state.
     */

    status = alt_irq_disable_all ();
  803150:	e0bff315 	stw	r2,-52(fp)

    alt_irq[id].handler = handler;
  803154:	00802074 	movhi	r2,129
  803158:	10a14d04 	addi	r2,r2,-31436
  80315c:	e0fffd17 	ldw	r3,-12(fp)
  803160:	180690fa 	slli	r3,r3,3
  803164:	10c5883a 	add	r2,r2,r3
  803168:	e0ffff17 	ldw	r3,-4(fp)
  80316c:	10c00015 	stw	r3,0(r2)
    alt_irq[id].context = context;
  803170:	00802074 	movhi	r2,129
  803174:	10a14d04 	addi	r2,r2,-31436
  803178:	e0fffd17 	ldw	r3,-12(fp)
  80317c:	180690fa 	slli	r3,r3,3
  803180:	10c5883a 	add	r2,r2,r3
  803184:	10800104 	addi	r2,r2,4
  803188:	e0fffe17 	ldw	r3,-8(fp)
  80318c:	10c00015 	stw	r3,0(r2)

    rc = (handler) ? alt_irq_enable (id): alt_irq_disable (id);
  803190:	e0bfff17 	ldw	r2,-4(fp)
  803194:	10001926 	beq	r2,zero,8031fc <alt_irq_register+0xf4>
  803198:	e0bffd17 	ldw	r2,-12(fp)
  80319c:	e0bff215 	stw	r2,-56(fp)
static ALT_INLINE alt_irq_context ALT_ALWAYS_INLINE 
       alt_irq_disable_all (void)
{
  alt_irq_context context;

  NIOS2_READ_STATUS (context);
  8031a0:	0005303a 	rdctl	r2,status
  8031a4:	e0bff715 	stw	r2,-36(fp)

  NIOS2_WRITE_STATUS (context & ~NIOS2_STATUS_PIE_MSK);
  8031a8:	e0fff717 	ldw	r3,-36(fp)
  8031ac:	00bfff84 	movi	r2,-2
  8031b0:	1884703a 	and	r2,r3,r2
  8031b4:	1001703a 	wrctl	status,r2
  
  return context;
  8031b8:	e0bff717 	ldw	r2,-36(fp)
static ALT_INLINE int ALT_ALWAYS_INLINE alt_irq_enable (alt_u32 id)
{
  alt_irq_context  status;
  extern volatile alt_u32 alt_irq_active;

  status = alt_irq_disable_all ();
  8031bc:	e0bff815 	stw	r2,-32(fp)

  alt_irq_active |= (1 << id);
  8031c0:	00c00044 	movi	r3,1
  8031c4:	e0bff217 	ldw	r2,-56(fp)
  8031c8:	1884983a 	sll	r2,r3,r2
  8031cc:	1007883a 	mov	r3,r2
  8031d0:	d0a33417 	ldw	r2,-29488(gp)
  8031d4:	1884b03a 	or	r2,r3,r2
  8031d8:	d0a33415 	stw	r2,-29488(gp)
  NIOS2_WRITE_IENABLE (alt_irq_active);
  8031dc:	d0a33417 	ldw	r2,-29488(gp)
  8031e0:	100170fa 	wrctl	ienable,r2
  8031e4:	e0bff817 	ldw	r2,-32(fp)
  8031e8:	e0bff915 	stw	r2,-28(fp)
  status &= ~NIOS2_STATUS_PIE_MSK;
  status |= (context & NIOS2_STATUS_PIE_MSK);
  
  NIOS2_WRITE_STATUS (status);
#else
  NIOS2_WRITE_STATUS (context);
  8031ec:	e0bff917 	ldw	r2,-28(fp)
  8031f0:	1001703a 	wrctl	status,r2

  alt_irq_enable_all(status);

  return 0;
  8031f4:	0005883a 	mov	r2,zero
  8031f8:	00001906 	br	803260 <alt_irq_register+0x158>
  8031fc:	e0bffd17 	ldw	r2,-12(fp)
  803200:	e0bff415 	stw	r2,-48(fp)
static ALT_INLINE alt_irq_context ALT_ALWAYS_INLINE 
       alt_irq_disable_all (void)
{
  alt_irq_context context;

  NIOS2_READ_STATUS (context);
  803204:	0005303a 	rdctl	r2,status
  803208:	e0bffa15 	stw	r2,-24(fp)

  NIOS2_WRITE_STATUS (context & ~NIOS2_STATUS_PIE_MSK);
  80320c:	e0fffa17 	ldw	r3,-24(fp)
  803210:	00bfff84 	movi	r2,-2
  803214:	1884703a 	and	r2,r3,r2
  803218:	1001703a 	wrctl	status,r2
  
  return context;
  80321c:	e0bffa17 	ldw	r2,-24(fp)
static ALT_INLINE int ALT_ALWAYS_INLINE alt_irq_disable (alt_u32 id)
{
  alt_irq_context  status;
  extern volatile alt_u32 alt_irq_active;

  status = alt_irq_disable_all ();
  803220:	e0bffb15 	stw	r2,-20(fp)

  alt_irq_active &= ~(1 << id);
  803224:	00c00044 	movi	r3,1
  803228:	e0bff417 	ldw	r2,-48(fp)
  80322c:	1884983a 	sll	r2,r3,r2
  803230:	0084303a 	nor	r2,zero,r2
  803234:	1007883a 	mov	r3,r2
  803238:	d0a33417 	ldw	r2,-29488(gp)
  80323c:	1884703a 	and	r2,r3,r2
  803240:	d0a33415 	stw	r2,-29488(gp)
  NIOS2_WRITE_IENABLE (alt_irq_active);
  803244:	d0a33417 	ldw	r2,-29488(gp)
  803248:	100170fa 	wrctl	ienable,r2
  80324c:	e0bffb17 	ldw	r2,-20(fp)
  803250:	e0bffc15 	stw	r2,-16(fp)
  status &= ~NIOS2_STATUS_PIE_MSK;
  status |= (context & NIOS2_STATUS_PIE_MSK);
  
  NIOS2_WRITE_STATUS (status);
#else
  NIOS2_WRITE_STATUS (context);
  803254:	e0bffc17 	ldw	r2,-16(fp)
  803258:	1001703a 	wrctl	status,r2

  alt_irq_enable_all(status);

  return 0;
  80325c:	0005883a 	mov	r2,zero
  803260:	e0bff115 	stw	r2,-60(fp)
  803264:	e0bff317 	ldw	r2,-52(fp)
  803268:	e0bff515 	stw	r2,-44(fp)
  80326c:	e0bff517 	ldw	r2,-44(fp)
  803270:	1001703a 	wrctl	status,r2

    alt_irq_enable_all(status);
  }
  return rc; 
  803274:	e0bff117 	ldw	r2,-60(fp)
}
  803278:	e037883a 	mov	sp,fp
  80327c:	df000017 	ldw	fp,0(sp)
  803280:	dec00104 	addi	sp,sp,4
  803284:	f800283a 	ret

00803288 <alt_get_errno>:
#undef errno

extern int errno;

static ALT_INLINE int* alt_get_errno(void)
{
  803288:	defffe04 	addi	sp,sp,-8
  80328c:	dfc00115 	stw	ra,4(sp)
  803290:	df000015 	stw	fp,0(sp)
  803294:	d839883a 	mov	fp,sp
  return ((alt_errno) ? alt_errno() : &errno);
  803298:	d0a00617 	ldw	r2,-32744(gp)
  80329c:	10000326 	beq	r2,zero,8032ac <alt_get_errno+0x24>
  8032a0:	d0a00617 	ldw	r2,-32744(gp)
  8032a4:	103ee83a 	callr	r2
  8032a8:	00000106 	br	8032b0 <alt_get_errno+0x28>
  8032ac:	d0a33804 	addi	r2,gp,-29472
}
  8032b0:	e037883a 	mov	sp,fp
  8032b4:	dfc00117 	ldw	ra,4(sp)
  8032b8:	df000017 	ldw	fp,0(sp)
  8032bc:	dec00204 	addi	sp,sp,8
  8032c0:	f800283a 	ret

008032c4 <alt_file_locked>:
 * performed for devices. Filesystems are required to handle the ioctl() call
 * themselves, and report the error from the filesystems open() function. 
 */ 

static int alt_file_locked (alt_fd* fd)
{
  8032c4:	defffd04 	addi	sp,sp,-12
  8032c8:	df000215 	stw	fp,8(sp)
  8032cc:	df000204 	addi	fp,sp,8
  8032d0:	e13fff15 	stw	r4,-4(fp)

  /*
   * Mark the file descriptor as belonging to a device.
   */

  fd->fd_flags |= ALT_FD_DEV;
  8032d4:	e0bfff17 	ldw	r2,-4(fp)
  8032d8:	10800217 	ldw	r2,8(r2)
  8032dc:	10d00034 	orhi	r3,r2,16384
  8032e0:	e0bfff17 	ldw	r2,-4(fp)
  8032e4:	10c00215 	stw	r3,8(r2)
  /*
   * Loop through all current file descriptors searching for one that's locked
   * for exclusive access. If a match is found, generate an error.
   */

  for (i = 0; i <= alt_max_fd; i++)
  8032e8:	e03ffe15 	stw	zero,-8(fp)
  8032ec:	00001d06 	br	803364 <alt_file_locked+0xa0>
  {
    if ((alt_fd_list[i].dev == fd->dev) &&
  8032f0:	00802034 	movhi	r2,128
  8032f4:	109b9c04 	addi	r2,r2,28272
  8032f8:	e0fffe17 	ldw	r3,-8(fp)
  8032fc:	18c00324 	muli	r3,r3,12
  803300:	10c5883a 	add	r2,r2,r3
  803304:	10c00017 	ldw	r3,0(r2)
  803308:	e0bfff17 	ldw	r2,-4(fp)
  80330c:	10800017 	ldw	r2,0(r2)
  803310:	1880111e 	bne	r3,r2,803358 <alt_file_locked+0x94>
        (alt_fd_list[i].fd_flags & ALT_FD_EXCL) &&
  803314:	00802034 	movhi	r2,128
  803318:	109b9c04 	addi	r2,r2,28272
  80331c:	e0fffe17 	ldw	r3,-8(fp)
  803320:	18c00324 	muli	r3,r3,12
  803324:	10c5883a 	add	r2,r2,r3
  803328:	10800204 	addi	r2,r2,8
  80332c:	10800017 	ldw	r2,0(r2)
   * for exclusive access. If a match is found, generate an error.
   */

  for (i = 0; i <= alt_max_fd; i++)
  {
    if ((alt_fd_list[i].dev == fd->dev) &&
  803330:	1000090e 	bge	r2,zero,803358 <alt_file_locked+0x94>
        (alt_fd_list[i].fd_flags & ALT_FD_EXCL) &&
        (&alt_fd_list[i] != fd))
  803334:	e0bffe17 	ldw	r2,-8(fp)
  803338:	10c00324 	muli	r3,r2,12
  80333c:	00802034 	movhi	r2,128
  803340:	109b9c04 	addi	r2,r2,28272
  803344:	1887883a 	add	r3,r3,r2
   */

  for (i = 0; i <= alt_max_fd; i++)
  {
    if ((alt_fd_list[i].dev == fd->dev) &&
        (alt_fd_list[i].fd_flags & ALT_FD_EXCL) &&
  803348:	e0bfff17 	ldw	r2,-4(fp)
  80334c:	18800226 	beq	r3,r2,803358 <alt_file_locked+0x94>
        (&alt_fd_list[i] != fd))
    {
      return -EACCES;
  803350:	00bffcc4 	movi	r2,-13
  803354:	00000806 	br	803378 <alt_file_locked+0xb4>
  /*
   * Loop through all current file descriptors searching for one that's locked
   * for exclusive access. If a match is found, generate an error.
   */

  for (i = 0; i <= alt_max_fd; i++)
  803358:	e0bffe17 	ldw	r2,-8(fp)
  80335c:	10800044 	addi	r2,r2,1
  803360:	e0bffe15 	stw	r2,-8(fp)
  803364:	d0a00517 	ldw	r2,-32748(gp)
  803368:	1007883a 	mov	r3,r2
  80336c:	e0bffe17 	ldw	r2,-8(fp)
  803370:	18bfdf2e 	bgeu	r3,r2,8032f0 <__alt_data_end+0xff8032f0>
    }
  }
  
  /* The device is not locked */
 
  return 0;
  803374:	0005883a 	mov	r2,zero
}
  803378:	e037883a 	mov	sp,fp
  80337c:	df000017 	ldw	fp,0(sp)
  803380:	dec00104 	addi	sp,sp,4
  803384:	f800283a 	ret

00803388 <open>:
 *
 * ALT_OPEN is mapped onto the open() system call in alt_syscall.h
 */
 
int ALT_OPEN (const char* file, int flags, int mode)
{ 
  803388:	defff604 	addi	sp,sp,-40
  80338c:	dfc00915 	stw	ra,36(sp)
  803390:	df000815 	stw	fp,32(sp)
  803394:	df000804 	addi	fp,sp,32
  803398:	e13ffd15 	stw	r4,-12(fp)
  80339c:	e17ffe15 	stw	r5,-8(fp)
  8033a0:	e1bfff15 	stw	r6,-4(fp)
  alt_dev* dev;
  alt_fd*  fd;
  int index  = -1;
  8033a4:	00bfffc4 	movi	r2,-1
  8033a8:	e0bff915 	stw	r2,-28(fp)
  int status = -ENODEV;
  8033ac:	00bffb44 	movi	r2,-19
  8033b0:	e0bffa15 	stw	r2,-24(fp)
  int isafs = 0;
  8033b4:	e03ffb15 	stw	zero,-20(fp)
  /* 
   * Check the device list, to see if a device with a matching name is 
   * registered.
   */
  
  if (!(dev = alt_find_dev (file, &alt_dev_list)))
  8033b8:	d1600304 	addi	r5,gp,-32756
  8033bc:	e13ffd17 	ldw	r4,-12(fp)
  8033c0:	0802f040 	call	802f04 <alt_find_dev>
  8033c4:	e0bff815 	stw	r2,-32(fp)
  8033c8:	e0bff817 	ldw	r2,-32(fp)
  8033cc:	1000051e 	bne	r2,zero,8033e4 <open+0x5c>
  {
    /* No matching device, so try the filesystem list */

    dev   = alt_find_file (file);
  8033d0:	e13ffd17 	ldw	r4,-12(fp)
  8033d4:	08038900 	call	803890 <alt_find_file>
  8033d8:	e0bff815 	stw	r2,-32(fp)
    isafs = 1;
  8033dc:	00800044 	movi	r2,1
  8033e0:	e0bffb15 	stw	r2,-20(fp)

  /* 
   * If a matching device or filesystem is found, allocate a file descriptor. 
   */

  if (dev)
  8033e4:	e0bff817 	ldw	r2,-32(fp)
  8033e8:	10002926 	beq	r2,zero,803490 <open+0x108>
  {
    if ((index = alt_get_fd (dev)) < 0)
  8033ec:	e13ff817 	ldw	r4,-32(fp)
  8033f0:	08039980 	call	803998 <alt_get_fd>
  8033f4:	e0bff915 	stw	r2,-28(fp)
  8033f8:	e0bff917 	ldw	r2,-28(fp)
  8033fc:	1000030e 	bge	r2,zero,80340c <open+0x84>
    {
      status = index;
  803400:	e0bff917 	ldw	r2,-28(fp)
  803404:	e0bffa15 	stw	r2,-24(fp)
  803408:	00002306 	br	803498 <open+0x110>
    }
    else
    {
      fd = &alt_fd_list[index];
  80340c:	e0bff917 	ldw	r2,-28(fp)
  803410:	10c00324 	muli	r3,r2,12
  803414:	00802034 	movhi	r2,128
  803418:	109b9c04 	addi	r2,r2,28272
  80341c:	1885883a 	add	r2,r3,r2
  803420:	e0bffc15 	stw	r2,-16(fp)
      fd->fd_flags = (flags & ~ALT_FD_FLAGS_MASK);
  803424:	e0fffe17 	ldw	r3,-8(fp)
  803428:	00900034 	movhi	r2,16384
  80342c:	10bfffc4 	addi	r2,r2,-1
  803430:	1886703a 	and	r3,r3,r2
  803434:	e0bffc17 	ldw	r2,-16(fp)
  803438:	10c00215 	stw	r3,8(r2)
      
      /* If this is a device, ensure it isn't already locked */

      if (isafs || ((status = alt_file_locked (fd)) >= 0))
  80343c:	e0bffb17 	ldw	r2,-20(fp)
  803440:	1000051e 	bne	r2,zero,803458 <open+0xd0>
  803444:	e13ffc17 	ldw	r4,-16(fp)
  803448:	08032c40 	call	8032c4 <alt_file_locked>
  80344c:	e0bffa15 	stw	r2,-24(fp)
  803450:	e0bffa17 	ldw	r2,-24(fp)
  803454:	10001016 	blt	r2,zero,803498 <open+0x110>
        /* 
         * If the device or filesystem provides an open() callback function,
         * call it now to perform any device/filesystem specific operations.
         */
    
        status = (dev->open) ? dev->open(fd, file, flags, mode): 0;
  803458:	e0bff817 	ldw	r2,-32(fp)
  80345c:	10800317 	ldw	r2,12(r2)
  803460:	10000826 	beq	r2,zero,803484 <open+0xfc>
  803464:	e0bff817 	ldw	r2,-32(fp)
  803468:	10800317 	ldw	r2,12(r2)
  80346c:	e1ffff17 	ldw	r7,-4(fp)
  803470:	e1bffe17 	ldw	r6,-8(fp)
  803474:	e17ffd17 	ldw	r5,-12(fp)
  803478:	e13ffc17 	ldw	r4,-16(fp)
  80347c:	103ee83a 	callr	r2
  803480:	00000106 	br	803488 <open+0x100>
  803484:	0005883a 	mov	r2,zero
  803488:	e0bffa15 	stw	r2,-24(fp)
  80348c:	00000206 	br	803498 <open+0x110>
      }
    }
  }
  else
  {
    status = -ENODEV;
  803490:	00bffb44 	movi	r2,-19
  803494:	e0bffa15 	stw	r2,-24(fp)
  }

  /* Allocation failed, so clean up and return an error */ 

  if (status < 0)
  803498:	e0bffa17 	ldw	r2,-24(fp)
  80349c:	1000090e 	bge	r2,zero,8034c4 <open+0x13c>
  {
    alt_release_fd (index);  
  8034a0:	e13ff917 	ldw	r4,-28(fp)
  8034a4:	08034dc0 	call	8034dc <alt_release_fd>
    ALT_ERRNO = -status;
  8034a8:	08032880 	call	803288 <alt_get_errno>
  8034ac:	1007883a 	mov	r3,r2
  8034b0:	e0bffa17 	ldw	r2,-24(fp)
  8034b4:	0085c83a 	sub	r2,zero,r2
  8034b8:	18800015 	stw	r2,0(r3)
    return -1;
  8034bc:	00bfffc4 	movi	r2,-1
  8034c0:	00000106 	br	8034c8 <open+0x140>
  }
  
  /* return the reference upon success */

  return index;
  8034c4:	e0bff917 	ldw	r2,-28(fp)
}
  8034c8:	e037883a 	mov	sp,fp
  8034cc:	dfc00117 	ldw	ra,4(sp)
  8034d0:	df000017 	ldw	fp,0(sp)
  8034d4:	dec00204 	addi	sp,sp,8
  8034d8:	f800283a 	ret

008034dc <alt_release_fd>:
 * File descriptors correcponding to standard in, standard out and standard 
 * error cannont be released backed to the pool. They are always reserved.
 */

void alt_release_fd (int fd)
{
  8034dc:	defffe04 	addi	sp,sp,-8
  8034e0:	df000115 	stw	fp,4(sp)
  8034e4:	df000104 	addi	fp,sp,4
  8034e8:	e13fff15 	stw	r4,-4(fp)
  if (fd > 2)
  8034ec:	e0bfff17 	ldw	r2,-4(fp)
  8034f0:	108000d0 	cmplti	r2,r2,3
  8034f4:	10000d1e 	bne	r2,zero,80352c <alt_release_fd+0x50>
  {
    alt_fd_list[fd].fd_flags = 0;
  8034f8:	00802034 	movhi	r2,128
  8034fc:	109b9c04 	addi	r2,r2,28272
  803500:	e0ffff17 	ldw	r3,-4(fp)
  803504:	18c00324 	muli	r3,r3,12
  803508:	10c5883a 	add	r2,r2,r3
  80350c:	10800204 	addi	r2,r2,8
  803510:	10000015 	stw	zero,0(r2)
    alt_fd_list[fd].dev      = 0;
  803514:	00802034 	movhi	r2,128
  803518:	109b9c04 	addi	r2,r2,28272
  80351c:	e0ffff17 	ldw	r3,-4(fp)
  803520:	18c00324 	muli	r3,r3,12
  803524:	10c5883a 	add	r2,r2,r3
  803528:	10000015 	stw	zero,0(r2)
  }
}
  80352c:	0001883a 	nop
  803530:	e037883a 	mov	sp,fp
  803534:	df000017 	ldw	fp,0(sp)
  803538:	dec00104 	addi	sp,sp,4
  80353c:	f800283a 	ret

00803540 <alt_alarm_stop>:
 * alarms. Alternatively an alarm can unregister itself by returning zero when 
 * the alarm executes.
 */

void alt_alarm_stop (alt_alarm* alarm)
{
  803540:	defffa04 	addi	sp,sp,-24
  803544:	df000515 	stw	fp,20(sp)
  803548:	df000504 	addi	fp,sp,20
  80354c:	e13fff15 	stw	r4,-4(fp)
static ALT_INLINE alt_irq_context ALT_ALWAYS_INLINE 
       alt_irq_disable_all (void)
{
  alt_irq_context context;

  NIOS2_READ_STATUS (context);
  803550:	0005303a 	rdctl	r2,status
  803554:	e0bffc15 	stw	r2,-16(fp)

  NIOS2_WRITE_STATUS (context & ~NIOS2_STATUS_PIE_MSK);
  803558:	e0fffc17 	ldw	r3,-16(fp)
  80355c:	00bfff84 	movi	r2,-2
  803560:	1884703a 	and	r2,r3,r2
  803564:	1001703a 	wrctl	status,r2
  
  return context;
  803568:	e0bffc17 	ldw	r2,-16(fp)
  alt_irq_context irq_context;

  irq_context = alt_irq_disable_all();
  80356c:	e0bffb15 	stw	r2,-20(fp)
  alt_llist_remove (&alarm->llist);
  803570:	e0bfff17 	ldw	r2,-4(fp)
  803574:	e0bffd15 	stw	r2,-12(fp)
 * input argument is the element to remove.
 */
     
static ALT_INLINE void ALT_ALWAYS_INLINE alt_llist_remove(alt_llist* entry)
{
  entry->next->previous = entry->previous;
  803578:	e0bffd17 	ldw	r2,-12(fp)
  80357c:	10800017 	ldw	r2,0(r2)
  803580:	e0fffd17 	ldw	r3,-12(fp)
  803584:	18c00117 	ldw	r3,4(r3)
  803588:	10c00115 	stw	r3,4(r2)
  entry->previous->next = entry->next;
  80358c:	e0bffd17 	ldw	r2,-12(fp)
  803590:	10800117 	ldw	r2,4(r2)
  803594:	e0fffd17 	ldw	r3,-12(fp)
  803598:	18c00017 	ldw	r3,0(r3)
  80359c:	10c00015 	stw	r3,0(r2)
  /* 
   * Set the entry to point to itself, so that any further calls to
   * alt_llist_remove() are harmless.
   */

  entry->previous = entry;
  8035a0:	e0bffd17 	ldw	r2,-12(fp)
  8035a4:	e0fffd17 	ldw	r3,-12(fp)
  8035a8:	10c00115 	stw	r3,4(r2)
  entry->next     = entry;
  8035ac:	e0bffd17 	ldw	r2,-12(fp)
  8035b0:	e0fffd17 	ldw	r3,-12(fp)
  8035b4:	10c00015 	stw	r3,0(r2)
  8035b8:	e0bffb17 	ldw	r2,-20(fp)
  8035bc:	e0bffe15 	stw	r2,-8(fp)
  status &= ~NIOS2_STATUS_PIE_MSK;
  status |= (context & NIOS2_STATUS_PIE_MSK);
  
  NIOS2_WRITE_STATUS (status);
#else
  NIOS2_WRITE_STATUS (context);
  8035c0:	e0bffe17 	ldw	r2,-8(fp)
  8035c4:	1001703a 	wrctl	status,r2
  alt_irq_enable_all (irq_context);
}
  8035c8:	0001883a 	nop
  8035cc:	e037883a 	mov	sp,fp
  8035d0:	df000017 	ldw	fp,0(sp)
  8035d4:	dec00104 	addi	sp,sp,4
  8035d8:	f800283a 	ret

008035dc <alt_tick>:
 * 
 * alt_tick() is expected to run at interrupt level.
 */

void alt_tick (void)
{
  8035dc:	defffb04 	addi	sp,sp,-20
  8035e0:	dfc00415 	stw	ra,16(sp)
  8035e4:	df000315 	stw	fp,12(sp)
  8035e8:	df000304 	addi	fp,sp,12
  alt_alarm* next;
  alt_alarm* alarm = (alt_alarm*) alt_alarm_list.next;
  8035ec:	d0a00817 	ldw	r2,-32736(gp)
  8035f0:	e0bffd15 	stw	r2,-12(fp)

  alt_u32    next_callback;

  /* update the tick counter */

  _alt_nticks++;
  8035f4:	d0a33617 	ldw	r2,-29480(gp)
  8035f8:	10800044 	addi	r2,r2,1
  8035fc:	d0a33615 	stw	r2,-29480(gp)

  /* process the registered callbacks */

  while (alarm != (alt_alarm*) &alt_alarm_list)
  803600:	00002e06 	br	8036bc <alt_tick+0xe0>
  {
    next = (alt_alarm*) alarm->llist.next;
  803604:	e0bffd17 	ldw	r2,-12(fp)
  803608:	10800017 	ldw	r2,0(r2)
  80360c:	e0bffe15 	stw	r2,-8(fp)
    /* 
     * Upon the tick-counter rolling over it is safe to clear the 
     * roll-over flag; once the flag is cleared this (or subsequnt)
     * tick events are enabled to generate an alarm event. 
     */
    if ((alarm->rollover) && (_alt_nticks == 0))
  803610:	e0bffd17 	ldw	r2,-12(fp)
  803614:	10800403 	ldbu	r2,16(r2)
  803618:	10803fcc 	andi	r2,r2,255
  80361c:	10000426 	beq	r2,zero,803630 <alt_tick+0x54>
  803620:	d0a33617 	ldw	r2,-29480(gp)
  803624:	1000021e 	bne	r2,zero,803630 <alt_tick+0x54>
    {
      alarm->rollover = 0;
  803628:	e0bffd17 	ldw	r2,-12(fp)
  80362c:	10000405 	stb	zero,16(r2)
    }
    
    /* if the alarm period has expired, make the callback */    
    if ((alarm->time <= _alt_nticks) && (alarm->rollover == 0))
  803630:	e0bffd17 	ldw	r2,-12(fp)
  803634:	10800217 	ldw	r2,8(r2)
  803638:	d0e33617 	ldw	r3,-29480(gp)
  80363c:	18801d36 	bltu	r3,r2,8036b4 <alt_tick+0xd8>
  803640:	e0bffd17 	ldw	r2,-12(fp)
  803644:	10800403 	ldbu	r2,16(r2)
  803648:	10803fcc 	andi	r2,r2,255
  80364c:	1000191e 	bne	r2,zero,8036b4 <alt_tick+0xd8>
    {
      next_callback = alarm->callback (alarm->context);
  803650:	e0bffd17 	ldw	r2,-12(fp)
  803654:	10800317 	ldw	r2,12(r2)
  803658:	e0fffd17 	ldw	r3,-12(fp)
  80365c:	18c00517 	ldw	r3,20(r3)
  803660:	1809883a 	mov	r4,r3
  803664:	103ee83a 	callr	r2
  803668:	e0bfff15 	stw	r2,-4(fp)

      /* deactivate the alarm if the return value is zero */

      if (next_callback == 0)
  80366c:	e0bfff17 	ldw	r2,-4(fp)
  803670:	1000031e 	bne	r2,zero,803680 <alt_tick+0xa4>
      {
        alt_alarm_stop (alarm);
  803674:	e13ffd17 	ldw	r4,-12(fp)
  803678:	08035400 	call	803540 <alt_alarm_stop>
  80367c:	00000d06 	br	8036b4 <alt_tick+0xd8>
      }
      else
      {
        alarm->time += next_callback;
  803680:	e0bffd17 	ldw	r2,-12(fp)
  803684:	10c00217 	ldw	r3,8(r2)
  803688:	e0bfff17 	ldw	r2,-4(fp)
  80368c:	1887883a 	add	r3,r3,r2
  803690:	e0bffd17 	ldw	r2,-12(fp)
  803694:	10c00215 	stw	r3,8(r2)
        /* 
         * If the desired alarm time causes a roll-over, set the rollover
         * flag. This will prevent the subsequent tick event from causing
         * an alarm too early.
         */
        if(alarm->time < _alt_nticks)
  803698:	e0bffd17 	ldw	r2,-12(fp)
  80369c:	10c00217 	ldw	r3,8(r2)
  8036a0:	d0a33617 	ldw	r2,-29480(gp)
  8036a4:	1880032e 	bgeu	r3,r2,8036b4 <alt_tick+0xd8>
        {
          alarm->rollover = 1;
  8036a8:	e0bffd17 	ldw	r2,-12(fp)
  8036ac:	00c00044 	movi	r3,1
  8036b0:	10c00405 	stb	r3,16(r2)
        }
      }
    }
    alarm = next;
  8036b4:	e0bffe17 	ldw	r2,-8(fp)
  8036b8:	e0bffd15 	stw	r2,-12(fp)

  _alt_nticks++;

  /* process the registered callbacks */

  while (alarm != (alt_alarm*) &alt_alarm_list)
  8036bc:	e0fffd17 	ldw	r3,-12(fp)
  8036c0:	d0a00804 	addi	r2,gp,-32736
  8036c4:	18bfcf1e 	bne	r3,r2,803604 <__alt_data_end+0xff803604>

  /* 
   * Update the operating system specific timer facilities.
   */

  ALT_OS_TIME_TICK();
  8036c8:	0001883a 	nop
}
  8036cc:	0001883a 	nop
  8036d0:	e037883a 	mov	sp,fp
  8036d4:	dfc00117 	ldw	ra,4(sp)
  8036d8:	df000017 	ldw	fp,0(sp)
  8036dc:	dec00204 	addi	sp,sp,8
  8036e0:	f800283a 	ret

008036e4 <usleep>:
#if defined (__GNUC__) && __GNUC__ >= 4
int ALT_USLEEP (useconds_t us)
#else
unsigned int ALT_USLEEP (unsigned int us)
#endif
{
  8036e4:	defffd04 	addi	sp,sp,-12
  8036e8:	dfc00215 	stw	ra,8(sp)
  8036ec:	df000115 	stw	fp,4(sp)
  8036f0:	df000104 	addi	fp,sp,4
  8036f4:	e13fff15 	stw	r4,-4(fp)
  return alt_busy_sleep(us);
  8036f8:	e13fff17 	ldw	r4,-4(fp)
  8036fc:	08037380 	call	803738 <alt_busy_sleep>
}
  803700:	e037883a 	mov	sp,fp
  803704:	dfc00117 	ldw	ra,4(sp)
  803708:	df000017 	ldw	fp,0(sp)
  80370c:	dec00204 	addi	sp,sp,8
  803710:	f800283a 	ret

00803714 <altera_nios2_gen2_irq_init>:
/*
 * To initialize the internal interrupt controller, just clear the IENABLE
 * register so that all possible IRQs are disabled.
 */
void altera_nios2_gen2_irq_init(void) 
{
  803714:	deffff04 	addi	sp,sp,-4
  803718:	df000015 	stw	fp,0(sp)
  80371c:	d839883a 	mov	fp,sp
    NIOS2_WRITE_IENABLE(0);
  803720:	000170fa 	wrctl	ienable,zero
}
  803724:	0001883a 	nop
  803728:	e037883a 	mov	sp,fp
  80372c:	df000017 	ldw	fp,0(sp)
  803730:	dec00104 	addi	sp,sp,4
  803734:	f800283a 	ret

00803738 <alt_busy_sleep>:
#include "alt_types.h"

#include "priv/alt_busy_sleep.h"

unsigned int alt_busy_sleep (unsigned int us)
{
  803738:	defffa04 	addi	sp,sp,-24
  80373c:	dfc00515 	stw	ra,20(sp)
  803740:	df000415 	stw	fp,16(sp)
  803744:	df000404 	addi	fp,sp,16
  803748:	e13fff15 	stw	r4,-4(fp)
  {
    cycles_per_loop = 9;
  }
  else  
  {
    cycles_per_loop = 3;
  80374c:	008000c4 	movi	r2,3
  803750:	e0bffd15 	stw	r2,-12(fp)
  }
  

  big_loops = us / (INT_MAX/
  (ALT_CPU_FREQ/(cycles_per_loop * 1000000)));
  803754:	e0fffd17 	ldw	r3,-12(fp)
  803758:	008003f4 	movhi	r2,15
  80375c:	10909004 	addi	r2,r2,16960
  803760:	1885383a 	mul	r2,r3,r2
  803764:	100b883a 	mov	r5,r2
  803768:	0100bef4 	movhi	r4,763
  80376c:	213c2004 	addi	r4,r4,-3968
  803770:	08061600 	call	806160 <__udivsi3>
  {
    cycles_per_loop = 3;
  }
  

  big_loops = us / (INT_MAX/
  803774:	100b883a 	mov	r5,r2
  803778:	01200034 	movhi	r4,32768
  80377c:	213fffc4 	addi	r4,r4,-1
  803780:	08061600 	call	806160 <__udivsi3>
  803784:	100b883a 	mov	r5,r2
  803788:	e13fff17 	ldw	r4,-4(fp)
  80378c:	08061600 	call	806160 <__udivsi3>
  803790:	e0bffe15 	stw	r2,-8(fp)
  (ALT_CPU_FREQ/(cycles_per_loop * 1000000)));

  if (big_loops)
  803794:	e0bffe17 	ldw	r2,-8(fp)
  803798:	10002a26 	beq	r2,zero,803844 <alt_busy_sleep+0x10c>
  {
    for(i=0;i<big_loops;i++)
  80379c:	e03ffc15 	stw	zero,-16(fp)
  8037a0:	00001706 	br	803800 <alt_busy_sleep+0xc8>
      /*
      * Do NOT Try to single step the asm statement below 
      * (single step will never return)
      * Step out of this function or set a breakpoint after the asm statements
      */
      __asm__ volatile (
  8037a4:	00a00034 	movhi	r2,32768
  8037a8:	10bfffc4 	addi	r2,r2,-1
  8037ac:	10bfffc4 	addi	r2,r2,-1
  8037b0:	103ffe1e 	bne	r2,zero,8037ac <__alt_data_end+0xff8037ac>
        "\n\t.pushsection .debug_alt_sim_info"
        "\n\t.int 4, 0, 0b, 1b"
        "\n\t.popsection"
        :: "r" (INT_MAX));
      us -= (INT_MAX/(ALT_CPU_FREQ/
      (cycles_per_loop * 1000000)));
  8037b4:	e0fffd17 	ldw	r3,-12(fp)
  8037b8:	008003f4 	movhi	r2,15
  8037bc:	10909004 	addi	r2,r2,16960
  8037c0:	1885383a 	mul	r2,r3,r2
        "\n1:"
        "\n\t.pushsection .debug_alt_sim_info"
        "\n\t.int 4, 0, 0b, 1b"
        "\n\t.popsection"
        :: "r" (INT_MAX));
      us -= (INT_MAX/(ALT_CPU_FREQ/
  8037c4:	100b883a 	mov	r5,r2
  8037c8:	0100bef4 	movhi	r4,763
  8037cc:	213c2004 	addi	r4,r4,-3968
  8037d0:	08061600 	call	806160 <__udivsi3>
  8037d4:	100b883a 	mov	r5,r2
  8037d8:	01200034 	movhi	r4,32768
  8037dc:	213fffc4 	addi	r4,r4,-1
  8037e0:	08061600 	call	806160 <__udivsi3>
  8037e4:	1007883a 	mov	r3,r2
  8037e8:	e0bfff17 	ldw	r2,-4(fp)
  8037ec:	10c5c83a 	sub	r2,r2,r3
  8037f0:	e0bfff15 	stw	r2,-4(fp)
  big_loops = us / (INT_MAX/
  (ALT_CPU_FREQ/(cycles_per_loop * 1000000)));

  if (big_loops)
  {
    for(i=0;i<big_loops;i++)
  8037f4:	e0bffc17 	ldw	r2,-16(fp)
  8037f8:	10800044 	addi	r2,r2,1
  8037fc:	e0bffc15 	stw	r2,-16(fp)
  803800:	e0fffc17 	ldw	r3,-16(fp)
  803804:	e0bffe17 	ldw	r2,-8(fp)
  803808:	18bfe616 	blt	r3,r2,8037a4 <__alt_data_end+0xff8037a4>
      "\n\tbne %0,zero,0b"
      "\n1:"
      "\n\t.pushsection .debug_alt_sim_info"
      "\n\t.int 4, 0, 0b, 1b"
      "\n\t.popsection"
      :: "r" (us*(ALT_CPU_FREQ/(cycles_per_loop * 1000000))));
  80380c:	e0fffd17 	ldw	r3,-12(fp)
  803810:	008003f4 	movhi	r2,15
  803814:	10909004 	addi	r2,r2,16960
  803818:	1885383a 	mul	r2,r3,r2
  80381c:	100b883a 	mov	r5,r2
  803820:	0100bef4 	movhi	r4,763
  803824:	213c2004 	addi	r4,r4,-3968
  803828:	08061600 	call	806160 <__udivsi3>
  80382c:	1007883a 	mov	r3,r2
  803830:	e0bfff17 	ldw	r2,-4(fp)
  803834:	1885383a 	mul	r2,r3,r2
    /*
    * Do NOT Try to single step the asm statement below 
    * (single step will never return)
    * Step out of this function or set a breakpoint after the asm statements
    */
    __asm__ volatile (
  803838:	10bfffc4 	addi	r2,r2,-1
  80383c:	103ffe1e 	bne	r2,zero,803838 <__alt_data_end+0xff803838>
  803840:	00000d06 	br	803878 <alt_busy_sleep+0x140>
      "\n\tbgt %0,zero,0b"
      "\n1:"
      "\n\t.pushsection .debug_alt_sim_info"
      "\n\t.int 4, 0, 0b, 1b"
      "\n\t.popsection"
      :: "r" (us*(ALT_CPU_FREQ/(cycles_per_loop * 1000000))));
  803844:	e0fffd17 	ldw	r3,-12(fp)
  803848:	008003f4 	movhi	r2,15
  80384c:	10909004 	addi	r2,r2,16960
  803850:	1885383a 	mul	r2,r3,r2
  803854:	100b883a 	mov	r5,r2
  803858:	0100bef4 	movhi	r4,763
  80385c:	213c2004 	addi	r4,r4,-3968
  803860:	08061600 	call	806160 <__udivsi3>
  803864:	1007883a 	mov	r3,r2
  803868:	e0bfff17 	ldw	r2,-4(fp)
  80386c:	1885383a 	mul	r2,r3,r2
    /*
    * Do NOT Try to single step the asm statement below 
    * (single step will never return)
    * Step out of this function or set a breakpoint after the asm statements
    */
    __asm__ volatile (
  803870:	10bfffc4 	addi	r2,r2,-1
  803874:	00bffe16 	blt	zero,r2,803870 <__alt_data_end+0xff803870>
      "\n\t.int 4, 0, 0b, 1b"
      "\n\t.popsection"
      :: "r" (us*(ALT_CPU_FREQ/(cycles_per_loop * 1000000))));
  }
#endif /* #ifndef ALT_SIM_OPTIMIZE */
  return 0;
  803878:	0005883a 	mov	r2,zero
}
  80387c:	e037883a 	mov	sp,fp
  803880:	dfc00117 	ldw	ra,4(sp)
  803884:	df000017 	ldw	fp,0(sp)
  803888:	dec00204 	addi	sp,sp,8
  80388c:	f800283a 	ret

00803890 <alt_find_file>:
 * either '/' or '\0' is the prefix of the filename. For example the filename:
 * "/myfilesystem/junk.txt" would match: "/myfilesystem", but not: "/myfile". 
 */
 
alt_dev* alt_find_file (const char* name)
{
  803890:	defffb04 	addi	sp,sp,-20
  803894:	dfc00415 	stw	ra,16(sp)
  803898:	df000315 	stw	fp,12(sp)
  80389c:	df000304 	addi	fp,sp,12
  8038a0:	e13fff15 	stw	r4,-4(fp)
  alt_dev* next = (alt_dev*) alt_fs_list.next;   
  8038a4:	d0a00117 	ldw	r2,-32764(gp)
  8038a8:	e0bffd15 	stw	r2,-12(fp)
  /*
   * Check each list entry in turn, until a match is found, or we reach the
   * end of the list (i.e. next winds up pointing back to the list head).
   */ 
 
  while (next != (alt_dev*) &alt_fs_list)
  8038ac:	00003106 	br	803974 <alt_find_file+0xe4>
  {
    len = strlen(next->name);
  8038b0:	e0bffd17 	ldw	r2,-12(fp)
  8038b4:	10800217 	ldw	r2,8(r2)
  8038b8:	1009883a 	mov	r4,r2
  8038bc:	08040080 	call	804008 <strlen>
  8038c0:	e0bffe15 	stw	r2,-8(fp)
    
    if (next->name[len-1] == '/')
  8038c4:	e0bffd17 	ldw	r2,-12(fp)
  8038c8:	10c00217 	ldw	r3,8(r2)
  8038cc:	e0bffe17 	ldw	r2,-8(fp)
  8038d0:	10bfffc4 	addi	r2,r2,-1
  8038d4:	1885883a 	add	r2,r3,r2
  8038d8:	10800003 	ldbu	r2,0(r2)
  8038dc:	10803fcc 	andi	r2,r2,255
  8038e0:	1080201c 	xori	r2,r2,128
  8038e4:	10bfe004 	addi	r2,r2,-128
  8038e8:	10800bd8 	cmpnei	r2,r2,47
  8038ec:	1000031e 	bne	r2,zero,8038fc <alt_find_file+0x6c>
    {
      len -= 1;
  8038f0:	e0bffe17 	ldw	r2,-8(fp)
  8038f4:	10bfffc4 	addi	r2,r2,-1
  8038f8:	e0bffe15 	stw	r2,-8(fp)
    }

    if (((name[len] == '/') || (name[len] == '\0')) && 
  8038fc:	e0bffe17 	ldw	r2,-8(fp)
  803900:	e0ffff17 	ldw	r3,-4(fp)
  803904:	1885883a 	add	r2,r3,r2
  803908:	10800003 	ldbu	r2,0(r2)
  80390c:	10803fcc 	andi	r2,r2,255
  803910:	1080201c 	xori	r2,r2,128
  803914:	10bfe004 	addi	r2,r2,-128
  803918:	10800be0 	cmpeqi	r2,r2,47
  80391c:	1000081e 	bne	r2,zero,803940 <alt_find_file+0xb0>
  803920:	e0bffe17 	ldw	r2,-8(fp)
  803924:	e0ffff17 	ldw	r3,-4(fp)
  803928:	1885883a 	add	r2,r3,r2
  80392c:	10800003 	ldbu	r2,0(r2)
  803930:	10803fcc 	andi	r2,r2,255
  803934:	1080201c 	xori	r2,r2,128
  803938:	10bfe004 	addi	r2,r2,-128
  80393c:	10000a1e 	bne	r2,zero,803968 <alt_find_file+0xd8>
        !memcmp (next->name, name, len))
  803940:	e0bffd17 	ldw	r2,-12(fp)
  803944:	10800217 	ldw	r2,8(r2)
  803948:	e0fffe17 	ldw	r3,-8(fp)
  80394c:	180d883a 	mov	r6,r3
  803950:	e17fff17 	ldw	r5,-4(fp)
  803954:	1009883a 	mov	r4,r2
  803958:	0803bb40 	call	803bb4 <memcmp>
    if (next->name[len-1] == '/')
    {
      len -= 1;
    }

    if (((name[len] == '/') || (name[len] == '\0')) && 
  80395c:	1000021e 	bne	r2,zero,803968 <alt_find_file+0xd8>
        !memcmp (next->name, name, len))
    {
      /* match found */

      return next;
  803960:	e0bffd17 	ldw	r2,-12(fp)
  803964:	00000706 	br	803984 <alt_find_file+0xf4>
    }
    next = (alt_dev*) next->llist.next;
  803968:	e0bffd17 	ldw	r2,-12(fp)
  80396c:	10800017 	ldw	r2,0(r2)
  803970:	e0bffd15 	stw	r2,-12(fp)
  /*
   * Check each list entry in turn, until a match is found, or we reach the
   * end of the list (i.e. next winds up pointing back to the list head).
   */ 
 
  while (next != (alt_dev*) &alt_fs_list)
  803974:	e0fffd17 	ldw	r3,-12(fp)
  803978:	d0a00104 	addi	r2,gp,-32764
  80397c:	18bfcc1e 	bne	r3,r2,8038b0 <__alt_data_end+0xff8038b0>
    next = (alt_dev*) next->llist.next;
  }
  
  /* No match found */
  
  return NULL;     
  803980:	0005883a 	mov	r2,zero
}
  803984:	e037883a 	mov	sp,fp
  803988:	dfc00117 	ldw	ra,4(sp)
  80398c:	df000017 	ldw	fp,0(sp)
  803990:	dec00204 	addi	sp,sp,8
  803994:	f800283a 	ret

00803998 <alt_get_fd>:
 * the offset of the file descriptor within the file descriptor array). A
 * negative value indicates failure.
 */

int alt_get_fd (alt_dev* dev)
{
  803998:	defffc04 	addi	sp,sp,-16
  80399c:	df000315 	stw	fp,12(sp)
  8039a0:	df000304 	addi	fp,sp,12
  8039a4:	e13fff15 	stw	r4,-4(fp)
  alt_32 i;
  int rc = -EMFILE;
  8039a8:	00bffa04 	movi	r2,-24
  8039ac:	e0bffe15 	stw	r2,-8(fp)
   * indicates the highest file descriptor ever allocated. This is used to
   * improve efficency when searching the file descriptor list, and 
   * therefore reduce contention on the alt_fd_list_lock semaphore. 
   */

  for (i = 0; i < ALT_MAX_FD; i++)
  8039b0:	e03ffd15 	stw	zero,-12(fp)
  8039b4:	00001906 	br	803a1c <alt_get_fd+0x84>
  {
    if (!alt_fd_list[i].dev)
  8039b8:	00802034 	movhi	r2,128
  8039bc:	109b9c04 	addi	r2,r2,28272
  8039c0:	e0fffd17 	ldw	r3,-12(fp)
  8039c4:	18c00324 	muli	r3,r3,12
  8039c8:	10c5883a 	add	r2,r2,r3
  8039cc:	10800017 	ldw	r2,0(r2)
  8039d0:	10000f1e 	bne	r2,zero,803a10 <alt_get_fd+0x78>
    {
      alt_fd_list[i].dev = dev;
  8039d4:	00802034 	movhi	r2,128
  8039d8:	109b9c04 	addi	r2,r2,28272
  8039dc:	e0fffd17 	ldw	r3,-12(fp)
  8039e0:	18c00324 	muli	r3,r3,12
  8039e4:	10c5883a 	add	r2,r2,r3
  8039e8:	e0ffff17 	ldw	r3,-4(fp)
  8039ec:	10c00015 	stw	r3,0(r2)
      if (i > alt_max_fd)
  8039f0:	d0e00517 	ldw	r3,-32748(gp)
  8039f4:	e0bffd17 	ldw	r2,-12(fp)
  8039f8:	1880020e 	bge	r3,r2,803a04 <alt_get_fd+0x6c>
      {
        alt_max_fd = i;
  8039fc:	e0bffd17 	ldw	r2,-12(fp)
  803a00:	d0a00515 	stw	r2,-32748(gp)
      }
      rc = i;
  803a04:	e0bffd17 	ldw	r2,-12(fp)
  803a08:	e0bffe15 	stw	r2,-8(fp)
      goto alt_get_fd_exit;
  803a0c:	00000606 	br	803a28 <alt_get_fd+0x90>
   * indicates the highest file descriptor ever allocated. This is used to
   * improve efficency when searching the file descriptor list, and 
   * therefore reduce contention on the alt_fd_list_lock semaphore. 
   */

  for (i = 0; i < ALT_MAX_FD; i++)
  803a10:	e0bffd17 	ldw	r2,-12(fp)
  803a14:	10800044 	addi	r2,r2,1
  803a18:	e0bffd15 	stw	r2,-12(fp)
  803a1c:	e0bffd17 	ldw	r2,-12(fp)
  803a20:	10800810 	cmplti	r2,r2,32
  803a24:	103fe41e 	bne	r2,zero,8039b8 <__alt_data_end+0xff8039b8>
   * file descriptor pool.
   */

  ALT_SEM_POST(alt_fd_list_lock);

  return rc;
  803a28:	e0bffe17 	ldw	r2,-8(fp)
}
  803a2c:	e037883a 	mov	sp,fp
  803a30:	df000017 	ldw	fp,0(sp)
  803a34:	dec00104 	addi	sp,sp,4
  803a38:	f800283a 	ret

00803a3c <alt_icache_flush>:
 * alt_icache_flush() is called to flush the instruction cache for a memory
 * region of length "len" bytes, starting at address "start".
 */

void alt_icache_flush (void* start, alt_u32 len)
{
  803a3c:	defffb04 	addi	sp,sp,-20
  803a40:	df000415 	stw	fp,16(sp)
  803a44:	df000404 	addi	fp,sp,16
  803a48:	e13ffe15 	stw	r4,-8(fp)
  803a4c:	e17fff15 	stw	r5,-4(fp)

  /*
   * This is the most we would ever need to flush.
   */
 
  if (len > NIOS2_ICACHE_SIZE)
  803a50:	e0bfff17 	ldw	r2,-4(fp)
  803a54:	10840070 	cmpltui	r2,r2,4097
  803a58:	1000021e 	bne	r2,zero,803a64 <alt_icache_flush+0x28>
  {
    len = NIOS2_ICACHE_SIZE;
  803a5c:	00840004 	movi	r2,4096
  803a60:	e0bfff15 	stw	r2,-4(fp)
  }

  end = ((char*) start) + len;
  803a64:	e0fffe17 	ldw	r3,-8(fp)
  803a68:	e0bfff17 	ldw	r2,-4(fp)
  803a6c:	1885883a 	add	r2,r3,r2
  803a70:	e0bffd15 	stw	r2,-12(fp)

  for (i = start; i < end; i+= NIOS2_ICACHE_LINE_SIZE)
  803a74:	e0bffe17 	ldw	r2,-8(fp)
  803a78:	e0bffc15 	stw	r2,-16(fp)
  803a7c:	00000506 	br	803a94 <alt_icache_flush+0x58>
  { 
    __asm__ volatile ("flushi %0" :: "r" (i)); 
  803a80:	e0bffc17 	ldw	r2,-16(fp)
  803a84:	1000603a 	flushi	r2
    len = NIOS2_ICACHE_SIZE;
  }

  end = ((char*) start) + len;

  for (i = start; i < end; i+= NIOS2_ICACHE_LINE_SIZE)
  803a88:	e0bffc17 	ldw	r2,-16(fp)
  803a8c:	10800804 	addi	r2,r2,32
  803a90:	e0bffc15 	stw	r2,-16(fp)
  803a94:	e0fffc17 	ldw	r3,-16(fp)
  803a98:	e0bffd17 	ldw	r2,-12(fp)
  803a9c:	18bff836 	bltu	r3,r2,803a80 <__alt_data_end+0xff803a80>
   * For an unaligned flush request, we've got one more line left.
   * Note that this is dependent on NIOS2_ICACHE_LINE_SIZE to be a 
   * multiple of 2 (which it always is).
   */

  if (((alt_u32) start) & (NIOS2_ICACHE_LINE_SIZE - 1))
  803aa0:	e0bffe17 	ldw	r2,-8(fp)
  803aa4:	108007cc 	andi	r2,r2,31
  803aa8:	10000226 	beq	r2,zero,803ab4 <alt_icache_flush+0x78>
  {
    __asm__ volatile ("flushi %0" :: "r" (i));
  803aac:	e0bffc17 	ldw	r2,-16(fp)
  803ab0:	1000603a 	flushi	r2
  /* 
   * Having flushed the cache, flush any stale instructions in the 
   * pipeline 
   */

  __asm__ volatile ("flushp");
  803ab4:	0000203a 	flushp

#endif /* NIOS2_ICACHE_SIZE > 0 */
}
  803ab8:	0001883a 	nop
  803abc:	e037883a 	mov	sp,fp
  803ac0:	df000017 	ldw	fp,0(sp)
  803ac4:	dec00104 	addi	sp,sp,4
  803ac8:	f800283a 	ret

00803acc <alt_exception_cause_generated_bad_addr>:
 * Return: 1: BADADDR (bad_addr argument to handler) is valid
 *         0: BADADDR is not valid
 */
int 
alt_exception_cause_generated_bad_addr(alt_exception_cause cause)
{
  803acc:	defffe04 	addi	sp,sp,-8
  803ad0:	df000115 	stw	fp,4(sp)
  803ad4:	df000104 	addi	fp,sp,4
  803ad8:	e13fff15 	stw	r4,-4(fp)
  switch (cause) {
  803adc:	e0bfff17 	ldw	r2,-4(fp)
  803ae0:	10bffe84 	addi	r2,r2,-6
  803ae4:	10c00428 	cmpgeui	r3,r2,16
  803ae8:	18001a1e 	bne	r3,zero,803b54 <alt_exception_cause_generated_bad_addr+0x88>
  803aec:	100690ba 	slli	r3,r2,2
  803af0:	00802034 	movhi	r2,128
  803af4:	108ec104 	addi	r2,r2,15108
  803af8:	1885883a 	add	r2,r3,r2
  803afc:	10800017 	ldw	r2,0(r2)
  803b00:	1000683a 	jmp	r2
  803b04:	00803b44 	movi	r2,237
  803b08:	00803b44 	movi	r2,237
  803b0c:	00803b54 	movui	r2,237
  803b10:	00803b54 	movui	r2,237
  803b14:	00803b54 	movui	r2,237
  803b18:	00803b44 	movi	r2,237
  803b1c:	00803b4c 	andi	r2,zero,237
  803b20:	00803b54 	movui	r2,237
  803b24:	00803b44 	movi	r2,237
  803b28:	00803b44 	movi	r2,237
  803b2c:	00803b54 	movui	r2,237
  803b30:	00803b44 	movi	r2,237
  803b34:	00803b4c 	andi	r2,zero,237
  803b38:	00803b54 	movui	r2,237
  803b3c:	00803b54 	movui	r2,237
  803b40:	00803b44 	movi	r2,237
  case NIOS2_EXCEPTION_MISALIGNED_TARGET_PC:
  case NIOS2_EXCEPTION_TLB_READ_PERM_VIOLATION:
  case NIOS2_EXCEPTION_TLB_WRITE_PERM_VIOLATION:
  case NIOS2_EXCEPTION_MPU_DATA_REGION_VIOLATION:
  case NIOS2_EXCEPTION_ECC_DATA_ERR:
    return 1;
  803b44:	00800044 	movi	r2,1
  803b48:	00000306 	br	803b58 <alt_exception_cause_generated_bad_addr+0x8c>

  case NIOS2_EXCEPTION_TLB_MISS:
  case NIOS2_EXCEPTION_ECC_TLB_ERR:
    return 0;
  803b4c:	0005883a 	mov	r2,zero
  803b50:	00000106 	br	803b58 <alt_exception_cause_generated_bad_addr+0x8c>

  default:
    return 0;
  803b54:	0005883a 	mov	r2,zero
  }
}
  803b58:	e037883a 	mov	sp,fp
  803b5c:	df000017 	ldw	fp,0(sp)
  803b60:	dec00104 	addi	sp,sp,4
  803b64:	f800283a 	ret

00803b68 <atexit>:
  803b68:	200b883a 	mov	r5,r4
  803b6c:	000f883a 	mov	r7,zero
  803b70:	000d883a 	mov	r6,zero
  803b74:	0009883a 	mov	r4,zero
  803b78:	080434c1 	jmpi	80434c <__register_exitproc>

00803b7c <exit>:
  803b7c:	defffe04 	addi	sp,sp,-8
  803b80:	000b883a 	mov	r5,zero
  803b84:	dc000015 	stw	r16,0(sp)
  803b88:	dfc00115 	stw	ra,4(sp)
  803b8c:	2021883a 	mov	r16,r4
  803b90:	08044640 	call	804464 <__call_exitprocs>
  803b94:	00802034 	movhi	r2,128
  803b98:	109e1204 	addi	r2,r2,30792
  803b9c:	11000017 	ldw	r4,0(r2)
  803ba0:	20800f17 	ldw	r2,60(r4)
  803ba4:	10000126 	beq	r2,zero,803bac <exit+0x30>
  803ba8:	103ee83a 	callr	r2
  803bac:	8009883a 	mov	r4,r16
  803bb0:	080621c0 	call	80621c <_exit>

00803bb4 <memcmp>:
  803bb4:	01c000c4 	movi	r7,3
  803bb8:	3980192e 	bgeu	r7,r6,803c20 <memcmp+0x6c>
  803bbc:	2144b03a 	or	r2,r4,r5
  803bc0:	11c4703a 	and	r2,r2,r7
  803bc4:	10000f26 	beq	r2,zero,803c04 <memcmp+0x50>
  803bc8:	20800003 	ldbu	r2,0(r4)
  803bcc:	28c00003 	ldbu	r3,0(r5)
  803bd0:	10c0151e 	bne	r2,r3,803c28 <memcmp+0x74>
  803bd4:	31bfff84 	addi	r6,r6,-2
  803bd8:	01ffffc4 	movi	r7,-1
  803bdc:	00000406 	br	803bf0 <memcmp+0x3c>
  803be0:	20800003 	ldbu	r2,0(r4)
  803be4:	28c00003 	ldbu	r3,0(r5)
  803be8:	31bfffc4 	addi	r6,r6,-1
  803bec:	10c00e1e 	bne	r2,r3,803c28 <memcmp+0x74>
  803bf0:	21000044 	addi	r4,r4,1
  803bf4:	29400044 	addi	r5,r5,1
  803bf8:	31fff91e 	bne	r6,r7,803be0 <__alt_data_end+0xff803be0>
  803bfc:	0005883a 	mov	r2,zero
  803c00:	f800283a 	ret
  803c04:	20c00017 	ldw	r3,0(r4)
  803c08:	28800017 	ldw	r2,0(r5)
  803c0c:	18bfee1e 	bne	r3,r2,803bc8 <__alt_data_end+0xff803bc8>
  803c10:	31bfff04 	addi	r6,r6,-4
  803c14:	21000104 	addi	r4,r4,4
  803c18:	29400104 	addi	r5,r5,4
  803c1c:	39bff936 	bltu	r7,r6,803c04 <__alt_data_end+0xff803c04>
  803c20:	303fe91e 	bne	r6,zero,803bc8 <__alt_data_end+0xff803bc8>
  803c24:	003ff506 	br	803bfc <__alt_data_end+0xff803bfc>
  803c28:	10c5c83a 	sub	r2,r2,r3
  803c2c:	f800283a 	ret

00803c30 <memcpy>:
  803c30:	defffd04 	addi	sp,sp,-12
  803c34:	dfc00215 	stw	ra,8(sp)
  803c38:	dc400115 	stw	r17,4(sp)
  803c3c:	dc000015 	stw	r16,0(sp)
  803c40:	00c003c4 	movi	r3,15
  803c44:	2005883a 	mov	r2,r4
  803c48:	1980452e 	bgeu	r3,r6,803d60 <memcpy+0x130>
  803c4c:	2906b03a 	or	r3,r5,r4
  803c50:	18c000cc 	andi	r3,r3,3
  803c54:	1800441e 	bne	r3,zero,803d68 <memcpy+0x138>
  803c58:	347ffc04 	addi	r17,r6,-16
  803c5c:	8822d13a 	srli	r17,r17,4
  803c60:	28c00104 	addi	r3,r5,4
  803c64:	23400104 	addi	r13,r4,4
  803c68:	8820913a 	slli	r16,r17,4
  803c6c:	2b000204 	addi	r12,r5,8
  803c70:	22c00204 	addi	r11,r4,8
  803c74:	84000504 	addi	r16,r16,20
  803c78:	2a800304 	addi	r10,r5,12
  803c7c:	22400304 	addi	r9,r4,12
  803c80:	2c21883a 	add	r16,r5,r16
  803c84:	2811883a 	mov	r8,r5
  803c88:	200f883a 	mov	r7,r4
  803c8c:	41000017 	ldw	r4,0(r8)
  803c90:	1fc00017 	ldw	ra,0(r3)
  803c94:	63c00017 	ldw	r15,0(r12)
  803c98:	39000015 	stw	r4,0(r7)
  803c9c:	53800017 	ldw	r14,0(r10)
  803ca0:	6fc00015 	stw	ra,0(r13)
  803ca4:	5bc00015 	stw	r15,0(r11)
  803ca8:	4b800015 	stw	r14,0(r9)
  803cac:	18c00404 	addi	r3,r3,16
  803cb0:	39c00404 	addi	r7,r7,16
  803cb4:	42000404 	addi	r8,r8,16
  803cb8:	6b400404 	addi	r13,r13,16
  803cbc:	63000404 	addi	r12,r12,16
  803cc0:	5ac00404 	addi	r11,r11,16
  803cc4:	52800404 	addi	r10,r10,16
  803cc8:	4a400404 	addi	r9,r9,16
  803ccc:	1c3fef1e 	bne	r3,r16,803c8c <__alt_data_end+0xff803c8c>
  803cd0:	89c00044 	addi	r7,r17,1
  803cd4:	380e913a 	slli	r7,r7,4
  803cd8:	310003cc 	andi	r4,r6,15
  803cdc:	02c000c4 	movi	r11,3
  803ce0:	11c7883a 	add	r3,r2,r7
  803ce4:	29cb883a 	add	r5,r5,r7
  803ce8:	5900212e 	bgeu	r11,r4,803d70 <memcpy+0x140>
  803cec:	1813883a 	mov	r9,r3
  803cf0:	2811883a 	mov	r8,r5
  803cf4:	200f883a 	mov	r7,r4
  803cf8:	42800017 	ldw	r10,0(r8)
  803cfc:	4a400104 	addi	r9,r9,4
  803d00:	39ffff04 	addi	r7,r7,-4
  803d04:	4abfff15 	stw	r10,-4(r9)
  803d08:	42000104 	addi	r8,r8,4
  803d0c:	59fffa36 	bltu	r11,r7,803cf8 <__alt_data_end+0xff803cf8>
  803d10:	213fff04 	addi	r4,r4,-4
  803d14:	2008d0ba 	srli	r4,r4,2
  803d18:	318000cc 	andi	r6,r6,3
  803d1c:	21000044 	addi	r4,r4,1
  803d20:	2109883a 	add	r4,r4,r4
  803d24:	2109883a 	add	r4,r4,r4
  803d28:	1907883a 	add	r3,r3,r4
  803d2c:	290b883a 	add	r5,r5,r4
  803d30:	30000626 	beq	r6,zero,803d4c <memcpy+0x11c>
  803d34:	198d883a 	add	r6,r3,r6
  803d38:	29c00003 	ldbu	r7,0(r5)
  803d3c:	18c00044 	addi	r3,r3,1
  803d40:	29400044 	addi	r5,r5,1
  803d44:	19ffffc5 	stb	r7,-1(r3)
  803d48:	19bffb1e 	bne	r3,r6,803d38 <__alt_data_end+0xff803d38>
  803d4c:	dfc00217 	ldw	ra,8(sp)
  803d50:	dc400117 	ldw	r17,4(sp)
  803d54:	dc000017 	ldw	r16,0(sp)
  803d58:	dec00304 	addi	sp,sp,12
  803d5c:	f800283a 	ret
  803d60:	2007883a 	mov	r3,r4
  803d64:	003ff206 	br	803d30 <__alt_data_end+0xff803d30>
  803d68:	2007883a 	mov	r3,r4
  803d6c:	003ff106 	br	803d34 <__alt_data_end+0xff803d34>
  803d70:	200d883a 	mov	r6,r4
  803d74:	003fee06 	br	803d30 <__alt_data_end+0xff803d30>

00803d78 <memset>:
  803d78:	20c000cc 	andi	r3,r4,3
  803d7c:	2005883a 	mov	r2,r4
  803d80:	18004426 	beq	r3,zero,803e94 <memset+0x11c>
  803d84:	31ffffc4 	addi	r7,r6,-1
  803d88:	30004026 	beq	r6,zero,803e8c <memset+0x114>
  803d8c:	2813883a 	mov	r9,r5
  803d90:	200d883a 	mov	r6,r4
  803d94:	2007883a 	mov	r3,r4
  803d98:	00000406 	br	803dac <memset+0x34>
  803d9c:	3a3fffc4 	addi	r8,r7,-1
  803da0:	31800044 	addi	r6,r6,1
  803da4:	38003926 	beq	r7,zero,803e8c <memset+0x114>
  803da8:	400f883a 	mov	r7,r8
  803dac:	18c00044 	addi	r3,r3,1
  803db0:	32400005 	stb	r9,0(r6)
  803db4:	1a0000cc 	andi	r8,r3,3
  803db8:	403ff81e 	bne	r8,zero,803d9c <__alt_data_end+0xff803d9c>
  803dbc:	010000c4 	movi	r4,3
  803dc0:	21c02d2e 	bgeu	r4,r7,803e78 <memset+0x100>
  803dc4:	29003fcc 	andi	r4,r5,255
  803dc8:	200c923a 	slli	r6,r4,8
  803dcc:	3108b03a 	or	r4,r6,r4
  803dd0:	200c943a 	slli	r6,r4,16
  803dd4:	218cb03a 	or	r6,r4,r6
  803dd8:	010003c4 	movi	r4,15
  803ddc:	21c0182e 	bgeu	r4,r7,803e40 <memset+0xc8>
  803de0:	3b3ffc04 	addi	r12,r7,-16
  803de4:	6018d13a 	srli	r12,r12,4
  803de8:	1a000104 	addi	r8,r3,4
  803dec:	1ac00204 	addi	r11,r3,8
  803df0:	6008913a 	slli	r4,r12,4
  803df4:	1a800304 	addi	r10,r3,12
  803df8:	1813883a 	mov	r9,r3
  803dfc:	21000504 	addi	r4,r4,20
  803e00:	1909883a 	add	r4,r3,r4
  803e04:	49800015 	stw	r6,0(r9)
  803e08:	41800015 	stw	r6,0(r8)
  803e0c:	59800015 	stw	r6,0(r11)
  803e10:	51800015 	stw	r6,0(r10)
  803e14:	42000404 	addi	r8,r8,16
  803e18:	4a400404 	addi	r9,r9,16
  803e1c:	5ac00404 	addi	r11,r11,16
  803e20:	52800404 	addi	r10,r10,16
  803e24:	413ff71e 	bne	r8,r4,803e04 <__alt_data_end+0xff803e04>
  803e28:	63000044 	addi	r12,r12,1
  803e2c:	6018913a 	slli	r12,r12,4
  803e30:	39c003cc 	andi	r7,r7,15
  803e34:	010000c4 	movi	r4,3
  803e38:	1b07883a 	add	r3,r3,r12
  803e3c:	21c00e2e 	bgeu	r4,r7,803e78 <memset+0x100>
  803e40:	1813883a 	mov	r9,r3
  803e44:	3811883a 	mov	r8,r7
  803e48:	010000c4 	movi	r4,3
  803e4c:	49800015 	stw	r6,0(r9)
  803e50:	423fff04 	addi	r8,r8,-4
  803e54:	4a400104 	addi	r9,r9,4
  803e58:	223ffc36 	bltu	r4,r8,803e4c <__alt_data_end+0xff803e4c>
  803e5c:	393fff04 	addi	r4,r7,-4
  803e60:	2008d0ba 	srli	r4,r4,2
  803e64:	39c000cc 	andi	r7,r7,3
  803e68:	21000044 	addi	r4,r4,1
  803e6c:	2109883a 	add	r4,r4,r4
  803e70:	2109883a 	add	r4,r4,r4
  803e74:	1907883a 	add	r3,r3,r4
  803e78:	38000526 	beq	r7,zero,803e90 <memset+0x118>
  803e7c:	19cf883a 	add	r7,r3,r7
  803e80:	19400005 	stb	r5,0(r3)
  803e84:	18c00044 	addi	r3,r3,1
  803e88:	38fffd1e 	bne	r7,r3,803e80 <__alt_data_end+0xff803e80>
  803e8c:	f800283a 	ret
  803e90:	f800283a 	ret
  803e94:	2007883a 	mov	r3,r4
  803e98:	300f883a 	mov	r7,r6
  803e9c:	003fc706 	br	803dbc <__alt_data_end+0xff803dbc>

00803ea0 <_putc_r>:
  803ea0:	defffc04 	addi	sp,sp,-16
  803ea4:	dc000215 	stw	r16,8(sp)
  803ea8:	dfc00315 	stw	ra,12(sp)
  803eac:	2021883a 	mov	r16,r4
  803eb0:	20000226 	beq	r4,zero,803ebc <_putc_r+0x1c>
  803eb4:	20800e17 	ldw	r2,56(r4)
  803eb8:	10001b26 	beq	r2,zero,803f28 <_putc_r+0x88>
  803ebc:	30800217 	ldw	r2,8(r6)
  803ec0:	10bfffc4 	addi	r2,r2,-1
  803ec4:	30800215 	stw	r2,8(r6)
  803ec8:	10000a16 	blt	r2,zero,803ef4 <_putc_r+0x54>
  803ecc:	30800017 	ldw	r2,0(r6)
  803ed0:	11400005 	stb	r5,0(r2)
  803ed4:	30800017 	ldw	r2,0(r6)
  803ed8:	10c00044 	addi	r3,r2,1
  803edc:	30c00015 	stw	r3,0(r6)
  803ee0:	10800003 	ldbu	r2,0(r2)
  803ee4:	dfc00317 	ldw	ra,12(sp)
  803ee8:	dc000217 	ldw	r16,8(sp)
  803eec:	dec00404 	addi	sp,sp,16
  803ef0:	f800283a 	ret
  803ef4:	30c00617 	ldw	r3,24(r6)
  803ef8:	10c00616 	blt	r2,r3,803f14 <_putc_r+0x74>
  803efc:	30800017 	ldw	r2,0(r6)
  803f00:	00c00284 	movi	r3,10
  803f04:	11400005 	stb	r5,0(r2)
  803f08:	30800017 	ldw	r2,0(r6)
  803f0c:	11400003 	ldbu	r5,0(r2)
  803f10:	28fff11e 	bne	r5,r3,803ed8 <__alt_data_end+0xff803ed8>
  803f14:	8009883a 	mov	r4,r16
  803f18:	dfc00317 	ldw	ra,12(sp)
  803f1c:	dc000217 	ldw	r16,8(sp)
  803f20:	dec00404 	addi	sp,sp,16
  803f24:	08040a01 	jmpi	8040a0 <__swbuf_r>
  803f28:	d9400015 	stw	r5,0(sp)
  803f2c:	d9800115 	stw	r6,4(sp)
  803f30:	0804bdc0 	call	804bdc <__sinit>
  803f34:	d9800117 	ldw	r6,4(sp)
  803f38:	d9400017 	ldw	r5,0(sp)
  803f3c:	003fdf06 	br	803ebc <__alt_data_end+0xff803ebc>

00803f40 <putc>:
  803f40:	00802034 	movhi	r2,128
  803f44:	defffc04 	addi	sp,sp,-16
  803f48:	109e1304 	addi	r2,r2,30796
  803f4c:	dc000115 	stw	r16,4(sp)
  803f50:	14000017 	ldw	r16,0(r2)
  803f54:	dc400215 	stw	r17,8(sp)
  803f58:	dfc00315 	stw	ra,12(sp)
  803f5c:	2023883a 	mov	r17,r4
  803f60:	80000226 	beq	r16,zero,803f6c <putc+0x2c>
  803f64:	80800e17 	ldw	r2,56(r16)
  803f68:	10001a26 	beq	r2,zero,803fd4 <putc+0x94>
  803f6c:	28800217 	ldw	r2,8(r5)
  803f70:	10bfffc4 	addi	r2,r2,-1
  803f74:	28800215 	stw	r2,8(r5)
  803f78:	10000b16 	blt	r2,zero,803fa8 <putc+0x68>
  803f7c:	28800017 	ldw	r2,0(r5)
  803f80:	14400005 	stb	r17,0(r2)
  803f84:	28800017 	ldw	r2,0(r5)
  803f88:	10c00044 	addi	r3,r2,1
  803f8c:	28c00015 	stw	r3,0(r5)
  803f90:	10800003 	ldbu	r2,0(r2)
  803f94:	dfc00317 	ldw	ra,12(sp)
  803f98:	dc400217 	ldw	r17,8(sp)
  803f9c:	dc000117 	ldw	r16,4(sp)
  803fa0:	dec00404 	addi	sp,sp,16
  803fa4:	f800283a 	ret
  803fa8:	28c00617 	ldw	r3,24(r5)
  803fac:	10c00e16 	blt	r2,r3,803fe8 <putc+0xa8>
  803fb0:	28800017 	ldw	r2,0(r5)
  803fb4:	01000284 	movi	r4,10
  803fb8:	14400005 	stb	r17,0(r2)
  803fbc:	28800017 	ldw	r2,0(r5)
  803fc0:	10c00003 	ldbu	r3,0(r2)
  803fc4:	193ff01e 	bne	r3,r4,803f88 <__alt_data_end+0xff803f88>
  803fc8:	280d883a 	mov	r6,r5
  803fcc:	180b883a 	mov	r5,r3
  803fd0:	00000706 	br	803ff0 <putc+0xb0>
  803fd4:	8009883a 	mov	r4,r16
  803fd8:	d9400015 	stw	r5,0(sp)
  803fdc:	0804bdc0 	call	804bdc <__sinit>
  803fe0:	d9400017 	ldw	r5,0(sp)
  803fe4:	003fe106 	br	803f6c <__alt_data_end+0xff803f6c>
  803fe8:	280d883a 	mov	r6,r5
  803fec:	880b883a 	mov	r5,r17
  803ff0:	8009883a 	mov	r4,r16
  803ff4:	dfc00317 	ldw	ra,12(sp)
  803ff8:	dc400217 	ldw	r17,8(sp)
  803ffc:	dc000117 	ldw	r16,4(sp)
  804000:	dec00404 	addi	sp,sp,16
  804004:	08040a01 	jmpi	8040a0 <__swbuf_r>

00804008 <strlen>:
  804008:	208000cc 	andi	r2,r4,3
  80400c:	10002026 	beq	r2,zero,804090 <strlen+0x88>
  804010:	20800007 	ldb	r2,0(r4)
  804014:	10002026 	beq	r2,zero,804098 <strlen+0x90>
  804018:	2005883a 	mov	r2,r4
  80401c:	00000206 	br	804028 <strlen+0x20>
  804020:	10c00007 	ldb	r3,0(r2)
  804024:	18001826 	beq	r3,zero,804088 <strlen+0x80>
  804028:	10800044 	addi	r2,r2,1
  80402c:	10c000cc 	andi	r3,r2,3
  804030:	183ffb1e 	bne	r3,zero,804020 <__alt_data_end+0xff804020>
  804034:	10c00017 	ldw	r3,0(r2)
  804038:	01ffbff4 	movhi	r7,65279
  80403c:	39ffbfc4 	addi	r7,r7,-257
  804040:	00ca303a 	nor	r5,zero,r3
  804044:	01a02074 	movhi	r6,32897
  804048:	19c7883a 	add	r3,r3,r7
  80404c:	31a02004 	addi	r6,r6,-32640
  804050:	1946703a 	and	r3,r3,r5
  804054:	1986703a 	and	r3,r3,r6
  804058:	1800091e 	bne	r3,zero,804080 <strlen+0x78>
  80405c:	10800104 	addi	r2,r2,4
  804060:	10c00017 	ldw	r3,0(r2)
  804064:	19cb883a 	add	r5,r3,r7
  804068:	00c6303a 	nor	r3,zero,r3
  80406c:	28c6703a 	and	r3,r5,r3
  804070:	1986703a 	and	r3,r3,r6
  804074:	183ff926 	beq	r3,zero,80405c <__alt_data_end+0xff80405c>
  804078:	00000106 	br	804080 <strlen+0x78>
  80407c:	10800044 	addi	r2,r2,1
  804080:	10c00007 	ldb	r3,0(r2)
  804084:	183ffd1e 	bne	r3,zero,80407c <__alt_data_end+0xff80407c>
  804088:	1105c83a 	sub	r2,r2,r4
  80408c:	f800283a 	ret
  804090:	2005883a 	mov	r2,r4
  804094:	003fe706 	br	804034 <__alt_data_end+0xff804034>
  804098:	0005883a 	mov	r2,zero
  80409c:	f800283a 	ret

008040a0 <__swbuf_r>:
  8040a0:	defffb04 	addi	sp,sp,-20
  8040a4:	dcc00315 	stw	r19,12(sp)
  8040a8:	dc800215 	stw	r18,8(sp)
  8040ac:	dc000015 	stw	r16,0(sp)
  8040b0:	dfc00415 	stw	ra,16(sp)
  8040b4:	dc400115 	stw	r17,4(sp)
  8040b8:	2025883a 	mov	r18,r4
  8040bc:	2827883a 	mov	r19,r5
  8040c0:	3021883a 	mov	r16,r6
  8040c4:	20000226 	beq	r4,zero,8040d0 <__swbuf_r+0x30>
  8040c8:	20800e17 	ldw	r2,56(r4)
  8040cc:	10004226 	beq	r2,zero,8041d8 <__swbuf_r+0x138>
  8040d0:	80800617 	ldw	r2,24(r16)
  8040d4:	8100030b 	ldhu	r4,12(r16)
  8040d8:	80800215 	stw	r2,8(r16)
  8040dc:	2080020c 	andi	r2,r4,8
  8040e0:	10003626 	beq	r2,zero,8041bc <__swbuf_r+0x11c>
  8040e4:	80c00417 	ldw	r3,16(r16)
  8040e8:	18003426 	beq	r3,zero,8041bc <__swbuf_r+0x11c>
  8040ec:	2088000c 	andi	r2,r4,8192
  8040f0:	9c403fcc 	andi	r17,r19,255
  8040f4:	10001a26 	beq	r2,zero,804160 <__swbuf_r+0xc0>
  8040f8:	80800017 	ldw	r2,0(r16)
  8040fc:	81000517 	ldw	r4,20(r16)
  804100:	10c7c83a 	sub	r3,r2,r3
  804104:	1900200e 	bge	r3,r4,804188 <__swbuf_r+0xe8>
  804108:	18c00044 	addi	r3,r3,1
  80410c:	81000217 	ldw	r4,8(r16)
  804110:	11400044 	addi	r5,r2,1
  804114:	81400015 	stw	r5,0(r16)
  804118:	213fffc4 	addi	r4,r4,-1
  80411c:	81000215 	stw	r4,8(r16)
  804120:	14c00005 	stb	r19,0(r2)
  804124:	80800517 	ldw	r2,20(r16)
  804128:	10c01e26 	beq	r2,r3,8041a4 <__swbuf_r+0x104>
  80412c:	8080030b 	ldhu	r2,12(r16)
  804130:	1080004c 	andi	r2,r2,1
  804134:	10000226 	beq	r2,zero,804140 <__swbuf_r+0xa0>
  804138:	00800284 	movi	r2,10
  80413c:	88801926 	beq	r17,r2,8041a4 <__swbuf_r+0x104>
  804140:	8805883a 	mov	r2,r17
  804144:	dfc00417 	ldw	ra,16(sp)
  804148:	dcc00317 	ldw	r19,12(sp)
  80414c:	dc800217 	ldw	r18,8(sp)
  804150:	dc400117 	ldw	r17,4(sp)
  804154:	dc000017 	ldw	r16,0(sp)
  804158:	dec00504 	addi	sp,sp,20
  80415c:	f800283a 	ret
  804160:	81401917 	ldw	r5,100(r16)
  804164:	00b7ffc4 	movi	r2,-8193
  804168:	21080014 	ori	r4,r4,8192
  80416c:	2884703a 	and	r2,r5,r2
  804170:	80801915 	stw	r2,100(r16)
  804174:	80800017 	ldw	r2,0(r16)
  804178:	8100030d 	sth	r4,12(r16)
  80417c:	81000517 	ldw	r4,20(r16)
  804180:	10c7c83a 	sub	r3,r2,r3
  804184:	193fe016 	blt	r3,r4,804108 <__alt_data_end+0xff804108>
  804188:	800b883a 	mov	r5,r16
  80418c:	9009883a 	mov	r4,r18
  804190:	08048000 	call	804800 <_fflush_r>
  804194:	1000071e 	bne	r2,zero,8041b4 <__swbuf_r+0x114>
  804198:	80800017 	ldw	r2,0(r16)
  80419c:	00c00044 	movi	r3,1
  8041a0:	003fda06 	br	80410c <__alt_data_end+0xff80410c>
  8041a4:	800b883a 	mov	r5,r16
  8041a8:	9009883a 	mov	r4,r18
  8041ac:	08048000 	call	804800 <_fflush_r>
  8041b0:	103fe326 	beq	r2,zero,804140 <__alt_data_end+0xff804140>
  8041b4:	00bfffc4 	movi	r2,-1
  8041b8:	003fe206 	br	804144 <__alt_data_end+0xff804144>
  8041bc:	800b883a 	mov	r5,r16
  8041c0:	9009883a 	mov	r4,r18
  8041c4:	08041f80 	call	8041f8 <__swsetup_r>
  8041c8:	103ffa1e 	bne	r2,zero,8041b4 <__alt_data_end+0xff8041b4>
  8041cc:	8100030b 	ldhu	r4,12(r16)
  8041d0:	80c00417 	ldw	r3,16(r16)
  8041d4:	003fc506 	br	8040ec <__alt_data_end+0xff8040ec>
  8041d8:	0804bdc0 	call	804bdc <__sinit>
  8041dc:	003fbc06 	br	8040d0 <__alt_data_end+0xff8040d0>

008041e0 <__swbuf>:
  8041e0:	00802034 	movhi	r2,128
  8041e4:	109e1304 	addi	r2,r2,30796
  8041e8:	280d883a 	mov	r6,r5
  8041ec:	200b883a 	mov	r5,r4
  8041f0:	11000017 	ldw	r4,0(r2)
  8041f4:	08040a01 	jmpi	8040a0 <__swbuf_r>

008041f8 <__swsetup_r>:
  8041f8:	00802034 	movhi	r2,128
  8041fc:	defffd04 	addi	sp,sp,-12
  804200:	109e1304 	addi	r2,r2,30796
  804204:	dc400115 	stw	r17,4(sp)
  804208:	2023883a 	mov	r17,r4
  80420c:	11000017 	ldw	r4,0(r2)
  804210:	dc000015 	stw	r16,0(sp)
  804214:	dfc00215 	stw	ra,8(sp)
  804218:	2821883a 	mov	r16,r5
  80421c:	20000226 	beq	r4,zero,804228 <__swsetup_r+0x30>
  804220:	20800e17 	ldw	r2,56(r4)
  804224:	10003126 	beq	r2,zero,8042ec <__swsetup_r+0xf4>
  804228:	8080030b 	ldhu	r2,12(r16)
  80422c:	10c0020c 	andi	r3,r2,8
  804230:	1009883a 	mov	r4,r2
  804234:	18000f26 	beq	r3,zero,804274 <__swsetup_r+0x7c>
  804238:	80c00417 	ldw	r3,16(r16)
  80423c:	18001526 	beq	r3,zero,804294 <__swsetup_r+0x9c>
  804240:	1100004c 	andi	r4,r2,1
  804244:	20001c1e 	bne	r4,zero,8042b8 <__swsetup_r+0xc0>
  804248:	1080008c 	andi	r2,r2,2
  80424c:	1000291e 	bne	r2,zero,8042f4 <__swsetup_r+0xfc>
  804250:	80800517 	ldw	r2,20(r16)
  804254:	80800215 	stw	r2,8(r16)
  804258:	18001c26 	beq	r3,zero,8042cc <__swsetup_r+0xd4>
  80425c:	0005883a 	mov	r2,zero
  804260:	dfc00217 	ldw	ra,8(sp)
  804264:	dc400117 	ldw	r17,4(sp)
  804268:	dc000017 	ldw	r16,0(sp)
  80426c:	dec00304 	addi	sp,sp,12
  804270:	f800283a 	ret
  804274:	2080040c 	andi	r2,r4,16
  804278:	10002e26 	beq	r2,zero,804334 <__swsetup_r+0x13c>
  80427c:	2080010c 	andi	r2,r4,4
  804280:	10001e1e 	bne	r2,zero,8042fc <__swsetup_r+0x104>
  804284:	80c00417 	ldw	r3,16(r16)
  804288:	20800214 	ori	r2,r4,8
  80428c:	8080030d 	sth	r2,12(r16)
  804290:	183feb1e 	bne	r3,zero,804240 <__alt_data_end+0xff804240>
  804294:	1100a00c 	andi	r4,r2,640
  804298:	01408004 	movi	r5,512
  80429c:	217fe826 	beq	r4,r5,804240 <__alt_data_end+0xff804240>
  8042a0:	800b883a 	mov	r5,r16
  8042a4:	8809883a 	mov	r4,r17
  8042a8:	08051e80 	call	8051e8 <__smakebuf_r>
  8042ac:	8080030b 	ldhu	r2,12(r16)
  8042b0:	80c00417 	ldw	r3,16(r16)
  8042b4:	003fe206 	br	804240 <__alt_data_end+0xff804240>
  8042b8:	80800517 	ldw	r2,20(r16)
  8042bc:	80000215 	stw	zero,8(r16)
  8042c0:	0085c83a 	sub	r2,zero,r2
  8042c4:	80800615 	stw	r2,24(r16)
  8042c8:	183fe41e 	bne	r3,zero,80425c <__alt_data_end+0xff80425c>
  8042cc:	80c0030b 	ldhu	r3,12(r16)
  8042d0:	0005883a 	mov	r2,zero
  8042d4:	1900200c 	andi	r4,r3,128
  8042d8:	203fe126 	beq	r4,zero,804260 <__alt_data_end+0xff804260>
  8042dc:	18c01014 	ori	r3,r3,64
  8042e0:	80c0030d 	sth	r3,12(r16)
  8042e4:	00bfffc4 	movi	r2,-1
  8042e8:	003fdd06 	br	804260 <__alt_data_end+0xff804260>
  8042ec:	0804bdc0 	call	804bdc <__sinit>
  8042f0:	003fcd06 	br	804228 <__alt_data_end+0xff804228>
  8042f4:	0005883a 	mov	r2,zero
  8042f8:	003fd606 	br	804254 <__alt_data_end+0xff804254>
  8042fc:	81400c17 	ldw	r5,48(r16)
  804300:	28000626 	beq	r5,zero,80431c <__swsetup_r+0x124>
  804304:	80801004 	addi	r2,r16,64
  804308:	28800326 	beq	r5,r2,804318 <__swsetup_r+0x120>
  80430c:	8809883a 	mov	r4,r17
  804310:	0804d500 	call	804d50 <_free_r>
  804314:	8100030b 	ldhu	r4,12(r16)
  804318:	80000c15 	stw	zero,48(r16)
  80431c:	80c00417 	ldw	r3,16(r16)
  804320:	00bff6c4 	movi	r2,-37
  804324:	1108703a 	and	r4,r2,r4
  804328:	80000115 	stw	zero,4(r16)
  80432c:	80c00015 	stw	r3,0(r16)
  804330:	003fd506 	br	804288 <__alt_data_end+0xff804288>
  804334:	00800244 	movi	r2,9
  804338:	88800015 	stw	r2,0(r17)
  80433c:	20801014 	ori	r2,r4,64
  804340:	8080030d 	sth	r2,12(r16)
  804344:	00bfffc4 	movi	r2,-1
  804348:	003fc506 	br	804260 <__alt_data_end+0xff804260>

0080434c <__register_exitproc>:
  80434c:	defffa04 	addi	sp,sp,-24
  804350:	dc000315 	stw	r16,12(sp)
  804354:	04002034 	movhi	r16,128
  804358:	841e1204 	addi	r16,r16,30792
  80435c:	80c00017 	ldw	r3,0(r16)
  804360:	dc400415 	stw	r17,16(sp)
  804364:	dfc00515 	stw	ra,20(sp)
  804368:	18805217 	ldw	r2,328(r3)
  80436c:	2023883a 	mov	r17,r4
  804370:	10003726 	beq	r2,zero,804450 <__register_exitproc+0x104>
  804374:	10c00117 	ldw	r3,4(r2)
  804378:	010007c4 	movi	r4,31
  80437c:	20c00e16 	blt	r4,r3,8043b8 <__register_exitproc+0x6c>
  804380:	1a000044 	addi	r8,r3,1
  804384:	8800221e 	bne	r17,zero,804410 <__register_exitproc+0xc4>
  804388:	18c00084 	addi	r3,r3,2
  80438c:	18c7883a 	add	r3,r3,r3
  804390:	18c7883a 	add	r3,r3,r3
  804394:	12000115 	stw	r8,4(r2)
  804398:	10c7883a 	add	r3,r2,r3
  80439c:	19400015 	stw	r5,0(r3)
  8043a0:	0005883a 	mov	r2,zero
  8043a4:	dfc00517 	ldw	ra,20(sp)
  8043a8:	dc400417 	ldw	r17,16(sp)
  8043ac:	dc000317 	ldw	r16,12(sp)
  8043b0:	dec00604 	addi	sp,sp,24
  8043b4:	f800283a 	ret
  8043b8:	00800034 	movhi	r2,0
  8043bc:	10800004 	addi	r2,r2,0
  8043c0:	10002626 	beq	r2,zero,80445c <__register_exitproc+0x110>
  8043c4:	01006404 	movi	r4,400
  8043c8:	d9400015 	stw	r5,0(sp)
  8043cc:	d9800115 	stw	r6,4(sp)
  8043d0:	d9c00215 	stw	r7,8(sp)
  8043d4:	00000000 	call	0 <__alt_mem_sdram_0-0x800000>
  8043d8:	d9400017 	ldw	r5,0(sp)
  8043dc:	d9800117 	ldw	r6,4(sp)
  8043e0:	d9c00217 	ldw	r7,8(sp)
  8043e4:	10001d26 	beq	r2,zero,80445c <__register_exitproc+0x110>
  8043e8:	81000017 	ldw	r4,0(r16)
  8043ec:	10000115 	stw	zero,4(r2)
  8043f0:	02000044 	movi	r8,1
  8043f4:	22405217 	ldw	r9,328(r4)
  8043f8:	0007883a 	mov	r3,zero
  8043fc:	12400015 	stw	r9,0(r2)
  804400:	20805215 	stw	r2,328(r4)
  804404:	10006215 	stw	zero,392(r2)
  804408:	10006315 	stw	zero,396(r2)
  80440c:	883fde26 	beq	r17,zero,804388 <__alt_data_end+0xff804388>
  804410:	18c9883a 	add	r4,r3,r3
  804414:	2109883a 	add	r4,r4,r4
  804418:	1109883a 	add	r4,r2,r4
  80441c:	21802215 	stw	r6,136(r4)
  804420:	01800044 	movi	r6,1
  804424:	12406217 	ldw	r9,392(r2)
  804428:	30cc983a 	sll	r6,r6,r3
  80442c:	4992b03a 	or	r9,r9,r6
  804430:	12406215 	stw	r9,392(r2)
  804434:	21c04215 	stw	r7,264(r4)
  804438:	01000084 	movi	r4,2
  80443c:	893fd21e 	bne	r17,r4,804388 <__alt_data_end+0xff804388>
  804440:	11006317 	ldw	r4,396(r2)
  804444:	218cb03a 	or	r6,r4,r6
  804448:	11806315 	stw	r6,396(r2)
  80444c:	003fce06 	br	804388 <__alt_data_end+0xff804388>
  804450:	18805304 	addi	r2,r3,332
  804454:	18805215 	stw	r2,328(r3)
  804458:	003fc606 	br	804374 <__alt_data_end+0xff804374>
  80445c:	00bfffc4 	movi	r2,-1
  804460:	003fd006 	br	8043a4 <__alt_data_end+0xff8043a4>

00804464 <__call_exitprocs>:
  804464:	defff504 	addi	sp,sp,-44
  804468:	df000915 	stw	fp,36(sp)
  80446c:	dd400615 	stw	r21,24(sp)
  804470:	dc800315 	stw	r18,12(sp)
  804474:	dfc00a15 	stw	ra,40(sp)
  804478:	ddc00815 	stw	r23,32(sp)
  80447c:	dd800715 	stw	r22,28(sp)
  804480:	dd000515 	stw	r20,20(sp)
  804484:	dcc00415 	stw	r19,16(sp)
  804488:	dc400215 	stw	r17,8(sp)
  80448c:	dc000115 	stw	r16,4(sp)
  804490:	d9000015 	stw	r4,0(sp)
  804494:	2839883a 	mov	fp,r5
  804498:	04800044 	movi	r18,1
  80449c:	057fffc4 	movi	r21,-1
  8044a0:	00802034 	movhi	r2,128
  8044a4:	109e1204 	addi	r2,r2,30792
  8044a8:	12000017 	ldw	r8,0(r2)
  8044ac:	45005217 	ldw	r20,328(r8)
  8044b0:	44c05204 	addi	r19,r8,328
  8044b4:	a0001c26 	beq	r20,zero,804528 <__call_exitprocs+0xc4>
  8044b8:	a0800117 	ldw	r2,4(r20)
  8044bc:	15ffffc4 	addi	r23,r2,-1
  8044c0:	b8000d16 	blt	r23,zero,8044f8 <__call_exitprocs+0x94>
  8044c4:	14000044 	addi	r16,r2,1
  8044c8:	8421883a 	add	r16,r16,r16
  8044cc:	8421883a 	add	r16,r16,r16
  8044d0:	84402004 	addi	r17,r16,128
  8044d4:	a463883a 	add	r17,r20,r17
  8044d8:	a421883a 	add	r16,r20,r16
  8044dc:	e0001e26 	beq	fp,zero,804558 <__call_exitprocs+0xf4>
  8044e0:	80804017 	ldw	r2,256(r16)
  8044e4:	e0801c26 	beq	fp,r2,804558 <__call_exitprocs+0xf4>
  8044e8:	bdffffc4 	addi	r23,r23,-1
  8044ec:	843fff04 	addi	r16,r16,-4
  8044f0:	8c7fff04 	addi	r17,r17,-4
  8044f4:	bd7ff91e 	bne	r23,r21,8044dc <__alt_data_end+0xff8044dc>
  8044f8:	00800034 	movhi	r2,0
  8044fc:	10800004 	addi	r2,r2,0
  804500:	10000926 	beq	r2,zero,804528 <__call_exitprocs+0xc4>
  804504:	a0800117 	ldw	r2,4(r20)
  804508:	1000301e 	bne	r2,zero,8045cc <__call_exitprocs+0x168>
  80450c:	a0800017 	ldw	r2,0(r20)
  804510:	10003226 	beq	r2,zero,8045dc <__call_exitprocs+0x178>
  804514:	a009883a 	mov	r4,r20
  804518:	98800015 	stw	r2,0(r19)
  80451c:	00000000 	call	0 <__alt_mem_sdram_0-0x800000>
  804520:	9d000017 	ldw	r20,0(r19)
  804524:	a03fe41e 	bne	r20,zero,8044b8 <__alt_data_end+0xff8044b8>
  804528:	dfc00a17 	ldw	ra,40(sp)
  80452c:	df000917 	ldw	fp,36(sp)
  804530:	ddc00817 	ldw	r23,32(sp)
  804534:	dd800717 	ldw	r22,28(sp)
  804538:	dd400617 	ldw	r21,24(sp)
  80453c:	dd000517 	ldw	r20,20(sp)
  804540:	dcc00417 	ldw	r19,16(sp)
  804544:	dc800317 	ldw	r18,12(sp)
  804548:	dc400217 	ldw	r17,8(sp)
  80454c:	dc000117 	ldw	r16,4(sp)
  804550:	dec00b04 	addi	sp,sp,44
  804554:	f800283a 	ret
  804558:	a0800117 	ldw	r2,4(r20)
  80455c:	80c00017 	ldw	r3,0(r16)
  804560:	10bfffc4 	addi	r2,r2,-1
  804564:	15c01426 	beq	r2,r23,8045b8 <__call_exitprocs+0x154>
  804568:	80000015 	stw	zero,0(r16)
  80456c:	183fde26 	beq	r3,zero,8044e8 <__alt_data_end+0xff8044e8>
  804570:	95c8983a 	sll	r4,r18,r23
  804574:	a0806217 	ldw	r2,392(r20)
  804578:	a5800117 	ldw	r22,4(r20)
  80457c:	2084703a 	and	r2,r4,r2
  804580:	10000b26 	beq	r2,zero,8045b0 <__call_exitprocs+0x14c>
  804584:	a0806317 	ldw	r2,396(r20)
  804588:	2088703a 	and	r4,r4,r2
  80458c:	20000c1e 	bne	r4,zero,8045c0 <__call_exitprocs+0x15c>
  804590:	89400017 	ldw	r5,0(r17)
  804594:	d9000017 	ldw	r4,0(sp)
  804598:	183ee83a 	callr	r3
  80459c:	a0800117 	ldw	r2,4(r20)
  8045a0:	15bfbf1e 	bne	r2,r22,8044a0 <__alt_data_end+0xff8044a0>
  8045a4:	98800017 	ldw	r2,0(r19)
  8045a8:	153fcf26 	beq	r2,r20,8044e8 <__alt_data_end+0xff8044e8>
  8045ac:	003fbc06 	br	8044a0 <__alt_data_end+0xff8044a0>
  8045b0:	183ee83a 	callr	r3
  8045b4:	003ff906 	br	80459c <__alt_data_end+0xff80459c>
  8045b8:	a5c00115 	stw	r23,4(r20)
  8045bc:	003feb06 	br	80456c <__alt_data_end+0xff80456c>
  8045c0:	89000017 	ldw	r4,0(r17)
  8045c4:	183ee83a 	callr	r3
  8045c8:	003ff406 	br	80459c <__alt_data_end+0xff80459c>
  8045cc:	a0800017 	ldw	r2,0(r20)
  8045d0:	a027883a 	mov	r19,r20
  8045d4:	1029883a 	mov	r20,r2
  8045d8:	003fb606 	br	8044b4 <__alt_data_end+0xff8044b4>
  8045dc:	0005883a 	mov	r2,zero
  8045e0:	003ffb06 	br	8045d0 <__alt_data_end+0xff8045d0>

008045e4 <__sflush_r>:
  8045e4:	2880030b 	ldhu	r2,12(r5)
  8045e8:	defffb04 	addi	sp,sp,-20
  8045ec:	dcc00315 	stw	r19,12(sp)
  8045f0:	dc400115 	stw	r17,4(sp)
  8045f4:	dfc00415 	stw	ra,16(sp)
  8045f8:	dc800215 	stw	r18,8(sp)
  8045fc:	dc000015 	stw	r16,0(sp)
  804600:	10c0020c 	andi	r3,r2,8
  804604:	2823883a 	mov	r17,r5
  804608:	2027883a 	mov	r19,r4
  80460c:	1800311e 	bne	r3,zero,8046d4 <__sflush_r+0xf0>
  804610:	28c00117 	ldw	r3,4(r5)
  804614:	10820014 	ori	r2,r2,2048
  804618:	2880030d 	sth	r2,12(r5)
  80461c:	00c04b0e 	bge	zero,r3,80474c <__sflush_r+0x168>
  804620:	8a000a17 	ldw	r8,40(r17)
  804624:	40002326 	beq	r8,zero,8046b4 <__sflush_r+0xd0>
  804628:	9c000017 	ldw	r16,0(r19)
  80462c:	10c4000c 	andi	r3,r2,4096
  804630:	98000015 	stw	zero,0(r19)
  804634:	18004826 	beq	r3,zero,804758 <__sflush_r+0x174>
  804638:	89801417 	ldw	r6,80(r17)
  80463c:	10c0010c 	andi	r3,r2,4
  804640:	18000626 	beq	r3,zero,80465c <__sflush_r+0x78>
  804644:	88c00117 	ldw	r3,4(r17)
  804648:	88800c17 	ldw	r2,48(r17)
  80464c:	30cdc83a 	sub	r6,r6,r3
  804650:	10000226 	beq	r2,zero,80465c <__sflush_r+0x78>
  804654:	88800f17 	ldw	r2,60(r17)
  804658:	308dc83a 	sub	r6,r6,r2
  80465c:	89400717 	ldw	r5,28(r17)
  804660:	000f883a 	mov	r7,zero
  804664:	9809883a 	mov	r4,r19
  804668:	403ee83a 	callr	r8
  80466c:	00ffffc4 	movi	r3,-1
  804670:	10c04426 	beq	r2,r3,804784 <__sflush_r+0x1a0>
  804674:	88c0030b 	ldhu	r3,12(r17)
  804678:	89000417 	ldw	r4,16(r17)
  80467c:	88000115 	stw	zero,4(r17)
  804680:	197dffcc 	andi	r5,r3,63487
  804684:	8940030d 	sth	r5,12(r17)
  804688:	89000015 	stw	r4,0(r17)
  80468c:	18c4000c 	andi	r3,r3,4096
  804690:	18002c1e 	bne	r3,zero,804744 <__sflush_r+0x160>
  804694:	89400c17 	ldw	r5,48(r17)
  804698:	9c000015 	stw	r16,0(r19)
  80469c:	28000526 	beq	r5,zero,8046b4 <__sflush_r+0xd0>
  8046a0:	88801004 	addi	r2,r17,64
  8046a4:	28800226 	beq	r5,r2,8046b0 <__sflush_r+0xcc>
  8046a8:	9809883a 	mov	r4,r19
  8046ac:	0804d500 	call	804d50 <_free_r>
  8046b0:	88000c15 	stw	zero,48(r17)
  8046b4:	0005883a 	mov	r2,zero
  8046b8:	dfc00417 	ldw	ra,16(sp)
  8046bc:	dcc00317 	ldw	r19,12(sp)
  8046c0:	dc800217 	ldw	r18,8(sp)
  8046c4:	dc400117 	ldw	r17,4(sp)
  8046c8:	dc000017 	ldw	r16,0(sp)
  8046cc:	dec00504 	addi	sp,sp,20
  8046d0:	f800283a 	ret
  8046d4:	2c800417 	ldw	r18,16(r5)
  8046d8:	903ff626 	beq	r18,zero,8046b4 <__alt_data_end+0xff8046b4>
  8046dc:	2c000017 	ldw	r16,0(r5)
  8046e0:	108000cc 	andi	r2,r2,3
  8046e4:	2c800015 	stw	r18,0(r5)
  8046e8:	84a1c83a 	sub	r16,r16,r18
  8046ec:	1000131e 	bne	r2,zero,80473c <__sflush_r+0x158>
  8046f0:	28800517 	ldw	r2,20(r5)
  8046f4:	88800215 	stw	r2,8(r17)
  8046f8:	04000316 	blt	zero,r16,804708 <__sflush_r+0x124>
  8046fc:	003fed06 	br	8046b4 <__alt_data_end+0xff8046b4>
  804700:	90a5883a 	add	r18,r18,r2
  804704:	043feb0e 	bge	zero,r16,8046b4 <__alt_data_end+0xff8046b4>
  804708:	88800917 	ldw	r2,36(r17)
  80470c:	89400717 	ldw	r5,28(r17)
  804710:	800f883a 	mov	r7,r16
  804714:	900d883a 	mov	r6,r18
  804718:	9809883a 	mov	r4,r19
  80471c:	103ee83a 	callr	r2
  804720:	80a1c83a 	sub	r16,r16,r2
  804724:	00bff616 	blt	zero,r2,804700 <__alt_data_end+0xff804700>
  804728:	88c0030b 	ldhu	r3,12(r17)
  80472c:	00bfffc4 	movi	r2,-1
  804730:	18c01014 	ori	r3,r3,64
  804734:	88c0030d 	sth	r3,12(r17)
  804738:	003fdf06 	br	8046b8 <__alt_data_end+0xff8046b8>
  80473c:	0005883a 	mov	r2,zero
  804740:	003fec06 	br	8046f4 <__alt_data_end+0xff8046f4>
  804744:	88801415 	stw	r2,80(r17)
  804748:	003fd206 	br	804694 <__alt_data_end+0xff804694>
  80474c:	28c00f17 	ldw	r3,60(r5)
  804750:	00ffb316 	blt	zero,r3,804620 <__alt_data_end+0xff804620>
  804754:	003fd706 	br	8046b4 <__alt_data_end+0xff8046b4>
  804758:	89400717 	ldw	r5,28(r17)
  80475c:	000d883a 	mov	r6,zero
  804760:	01c00044 	movi	r7,1
  804764:	9809883a 	mov	r4,r19
  804768:	403ee83a 	callr	r8
  80476c:	100d883a 	mov	r6,r2
  804770:	00bfffc4 	movi	r2,-1
  804774:	30801426 	beq	r6,r2,8047c8 <__sflush_r+0x1e4>
  804778:	8880030b 	ldhu	r2,12(r17)
  80477c:	8a000a17 	ldw	r8,40(r17)
  804780:	003fae06 	br	80463c <__alt_data_end+0xff80463c>
  804784:	98c00017 	ldw	r3,0(r19)
  804788:	183fba26 	beq	r3,zero,804674 <__alt_data_end+0xff804674>
  80478c:	01000744 	movi	r4,29
  804790:	19000626 	beq	r3,r4,8047ac <__sflush_r+0x1c8>
  804794:	01000584 	movi	r4,22
  804798:	19000426 	beq	r3,r4,8047ac <__sflush_r+0x1c8>
  80479c:	88c0030b 	ldhu	r3,12(r17)
  8047a0:	18c01014 	ori	r3,r3,64
  8047a4:	88c0030d 	sth	r3,12(r17)
  8047a8:	003fc306 	br	8046b8 <__alt_data_end+0xff8046b8>
  8047ac:	8880030b 	ldhu	r2,12(r17)
  8047b0:	88c00417 	ldw	r3,16(r17)
  8047b4:	88000115 	stw	zero,4(r17)
  8047b8:	10bdffcc 	andi	r2,r2,63487
  8047bc:	8880030d 	sth	r2,12(r17)
  8047c0:	88c00015 	stw	r3,0(r17)
  8047c4:	003fb306 	br	804694 <__alt_data_end+0xff804694>
  8047c8:	98800017 	ldw	r2,0(r19)
  8047cc:	103fea26 	beq	r2,zero,804778 <__alt_data_end+0xff804778>
  8047d0:	00c00744 	movi	r3,29
  8047d4:	10c00226 	beq	r2,r3,8047e0 <__sflush_r+0x1fc>
  8047d8:	00c00584 	movi	r3,22
  8047dc:	10c0031e 	bne	r2,r3,8047ec <__sflush_r+0x208>
  8047e0:	9c000015 	stw	r16,0(r19)
  8047e4:	0005883a 	mov	r2,zero
  8047e8:	003fb306 	br	8046b8 <__alt_data_end+0xff8046b8>
  8047ec:	88c0030b 	ldhu	r3,12(r17)
  8047f0:	3005883a 	mov	r2,r6
  8047f4:	18c01014 	ori	r3,r3,64
  8047f8:	88c0030d 	sth	r3,12(r17)
  8047fc:	003fae06 	br	8046b8 <__alt_data_end+0xff8046b8>

00804800 <_fflush_r>:
  804800:	defffd04 	addi	sp,sp,-12
  804804:	dc000115 	stw	r16,4(sp)
  804808:	dfc00215 	stw	ra,8(sp)
  80480c:	2021883a 	mov	r16,r4
  804810:	20000226 	beq	r4,zero,80481c <_fflush_r+0x1c>
  804814:	20800e17 	ldw	r2,56(r4)
  804818:	10000c26 	beq	r2,zero,80484c <_fflush_r+0x4c>
  80481c:	2880030f 	ldh	r2,12(r5)
  804820:	1000051e 	bne	r2,zero,804838 <_fflush_r+0x38>
  804824:	0005883a 	mov	r2,zero
  804828:	dfc00217 	ldw	ra,8(sp)
  80482c:	dc000117 	ldw	r16,4(sp)
  804830:	dec00304 	addi	sp,sp,12
  804834:	f800283a 	ret
  804838:	8009883a 	mov	r4,r16
  80483c:	dfc00217 	ldw	ra,8(sp)
  804840:	dc000117 	ldw	r16,4(sp)
  804844:	dec00304 	addi	sp,sp,12
  804848:	08045e41 	jmpi	8045e4 <__sflush_r>
  80484c:	d9400015 	stw	r5,0(sp)
  804850:	0804bdc0 	call	804bdc <__sinit>
  804854:	d9400017 	ldw	r5,0(sp)
  804858:	003ff006 	br	80481c <__alt_data_end+0xff80481c>

0080485c <fflush>:
  80485c:	20000526 	beq	r4,zero,804874 <fflush+0x18>
  804860:	00802034 	movhi	r2,128
  804864:	109e1304 	addi	r2,r2,30796
  804868:	200b883a 	mov	r5,r4
  80486c:	11000017 	ldw	r4,0(r2)
  804870:	08048001 	jmpi	804800 <_fflush_r>
  804874:	00802034 	movhi	r2,128
  804878:	109e1204 	addi	r2,r2,30792
  80487c:	11000017 	ldw	r4,0(r2)
  804880:	01402034 	movhi	r5,128
  804884:	29520004 	addi	r5,r5,18432
  804888:	08051241 	jmpi	805124 <_fwalk_reent>

0080488c <__fp_unlock>:
  80488c:	0005883a 	mov	r2,zero
  804890:	f800283a 	ret

00804894 <_cleanup_r>:
  804894:	01402034 	movhi	r5,128
  804898:	29577d04 	addi	r5,r5,24052
  80489c:	08051241 	jmpi	805124 <_fwalk_reent>

008048a0 <__sinit.part.1>:
  8048a0:	defff704 	addi	sp,sp,-36
  8048a4:	00c02034 	movhi	r3,128
  8048a8:	dfc00815 	stw	ra,32(sp)
  8048ac:	ddc00715 	stw	r23,28(sp)
  8048b0:	dd800615 	stw	r22,24(sp)
  8048b4:	dd400515 	stw	r21,20(sp)
  8048b8:	dd000415 	stw	r20,16(sp)
  8048bc:	dcc00315 	stw	r19,12(sp)
  8048c0:	dc800215 	stw	r18,8(sp)
  8048c4:	dc400115 	stw	r17,4(sp)
  8048c8:	dc000015 	stw	r16,0(sp)
  8048cc:	18d22504 	addi	r3,r3,18580
  8048d0:	24000117 	ldw	r16,4(r4)
  8048d4:	20c00f15 	stw	r3,60(r4)
  8048d8:	2080bb04 	addi	r2,r4,748
  8048dc:	00c000c4 	movi	r3,3
  8048e0:	20c0b915 	stw	r3,740(r4)
  8048e4:	2080ba15 	stw	r2,744(r4)
  8048e8:	2000b815 	stw	zero,736(r4)
  8048ec:	05c00204 	movi	r23,8
  8048f0:	00800104 	movi	r2,4
  8048f4:	2025883a 	mov	r18,r4
  8048f8:	b80d883a 	mov	r6,r23
  8048fc:	81001704 	addi	r4,r16,92
  804900:	000b883a 	mov	r5,zero
  804904:	80000015 	stw	zero,0(r16)
  804908:	80000115 	stw	zero,4(r16)
  80490c:	80000215 	stw	zero,8(r16)
  804910:	8080030d 	sth	r2,12(r16)
  804914:	80001915 	stw	zero,100(r16)
  804918:	8000038d 	sth	zero,14(r16)
  80491c:	80000415 	stw	zero,16(r16)
  804920:	80000515 	stw	zero,20(r16)
  804924:	80000615 	stw	zero,24(r16)
  804928:	0803d780 	call	803d78 <memset>
  80492c:	05802034 	movhi	r22,128
  804930:	94400217 	ldw	r17,8(r18)
  804934:	05402034 	movhi	r21,128
  804938:	05002034 	movhi	r20,128
  80493c:	04c02034 	movhi	r19,128
  804940:	b5970104 	addi	r22,r22,23556
  804944:	ad571804 	addi	r21,r21,23648
  804948:	a5173704 	addi	r20,r20,23772
  80494c:	9cd74e04 	addi	r19,r19,23864
  804950:	85800815 	stw	r22,32(r16)
  804954:	85400915 	stw	r21,36(r16)
  804958:	85000a15 	stw	r20,40(r16)
  80495c:	84c00b15 	stw	r19,44(r16)
  804960:	84000715 	stw	r16,28(r16)
  804964:	00800284 	movi	r2,10
  804968:	8880030d 	sth	r2,12(r17)
  80496c:	00800044 	movi	r2,1
  804970:	b80d883a 	mov	r6,r23
  804974:	89001704 	addi	r4,r17,92
  804978:	000b883a 	mov	r5,zero
  80497c:	88000015 	stw	zero,0(r17)
  804980:	88000115 	stw	zero,4(r17)
  804984:	88000215 	stw	zero,8(r17)
  804988:	88001915 	stw	zero,100(r17)
  80498c:	8880038d 	sth	r2,14(r17)
  804990:	88000415 	stw	zero,16(r17)
  804994:	88000515 	stw	zero,20(r17)
  804998:	88000615 	stw	zero,24(r17)
  80499c:	0803d780 	call	803d78 <memset>
  8049a0:	94000317 	ldw	r16,12(r18)
  8049a4:	00800484 	movi	r2,18
  8049a8:	8c400715 	stw	r17,28(r17)
  8049ac:	8d800815 	stw	r22,32(r17)
  8049b0:	8d400915 	stw	r21,36(r17)
  8049b4:	8d000a15 	stw	r20,40(r17)
  8049b8:	8cc00b15 	stw	r19,44(r17)
  8049bc:	8080030d 	sth	r2,12(r16)
  8049c0:	00800084 	movi	r2,2
  8049c4:	80000015 	stw	zero,0(r16)
  8049c8:	80000115 	stw	zero,4(r16)
  8049cc:	80000215 	stw	zero,8(r16)
  8049d0:	80001915 	stw	zero,100(r16)
  8049d4:	8080038d 	sth	r2,14(r16)
  8049d8:	80000415 	stw	zero,16(r16)
  8049dc:	80000515 	stw	zero,20(r16)
  8049e0:	80000615 	stw	zero,24(r16)
  8049e4:	b80d883a 	mov	r6,r23
  8049e8:	000b883a 	mov	r5,zero
  8049ec:	81001704 	addi	r4,r16,92
  8049f0:	0803d780 	call	803d78 <memset>
  8049f4:	00800044 	movi	r2,1
  8049f8:	84000715 	stw	r16,28(r16)
  8049fc:	85800815 	stw	r22,32(r16)
  804a00:	85400915 	stw	r21,36(r16)
  804a04:	85000a15 	stw	r20,40(r16)
  804a08:	84c00b15 	stw	r19,44(r16)
  804a0c:	90800e15 	stw	r2,56(r18)
  804a10:	dfc00817 	ldw	ra,32(sp)
  804a14:	ddc00717 	ldw	r23,28(sp)
  804a18:	dd800617 	ldw	r22,24(sp)
  804a1c:	dd400517 	ldw	r21,20(sp)
  804a20:	dd000417 	ldw	r20,16(sp)
  804a24:	dcc00317 	ldw	r19,12(sp)
  804a28:	dc800217 	ldw	r18,8(sp)
  804a2c:	dc400117 	ldw	r17,4(sp)
  804a30:	dc000017 	ldw	r16,0(sp)
  804a34:	dec00904 	addi	sp,sp,36
  804a38:	f800283a 	ret

00804a3c <__fp_lock>:
  804a3c:	0005883a 	mov	r2,zero
  804a40:	f800283a 	ret

00804a44 <__sfmoreglue>:
  804a44:	defffc04 	addi	sp,sp,-16
  804a48:	dc400115 	stw	r17,4(sp)
  804a4c:	2c7fffc4 	addi	r17,r5,-1
  804a50:	8c401a24 	muli	r17,r17,104
  804a54:	dc800215 	stw	r18,8(sp)
  804a58:	2825883a 	mov	r18,r5
  804a5c:	89401d04 	addi	r5,r17,116
  804a60:	dc000015 	stw	r16,0(sp)
  804a64:	dfc00315 	stw	ra,12(sp)
  804a68:	08053a40 	call	8053a4 <_malloc_r>
  804a6c:	1021883a 	mov	r16,r2
  804a70:	10000726 	beq	r2,zero,804a90 <__sfmoreglue+0x4c>
  804a74:	11000304 	addi	r4,r2,12
  804a78:	10000015 	stw	zero,0(r2)
  804a7c:	14800115 	stw	r18,4(r2)
  804a80:	11000215 	stw	r4,8(r2)
  804a84:	89801a04 	addi	r6,r17,104
  804a88:	000b883a 	mov	r5,zero
  804a8c:	0803d780 	call	803d78 <memset>
  804a90:	8005883a 	mov	r2,r16
  804a94:	dfc00317 	ldw	ra,12(sp)
  804a98:	dc800217 	ldw	r18,8(sp)
  804a9c:	dc400117 	ldw	r17,4(sp)
  804aa0:	dc000017 	ldw	r16,0(sp)
  804aa4:	dec00404 	addi	sp,sp,16
  804aa8:	f800283a 	ret

00804aac <__sfp>:
  804aac:	defffb04 	addi	sp,sp,-20
  804ab0:	dc000015 	stw	r16,0(sp)
  804ab4:	04002034 	movhi	r16,128
  804ab8:	841e1204 	addi	r16,r16,30792
  804abc:	dcc00315 	stw	r19,12(sp)
  804ac0:	2027883a 	mov	r19,r4
  804ac4:	81000017 	ldw	r4,0(r16)
  804ac8:	dfc00415 	stw	ra,16(sp)
  804acc:	dc800215 	stw	r18,8(sp)
  804ad0:	20800e17 	ldw	r2,56(r4)
  804ad4:	dc400115 	stw	r17,4(sp)
  804ad8:	1000021e 	bne	r2,zero,804ae4 <__sfp+0x38>
  804adc:	08048a00 	call	8048a0 <__sinit.part.1>
  804ae0:	81000017 	ldw	r4,0(r16)
  804ae4:	2480b804 	addi	r18,r4,736
  804ae8:	047fffc4 	movi	r17,-1
  804aec:	91000117 	ldw	r4,4(r18)
  804af0:	94000217 	ldw	r16,8(r18)
  804af4:	213fffc4 	addi	r4,r4,-1
  804af8:	20000a16 	blt	r4,zero,804b24 <__sfp+0x78>
  804afc:	8080030f 	ldh	r2,12(r16)
  804b00:	10000c26 	beq	r2,zero,804b34 <__sfp+0x88>
  804b04:	80c01d04 	addi	r3,r16,116
  804b08:	00000206 	br	804b14 <__sfp+0x68>
  804b0c:	18bfe60f 	ldh	r2,-104(r3)
  804b10:	10000826 	beq	r2,zero,804b34 <__sfp+0x88>
  804b14:	213fffc4 	addi	r4,r4,-1
  804b18:	1c3ffd04 	addi	r16,r3,-12
  804b1c:	18c01a04 	addi	r3,r3,104
  804b20:	247ffa1e 	bne	r4,r17,804b0c <__alt_data_end+0xff804b0c>
  804b24:	90800017 	ldw	r2,0(r18)
  804b28:	10001d26 	beq	r2,zero,804ba0 <__sfp+0xf4>
  804b2c:	1025883a 	mov	r18,r2
  804b30:	003fee06 	br	804aec <__alt_data_end+0xff804aec>
  804b34:	00bfffc4 	movi	r2,-1
  804b38:	8080038d 	sth	r2,14(r16)
  804b3c:	00800044 	movi	r2,1
  804b40:	8080030d 	sth	r2,12(r16)
  804b44:	80001915 	stw	zero,100(r16)
  804b48:	80000015 	stw	zero,0(r16)
  804b4c:	80000215 	stw	zero,8(r16)
  804b50:	80000115 	stw	zero,4(r16)
  804b54:	80000415 	stw	zero,16(r16)
  804b58:	80000515 	stw	zero,20(r16)
  804b5c:	80000615 	stw	zero,24(r16)
  804b60:	01800204 	movi	r6,8
  804b64:	000b883a 	mov	r5,zero
  804b68:	81001704 	addi	r4,r16,92
  804b6c:	0803d780 	call	803d78 <memset>
  804b70:	8005883a 	mov	r2,r16
  804b74:	80000c15 	stw	zero,48(r16)
  804b78:	80000d15 	stw	zero,52(r16)
  804b7c:	80001115 	stw	zero,68(r16)
  804b80:	80001215 	stw	zero,72(r16)
  804b84:	dfc00417 	ldw	ra,16(sp)
  804b88:	dcc00317 	ldw	r19,12(sp)
  804b8c:	dc800217 	ldw	r18,8(sp)
  804b90:	dc400117 	ldw	r17,4(sp)
  804b94:	dc000017 	ldw	r16,0(sp)
  804b98:	dec00504 	addi	sp,sp,20
  804b9c:	f800283a 	ret
  804ba0:	01400104 	movi	r5,4
  804ba4:	9809883a 	mov	r4,r19
  804ba8:	0804a440 	call	804a44 <__sfmoreglue>
  804bac:	90800015 	stw	r2,0(r18)
  804bb0:	103fde1e 	bne	r2,zero,804b2c <__alt_data_end+0xff804b2c>
  804bb4:	00800304 	movi	r2,12
  804bb8:	98800015 	stw	r2,0(r19)
  804bbc:	0005883a 	mov	r2,zero
  804bc0:	003ff006 	br	804b84 <__alt_data_end+0xff804b84>

00804bc4 <_cleanup>:
  804bc4:	00802034 	movhi	r2,128
  804bc8:	109e1204 	addi	r2,r2,30792
  804bcc:	11000017 	ldw	r4,0(r2)
  804bd0:	01402034 	movhi	r5,128
  804bd4:	29577d04 	addi	r5,r5,24052
  804bd8:	08051241 	jmpi	805124 <_fwalk_reent>

00804bdc <__sinit>:
  804bdc:	20800e17 	ldw	r2,56(r4)
  804be0:	10000126 	beq	r2,zero,804be8 <__sinit+0xc>
  804be4:	f800283a 	ret
  804be8:	08048a01 	jmpi	8048a0 <__sinit.part.1>

00804bec <__sfp_lock_acquire>:
  804bec:	f800283a 	ret

00804bf0 <__sfp_lock_release>:
  804bf0:	f800283a 	ret

00804bf4 <__sinit_lock_acquire>:
  804bf4:	f800283a 	ret

00804bf8 <__sinit_lock_release>:
  804bf8:	f800283a 	ret

00804bfc <__fp_lock_all>:
  804bfc:	00802034 	movhi	r2,128
  804c00:	109e1304 	addi	r2,r2,30796
  804c04:	11000017 	ldw	r4,0(r2)
  804c08:	01402034 	movhi	r5,128
  804c0c:	29528f04 	addi	r5,r5,19004
  804c10:	08050601 	jmpi	805060 <_fwalk>

00804c14 <__fp_unlock_all>:
  804c14:	00802034 	movhi	r2,128
  804c18:	109e1304 	addi	r2,r2,30796
  804c1c:	11000017 	ldw	r4,0(r2)
  804c20:	01402034 	movhi	r5,128
  804c24:	29522304 	addi	r5,r5,18572
  804c28:	08050601 	jmpi	805060 <_fwalk>

00804c2c <_malloc_trim_r>:
  804c2c:	defffb04 	addi	sp,sp,-20
  804c30:	dcc00315 	stw	r19,12(sp)
  804c34:	04c02034 	movhi	r19,128
  804c38:	dc800215 	stw	r18,8(sp)
  804c3c:	dc400115 	stw	r17,4(sp)
  804c40:	dc000015 	stw	r16,0(sp)
  804c44:	dfc00415 	stw	ra,16(sp)
  804c48:	2821883a 	mov	r16,r5
  804c4c:	9cdd0504 	addi	r19,r19,29716
  804c50:	2025883a 	mov	r18,r4
  804c54:	080652c0 	call	80652c <__malloc_lock>
  804c58:	98800217 	ldw	r2,8(r19)
  804c5c:	14400117 	ldw	r17,4(r2)
  804c60:	00bfff04 	movi	r2,-4
  804c64:	88a2703a 	and	r17,r17,r2
  804c68:	8c21c83a 	sub	r16,r17,r16
  804c6c:	8403fbc4 	addi	r16,r16,4079
  804c70:	8020d33a 	srli	r16,r16,12
  804c74:	0083ffc4 	movi	r2,4095
  804c78:	843fffc4 	addi	r16,r16,-1
  804c7c:	8020933a 	slli	r16,r16,12
  804c80:	1400060e 	bge	r2,r16,804c9c <_malloc_trim_r+0x70>
  804c84:	000b883a 	mov	r5,zero
  804c88:	9009883a 	mov	r4,r18
  804c8c:	0805bb00 	call	805bb0 <_sbrk_r>
  804c90:	98c00217 	ldw	r3,8(r19)
  804c94:	1c47883a 	add	r3,r3,r17
  804c98:	10c00a26 	beq	r2,r3,804cc4 <_malloc_trim_r+0x98>
  804c9c:	9009883a 	mov	r4,r18
  804ca0:	08065500 	call	806550 <__malloc_unlock>
  804ca4:	0005883a 	mov	r2,zero
  804ca8:	dfc00417 	ldw	ra,16(sp)
  804cac:	dcc00317 	ldw	r19,12(sp)
  804cb0:	dc800217 	ldw	r18,8(sp)
  804cb4:	dc400117 	ldw	r17,4(sp)
  804cb8:	dc000017 	ldw	r16,0(sp)
  804cbc:	dec00504 	addi	sp,sp,20
  804cc0:	f800283a 	ret
  804cc4:	040bc83a 	sub	r5,zero,r16
  804cc8:	9009883a 	mov	r4,r18
  804ccc:	0805bb00 	call	805bb0 <_sbrk_r>
  804cd0:	00ffffc4 	movi	r3,-1
  804cd4:	10c00d26 	beq	r2,r3,804d0c <_malloc_trim_r+0xe0>
  804cd8:	00c02074 	movhi	r3,129
  804cdc:	18e14304 	addi	r3,r3,-31476
  804ce0:	18800017 	ldw	r2,0(r3)
  804ce4:	99000217 	ldw	r4,8(r19)
  804ce8:	8c23c83a 	sub	r17,r17,r16
  804cec:	8c400054 	ori	r17,r17,1
  804cf0:	1421c83a 	sub	r16,r2,r16
  804cf4:	24400115 	stw	r17,4(r4)
  804cf8:	9009883a 	mov	r4,r18
  804cfc:	1c000015 	stw	r16,0(r3)
  804d00:	08065500 	call	806550 <__malloc_unlock>
  804d04:	00800044 	movi	r2,1
  804d08:	003fe706 	br	804ca8 <__alt_data_end+0xff804ca8>
  804d0c:	000b883a 	mov	r5,zero
  804d10:	9009883a 	mov	r4,r18
  804d14:	0805bb00 	call	805bb0 <_sbrk_r>
  804d18:	99000217 	ldw	r4,8(r19)
  804d1c:	014003c4 	movi	r5,15
  804d20:	1107c83a 	sub	r3,r2,r4
  804d24:	28ffdd0e 	bge	r5,r3,804c9c <__alt_data_end+0xff804c9c>
  804d28:	01402034 	movhi	r5,128
  804d2c:	295e1404 	addi	r5,r5,30800
  804d30:	29400017 	ldw	r5,0(r5)
  804d34:	18c00054 	ori	r3,r3,1
  804d38:	20c00115 	stw	r3,4(r4)
  804d3c:	00c02074 	movhi	r3,129
  804d40:	1145c83a 	sub	r2,r2,r5
  804d44:	18e14304 	addi	r3,r3,-31476
  804d48:	18800015 	stw	r2,0(r3)
  804d4c:	003fd306 	br	804c9c <__alt_data_end+0xff804c9c>

00804d50 <_free_r>:
  804d50:	28004126 	beq	r5,zero,804e58 <_free_r+0x108>
  804d54:	defffd04 	addi	sp,sp,-12
  804d58:	dc400115 	stw	r17,4(sp)
  804d5c:	dc000015 	stw	r16,0(sp)
  804d60:	2023883a 	mov	r17,r4
  804d64:	2821883a 	mov	r16,r5
  804d68:	dfc00215 	stw	ra,8(sp)
  804d6c:	080652c0 	call	80652c <__malloc_lock>
  804d70:	81ffff17 	ldw	r7,-4(r16)
  804d74:	00bfff84 	movi	r2,-2
  804d78:	01002034 	movhi	r4,128
  804d7c:	81bffe04 	addi	r6,r16,-8
  804d80:	3884703a 	and	r2,r7,r2
  804d84:	211d0504 	addi	r4,r4,29716
  804d88:	308b883a 	add	r5,r6,r2
  804d8c:	2a400117 	ldw	r9,4(r5)
  804d90:	22000217 	ldw	r8,8(r4)
  804d94:	00ffff04 	movi	r3,-4
  804d98:	48c6703a 	and	r3,r9,r3
  804d9c:	2a005726 	beq	r5,r8,804efc <_free_r+0x1ac>
  804da0:	28c00115 	stw	r3,4(r5)
  804da4:	39c0004c 	andi	r7,r7,1
  804da8:	3800091e 	bne	r7,zero,804dd0 <_free_r+0x80>
  804dac:	823ffe17 	ldw	r8,-8(r16)
  804db0:	22400204 	addi	r9,r4,8
  804db4:	320dc83a 	sub	r6,r6,r8
  804db8:	31c00217 	ldw	r7,8(r6)
  804dbc:	1205883a 	add	r2,r2,r8
  804dc0:	3a406526 	beq	r7,r9,804f58 <_free_r+0x208>
  804dc4:	32000317 	ldw	r8,12(r6)
  804dc8:	3a000315 	stw	r8,12(r7)
  804dcc:	41c00215 	stw	r7,8(r8)
  804dd0:	28cf883a 	add	r7,r5,r3
  804dd4:	39c00117 	ldw	r7,4(r7)
  804dd8:	39c0004c 	andi	r7,r7,1
  804ddc:	38003a26 	beq	r7,zero,804ec8 <_free_r+0x178>
  804de0:	10c00054 	ori	r3,r2,1
  804de4:	30c00115 	stw	r3,4(r6)
  804de8:	3087883a 	add	r3,r6,r2
  804dec:	18800015 	stw	r2,0(r3)
  804df0:	00c07fc4 	movi	r3,511
  804df4:	18801936 	bltu	r3,r2,804e5c <_free_r+0x10c>
  804df8:	1004d0fa 	srli	r2,r2,3
  804dfc:	01c00044 	movi	r7,1
  804e00:	21400117 	ldw	r5,4(r4)
  804e04:	10c00044 	addi	r3,r2,1
  804e08:	18c7883a 	add	r3,r3,r3
  804e0c:	1005d0ba 	srai	r2,r2,2
  804e10:	18c7883a 	add	r3,r3,r3
  804e14:	18c7883a 	add	r3,r3,r3
  804e18:	1907883a 	add	r3,r3,r4
  804e1c:	3884983a 	sll	r2,r7,r2
  804e20:	19c00017 	ldw	r7,0(r3)
  804e24:	1a3ffe04 	addi	r8,r3,-8
  804e28:	1144b03a 	or	r2,r2,r5
  804e2c:	32000315 	stw	r8,12(r6)
  804e30:	31c00215 	stw	r7,8(r6)
  804e34:	20800115 	stw	r2,4(r4)
  804e38:	19800015 	stw	r6,0(r3)
  804e3c:	39800315 	stw	r6,12(r7)
  804e40:	8809883a 	mov	r4,r17
  804e44:	dfc00217 	ldw	ra,8(sp)
  804e48:	dc400117 	ldw	r17,4(sp)
  804e4c:	dc000017 	ldw	r16,0(sp)
  804e50:	dec00304 	addi	sp,sp,12
  804e54:	08065501 	jmpi	806550 <__malloc_unlock>
  804e58:	f800283a 	ret
  804e5c:	100ad27a 	srli	r5,r2,9
  804e60:	00c00104 	movi	r3,4
  804e64:	19404a36 	bltu	r3,r5,804f90 <_free_r+0x240>
  804e68:	100ad1ba 	srli	r5,r2,6
  804e6c:	28c00e44 	addi	r3,r5,57
  804e70:	18c7883a 	add	r3,r3,r3
  804e74:	29400e04 	addi	r5,r5,56
  804e78:	18c7883a 	add	r3,r3,r3
  804e7c:	18c7883a 	add	r3,r3,r3
  804e80:	1909883a 	add	r4,r3,r4
  804e84:	20c00017 	ldw	r3,0(r4)
  804e88:	01c02034 	movhi	r7,128
  804e8c:	213ffe04 	addi	r4,r4,-8
  804e90:	39dd0504 	addi	r7,r7,29716
  804e94:	20c04426 	beq	r4,r3,804fa8 <_free_r+0x258>
  804e98:	01ffff04 	movi	r7,-4
  804e9c:	19400117 	ldw	r5,4(r3)
  804ea0:	29ca703a 	and	r5,r5,r7
  804ea4:	1140022e 	bgeu	r2,r5,804eb0 <_free_r+0x160>
  804ea8:	18c00217 	ldw	r3,8(r3)
  804eac:	20fffb1e 	bne	r4,r3,804e9c <__alt_data_end+0xff804e9c>
  804eb0:	19000317 	ldw	r4,12(r3)
  804eb4:	31000315 	stw	r4,12(r6)
  804eb8:	30c00215 	stw	r3,8(r6)
  804ebc:	21800215 	stw	r6,8(r4)
  804ec0:	19800315 	stw	r6,12(r3)
  804ec4:	003fde06 	br	804e40 <__alt_data_end+0xff804e40>
  804ec8:	29c00217 	ldw	r7,8(r5)
  804ecc:	10c5883a 	add	r2,r2,r3
  804ed0:	00c02034 	movhi	r3,128
  804ed4:	18dd0704 	addi	r3,r3,29724
  804ed8:	38c03b26 	beq	r7,r3,804fc8 <_free_r+0x278>
  804edc:	2a000317 	ldw	r8,12(r5)
  804ee0:	11400054 	ori	r5,r2,1
  804ee4:	3087883a 	add	r3,r6,r2
  804ee8:	3a000315 	stw	r8,12(r7)
  804eec:	41c00215 	stw	r7,8(r8)
  804ef0:	31400115 	stw	r5,4(r6)
  804ef4:	18800015 	stw	r2,0(r3)
  804ef8:	003fbd06 	br	804df0 <__alt_data_end+0xff804df0>
  804efc:	39c0004c 	andi	r7,r7,1
  804f00:	10c5883a 	add	r2,r2,r3
  804f04:	3800071e 	bne	r7,zero,804f24 <_free_r+0x1d4>
  804f08:	81fffe17 	ldw	r7,-8(r16)
  804f0c:	31cdc83a 	sub	r6,r6,r7
  804f10:	30c00317 	ldw	r3,12(r6)
  804f14:	31400217 	ldw	r5,8(r6)
  804f18:	11c5883a 	add	r2,r2,r7
  804f1c:	28c00315 	stw	r3,12(r5)
  804f20:	19400215 	stw	r5,8(r3)
  804f24:	10c00054 	ori	r3,r2,1
  804f28:	30c00115 	stw	r3,4(r6)
  804f2c:	00c02034 	movhi	r3,128
  804f30:	18de1504 	addi	r3,r3,30804
  804f34:	18c00017 	ldw	r3,0(r3)
  804f38:	21800215 	stw	r6,8(r4)
  804f3c:	10ffc036 	bltu	r2,r3,804e40 <__alt_data_end+0xff804e40>
  804f40:	00802074 	movhi	r2,129
  804f44:	10a14204 	addi	r2,r2,-31480
  804f48:	11400017 	ldw	r5,0(r2)
  804f4c:	8809883a 	mov	r4,r17
  804f50:	0804c2c0 	call	804c2c <_malloc_trim_r>
  804f54:	003fba06 	br	804e40 <__alt_data_end+0xff804e40>
  804f58:	28c9883a 	add	r4,r5,r3
  804f5c:	21000117 	ldw	r4,4(r4)
  804f60:	2100004c 	andi	r4,r4,1
  804f64:	2000391e 	bne	r4,zero,80504c <_free_r+0x2fc>
  804f68:	29c00217 	ldw	r7,8(r5)
  804f6c:	29000317 	ldw	r4,12(r5)
  804f70:	1885883a 	add	r2,r3,r2
  804f74:	10c00054 	ori	r3,r2,1
  804f78:	39000315 	stw	r4,12(r7)
  804f7c:	21c00215 	stw	r7,8(r4)
  804f80:	30c00115 	stw	r3,4(r6)
  804f84:	308d883a 	add	r6,r6,r2
  804f88:	30800015 	stw	r2,0(r6)
  804f8c:	003fac06 	br	804e40 <__alt_data_end+0xff804e40>
  804f90:	00c00504 	movi	r3,20
  804f94:	19401536 	bltu	r3,r5,804fec <_free_r+0x29c>
  804f98:	28c01704 	addi	r3,r5,92
  804f9c:	18c7883a 	add	r3,r3,r3
  804fa0:	294016c4 	addi	r5,r5,91
  804fa4:	003fb406 	br	804e78 <__alt_data_end+0xff804e78>
  804fa8:	280bd0ba 	srai	r5,r5,2
  804fac:	00c00044 	movi	r3,1
  804fb0:	38800117 	ldw	r2,4(r7)
  804fb4:	194a983a 	sll	r5,r3,r5
  804fb8:	2007883a 	mov	r3,r4
  804fbc:	2884b03a 	or	r2,r5,r2
  804fc0:	38800115 	stw	r2,4(r7)
  804fc4:	003fbb06 	br	804eb4 <__alt_data_end+0xff804eb4>
  804fc8:	21800515 	stw	r6,20(r4)
  804fcc:	21800415 	stw	r6,16(r4)
  804fd0:	10c00054 	ori	r3,r2,1
  804fd4:	31c00315 	stw	r7,12(r6)
  804fd8:	31c00215 	stw	r7,8(r6)
  804fdc:	30c00115 	stw	r3,4(r6)
  804fe0:	308d883a 	add	r6,r6,r2
  804fe4:	30800015 	stw	r2,0(r6)
  804fe8:	003f9506 	br	804e40 <__alt_data_end+0xff804e40>
  804fec:	00c01504 	movi	r3,84
  804ff0:	19400536 	bltu	r3,r5,805008 <_free_r+0x2b8>
  804ff4:	100ad33a 	srli	r5,r2,12
  804ff8:	28c01bc4 	addi	r3,r5,111
  804ffc:	18c7883a 	add	r3,r3,r3
  805000:	29401b84 	addi	r5,r5,110
  805004:	003f9c06 	br	804e78 <__alt_data_end+0xff804e78>
  805008:	00c05504 	movi	r3,340
  80500c:	19400536 	bltu	r3,r5,805024 <_free_r+0x2d4>
  805010:	100ad3fa 	srli	r5,r2,15
  805014:	28c01e04 	addi	r3,r5,120
  805018:	18c7883a 	add	r3,r3,r3
  80501c:	29401dc4 	addi	r5,r5,119
  805020:	003f9506 	br	804e78 <__alt_data_end+0xff804e78>
  805024:	00c15504 	movi	r3,1364
  805028:	19400536 	bltu	r3,r5,805040 <_free_r+0x2f0>
  80502c:	100ad4ba 	srli	r5,r2,18
  805030:	28c01f44 	addi	r3,r5,125
  805034:	18c7883a 	add	r3,r3,r3
  805038:	29401f04 	addi	r5,r5,124
  80503c:	003f8e06 	br	804e78 <__alt_data_end+0xff804e78>
  805040:	00c03f84 	movi	r3,254
  805044:	01401f84 	movi	r5,126
  805048:	003f8b06 	br	804e78 <__alt_data_end+0xff804e78>
  80504c:	10c00054 	ori	r3,r2,1
  805050:	30c00115 	stw	r3,4(r6)
  805054:	308d883a 	add	r6,r6,r2
  805058:	30800015 	stw	r2,0(r6)
  80505c:	003f7806 	br	804e40 <__alt_data_end+0xff804e40>

00805060 <_fwalk>:
  805060:	defff704 	addi	sp,sp,-36
  805064:	dd000415 	stw	r20,16(sp)
  805068:	dfc00815 	stw	ra,32(sp)
  80506c:	ddc00715 	stw	r23,28(sp)
  805070:	dd800615 	stw	r22,24(sp)
  805074:	dd400515 	stw	r21,20(sp)
  805078:	dcc00315 	stw	r19,12(sp)
  80507c:	dc800215 	stw	r18,8(sp)
  805080:	dc400115 	stw	r17,4(sp)
  805084:	dc000015 	stw	r16,0(sp)
  805088:	2500b804 	addi	r20,r4,736
  80508c:	a0002326 	beq	r20,zero,80511c <_fwalk+0xbc>
  805090:	282b883a 	mov	r21,r5
  805094:	002f883a 	mov	r23,zero
  805098:	05800044 	movi	r22,1
  80509c:	04ffffc4 	movi	r19,-1
  8050a0:	a4400117 	ldw	r17,4(r20)
  8050a4:	a4800217 	ldw	r18,8(r20)
  8050a8:	8c7fffc4 	addi	r17,r17,-1
  8050ac:	88000d16 	blt	r17,zero,8050e4 <_fwalk+0x84>
  8050b0:	94000304 	addi	r16,r18,12
  8050b4:	94800384 	addi	r18,r18,14
  8050b8:	8080000b 	ldhu	r2,0(r16)
  8050bc:	8c7fffc4 	addi	r17,r17,-1
  8050c0:	813ffd04 	addi	r4,r16,-12
  8050c4:	b080042e 	bgeu	r22,r2,8050d8 <_fwalk+0x78>
  8050c8:	9080000f 	ldh	r2,0(r18)
  8050cc:	14c00226 	beq	r2,r19,8050d8 <_fwalk+0x78>
  8050d0:	a83ee83a 	callr	r21
  8050d4:	b8aeb03a 	or	r23,r23,r2
  8050d8:	84001a04 	addi	r16,r16,104
  8050dc:	94801a04 	addi	r18,r18,104
  8050e0:	8cfff51e 	bne	r17,r19,8050b8 <__alt_data_end+0xff8050b8>
  8050e4:	a5000017 	ldw	r20,0(r20)
  8050e8:	a03fed1e 	bne	r20,zero,8050a0 <__alt_data_end+0xff8050a0>
  8050ec:	b805883a 	mov	r2,r23
  8050f0:	dfc00817 	ldw	ra,32(sp)
  8050f4:	ddc00717 	ldw	r23,28(sp)
  8050f8:	dd800617 	ldw	r22,24(sp)
  8050fc:	dd400517 	ldw	r21,20(sp)
  805100:	dd000417 	ldw	r20,16(sp)
  805104:	dcc00317 	ldw	r19,12(sp)
  805108:	dc800217 	ldw	r18,8(sp)
  80510c:	dc400117 	ldw	r17,4(sp)
  805110:	dc000017 	ldw	r16,0(sp)
  805114:	dec00904 	addi	sp,sp,36
  805118:	f800283a 	ret
  80511c:	002f883a 	mov	r23,zero
  805120:	003ff206 	br	8050ec <__alt_data_end+0xff8050ec>

00805124 <_fwalk_reent>:
  805124:	defff704 	addi	sp,sp,-36
  805128:	dd000415 	stw	r20,16(sp)
  80512c:	dfc00815 	stw	ra,32(sp)
  805130:	ddc00715 	stw	r23,28(sp)
  805134:	dd800615 	stw	r22,24(sp)
  805138:	dd400515 	stw	r21,20(sp)
  80513c:	dcc00315 	stw	r19,12(sp)
  805140:	dc800215 	stw	r18,8(sp)
  805144:	dc400115 	stw	r17,4(sp)
  805148:	dc000015 	stw	r16,0(sp)
  80514c:	2500b804 	addi	r20,r4,736
  805150:	a0002326 	beq	r20,zero,8051e0 <_fwalk_reent+0xbc>
  805154:	282b883a 	mov	r21,r5
  805158:	2027883a 	mov	r19,r4
  80515c:	002f883a 	mov	r23,zero
  805160:	05800044 	movi	r22,1
  805164:	04bfffc4 	movi	r18,-1
  805168:	a4400117 	ldw	r17,4(r20)
  80516c:	a4000217 	ldw	r16,8(r20)
  805170:	8c7fffc4 	addi	r17,r17,-1
  805174:	88000c16 	blt	r17,zero,8051a8 <_fwalk_reent+0x84>
  805178:	84000304 	addi	r16,r16,12
  80517c:	8080000b 	ldhu	r2,0(r16)
  805180:	8c7fffc4 	addi	r17,r17,-1
  805184:	817ffd04 	addi	r5,r16,-12
  805188:	b080052e 	bgeu	r22,r2,8051a0 <_fwalk_reent+0x7c>
  80518c:	8080008f 	ldh	r2,2(r16)
  805190:	9809883a 	mov	r4,r19
  805194:	14800226 	beq	r2,r18,8051a0 <_fwalk_reent+0x7c>
  805198:	a83ee83a 	callr	r21
  80519c:	b8aeb03a 	or	r23,r23,r2
  8051a0:	84001a04 	addi	r16,r16,104
  8051a4:	8cbff51e 	bne	r17,r18,80517c <__alt_data_end+0xff80517c>
  8051a8:	a5000017 	ldw	r20,0(r20)
  8051ac:	a03fee1e 	bne	r20,zero,805168 <__alt_data_end+0xff805168>
  8051b0:	b805883a 	mov	r2,r23
  8051b4:	dfc00817 	ldw	ra,32(sp)
  8051b8:	ddc00717 	ldw	r23,28(sp)
  8051bc:	dd800617 	ldw	r22,24(sp)
  8051c0:	dd400517 	ldw	r21,20(sp)
  8051c4:	dd000417 	ldw	r20,16(sp)
  8051c8:	dcc00317 	ldw	r19,12(sp)
  8051cc:	dc800217 	ldw	r18,8(sp)
  8051d0:	dc400117 	ldw	r17,4(sp)
  8051d4:	dc000017 	ldw	r16,0(sp)
  8051d8:	dec00904 	addi	sp,sp,36
  8051dc:	f800283a 	ret
  8051e0:	002f883a 	mov	r23,zero
  8051e4:	003ff206 	br	8051b0 <__alt_data_end+0xff8051b0>

008051e8 <__smakebuf_r>:
  8051e8:	2880030b 	ldhu	r2,12(r5)
  8051ec:	10c0008c 	andi	r3,r2,2
  8051f0:	1800411e 	bne	r3,zero,8052f8 <__smakebuf_r+0x110>
  8051f4:	deffec04 	addi	sp,sp,-80
  8051f8:	dc000f15 	stw	r16,60(sp)
  8051fc:	2821883a 	mov	r16,r5
  805200:	2940038f 	ldh	r5,14(r5)
  805204:	dc401015 	stw	r17,64(sp)
  805208:	dfc01315 	stw	ra,76(sp)
  80520c:	dcc01215 	stw	r19,72(sp)
  805210:	dc801115 	stw	r18,68(sp)
  805214:	2023883a 	mov	r17,r4
  805218:	28001c16 	blt	r5,zero,80528c <__smakebuf_r+0xa4>
  80521c:	d80d883a 	mov	r6,sp
  805220:	0805ef80 	call	805ef8 <_fstat_r>
  805224:	10001816 	blt	r2,zero,805288 <__smakebuf_r+0xa0>
  805228:	d8800117 	ldw	r2,4(sp)
  80522c:	00e00014 	movui	r3,32768
  805230:	10bc000c 	andi	r2,r2,61440
  805234:	14c80020 	cmpeqi	r19,r2,8192
  805238:	10c03726 	beq	r2,r3,805318 <__smakebuf_r+0x130>
  80523c:	80c0030b 	ldhu	r3,12(r16)
  805240:	18c20014 	ori	r3,r3,2048
  805244:	80c0030d 	sth	r3,12(r16)
  805248:	00c80004 	movi	r3,8192
  80524c:	10c0521e 	bne	r2,r3,805398 <__smakebuf_r+0x1b0>
  805250:	8140038f 	ldh	r5,14(r16)
  805254:	8809883a 	mov	r4,r17
  805258:	0805f540 	call	805f54 <_isatty_r>
  80525c:	10004c26 	beq	r2,zero,805390 <__smakebuf_r+0x1a8>
  805260:	8080030b 	ldhu	r2,12(r16)
  805264:	80c010c4 	addi	r3,r16,67
  805268:	80c00015 	stw	r3,0(r16)
  80526c:	10800054 	ori	r2,r2,1
  805270:	8080030d 	sth	r2,12(r16)
  805274:	00800044 	movi	r2,1
  805278:	80c00415 	stw	r3,16(r16)
  80527c:	80800515 	stw	r2,20(r16)
  805280:	04810004 	movi	r18,1024
  805284:	00000706 	br	8052a4 <__smakebuf_r+0xbc>
  805288:	8080030b 	ldhu	r2,12(r16)
  80528c:	10c0200c 	andi	r3,r2,128
  805290:	18001f1e 	bne	r3,zero,805310 <__smakebuf_r+0x128>
  805294:	04810004 	movi	r18,1024
  805298:	10820014 	ori	r2,r2,2048
  80529c:	8080030d 	sth	r2,12(r16)
  8052a0:	0027883a 	mov	r19,zero
  8052a4:	900b883a 	mov	r5,r18
  8052a8:	8809883a 	mov	r4,r17
  8052ac:	08053a40 	call	8053a4 <_malloc_r>
  8052b0:	10002c26 	beq	r2,zero,805364 <__smakebuf_r+0x17c>
  8052b4:	80c0030b 	ldhu	r3,12(r16)
  8052b8:	01002034 	movhi	r4,128
  8052bc:	21122504 	addi	r4,r4,18580
  8052c0:	89000f15 	stw	r4,60(r17)
  8052c4:	18c02014 	ori	r3,r3,128
  8052c8:	80c0030d 	sth	r3,12(r16)
  8052cc:	80800015 	stw	r2,0(r16)
  8052d0:	80800415 	stw	r2,16(r16)
  8052d4:	84800515 	stw	r18,20(r16)
  8052d8:	98001a1e 	bne	r19,zero,805344 <__smakebuf_r+0x15c>
  8052dc:	dfc01317 	ldw	ra,76(sp)
  8052e0:	dcc01217 	ldw	r19,72(sp)
  8052e4:	dc801117 	ldw	r18,68(sp)
  8052e8:	dc401017 	ldw	r17,64(sp)
  8052ec:	dc000f17 	ldw	r16,60(sp)
  8052f0:	dec01404 	addi	sp,sp,80
  8052f4:	f800283a 	ret
  8052f8:	288010c4 	addi	r2,r5,67
  8052fc:	28800015 	stw	r2,0(r5)
  805300:	28800415 	stw	r2,16(r5)
  805304:	00800044 	movi	r2,1
  805308:	28800515 	stw	r2,20(r5)
  80530c:	f800283a 	ret
  805310:	04801004 	movi	r18,64
  805314:	003fe006 	br	805298 <__alt_data_end+0xff805298>
  805318:	81000a17 	ldw	r4,40(r16)
  80531c:	00c02034 	movhi	r3,128
  805320:	18d73704 	addi	r3,r3,23772
  805324:	20ffc51e 	bne	r4,r3,80523c <__alt_data_end+0xff80523c>
  805328:	8080030b 	ldhu	r2,12(r16)
  80532c:	04810004 	movi	r18,1024
  805330:	84801315 	stw	r18,76(r16)
  805334:	1484b03a 	or	r2,r2,r18
  805338:	8080030d 	sth	r2,12(r16)
  80533c:	0027883a 	mov	r19,zero
  805340:	003fd806 	br	8052a4 <__alt_data_end+0xff8052a4>
  805344:	8140038f 	ldh	r5,14(r16)
  805348:	8809883a 	mov	r4,r17
  80534c:	0805f540 	call	805f54 <_isatty_r>
  805350:	103fe226 	beq	r2,zero,8052dc <__alt_data_end+0xff8052dc>
  805354:	8080030b 	ldhu	r2,12(r16)
  805358:	10800054 	ori	r2,r2,1
  80535c:	8080030d 	sth	r2,12(r16)
  805360:	003fde06 	br	8052dc <__alt_data_end+0xff8052dc>
  805364:	8080030b 	ldhu	r2,12(r16)
  805368:	10c0800c 	andi	r3,r2,512
  80536c:	183fdb1e 	bne	r3,zero,8052dc <__alt_data_end+0xff8052dc>
  805370:	10800094 	ori	r2,r2,2
  805374:	80c010c4 	addi	r3,r16,67
  805378:	8080030d 	sth	r2,12(r16)
  80537c:	00800044 	movi	r2,1
  805380:	80c00015 	stw	r3,0(r16)
  805384:	80c00415 	stw	r3,16(r16)
  805388:	80800515 	stw	r2,20(r16)
  80538c:	003fd306 	br	8052dc <__alt_data_end+0xff8052dc>
  805390:	04810004 	movi	r18,1024
  805394:	003fc306 	br	8052a4 <__alt_data_end+0xff8052a4>
  805398:	0027883a 	mov	r19,zero
  80539c:	04810004 	movi	r18,1024
  8053a0:	003fc006 	br	8052a4 <__alt_data_end+0xff8052a4>

008053a4 <_malloc_r>:
  8053a4:	defff504 	addi	sp,sp,-44
  8053a8:	dc800315 	stw	r18,12(sp)
  8053ac:	dfc00a15 	stw	ra,40(sp)
  8053b0:	df000915 	stw	fp,36(sp)
  8053b4:	ddc00815 	stw	r23,32(sp)
  8053b8:	dd800715 	stw	r22,28(sp)
  8053bc:	dd400615 	stw	r21,24(sp)
  8053c0:	dd000515 	stw	r20,20(sp)
  8053c4:	dcc00415 	stw	r19,16(sp)
  8053c8:	dc400215 	stw	r17,8(sp)
  8053cc:	dc000115 	stw	r16,4(sp)
  8053d0:	288002c4 	addi	r2,r5,11
  8053d4:	00c00584 	movi	r3,22
  8053d8:	2025883a 	mov	r18,r4
  8053dc:	18807f2e 	bgeu	r3,r2,8055dc <_malloc_r+0x238>
  8053e0:	047ffe04 	movi	r17,-8
  8053e4:	1462703a 	and	r17,r2,r17
  8053e8:	8800a316 	blt	r17,zero,805678 <_malloc_r+0x2d4>
  8053ec:	8940a236 	bltu	r17,r5,805678 <_malloc_r+0x2d4>
  8053f0:	080652c0 	call	80652c <__malloc_lock>
  8053f4:	00807dc4 	movi	r2,503
  8053f8:	1441e92e 	bgeu	r2,r17,805ba0 <_malloc_r+0x7fc>
  8053fc:	8804d27a 	srli	r2,r17,9
  805400:	1000a126 	beq	r2,zero,805688 <_malloc_r+0x2e4>
  805404:	00c00104 	movi	r3,4
  805408:	18811e36 	bltu	r3,r2,805884 <_malloc_r+0x4e0>
  80540c:	8804d1ba 	srli	r2,r17,6
  805410:	12000e44 	addi	r8,r2,57
  805414:	11c00e04 	addi	r7,r2,56
  805418:	4209883a 	add	r4,r8,r8
  80541c:	04c02034 	movhi	r19,128
  805420:	2109883a 	add	r4,r4,r4
  805424:	9cdd0504 	addi	r19,r19,29716
  805428:	2109883a 	add	r4,r4,r4
  80542c:	9909883a 	add	r4,r19,r4
  805430:	24000117 	ldw	r16,4(r4)
  805434:	213ffe04 	addi	r4,r4,-8
  805438:	24009726 	beq	r4,r16,805698 <_malloc_r+0x2f4>
  80543c:	80800117 	ldw	r2,4(r16)
  805440:	01bfff04 	movi	r6,-4
  805444:	014003c4 	movi	r5,15
  805448:	1184703a 	and	r2,r2,r6
  80544c:	1447c83a 	sub	r3,r2,r17
  805450:	28c00716 	blt	r5,r3,805470 <_malloc_r+0xcc>
  805454:	1800920e 	bge	r3,zero,8056a0 <_malloc_r+0x2fc>
  805458:	84000317 	ldw	r16,12(r16)
  80545c:	24008e26 	beq	r4,r16,805698 <_malloc_r+0x2f4>
  805460:	80800117 	ldw	r2,4(r16)
  805464:	1184703a 	and	r2,r2,r6
  805468:	1447c83a 	sub	r3,r2,r17
  80546c:	28fff90e 	bge	r5,r3,805454 <__alt_data_end+0xff805454>
  805470:	3809883a 	mov	r4,r7
  805474:	01802034 	movhi	r6,128
  805478:	9c000417 	ldw	r16,16(r19)
  80547c:	319d0504 	addi	r6,r6,29716
  805480:	32000204 	addi	r8,r6,8
  805484:	82013426 	beq	r16,r8,805958 <_malloc_r+0x5b4>
  805488:	80c00117 	ldw	r3,4(r16)
  80548c:	00bfff04 	movi	r2,-4
  805490:	188e703a 	and	r7,r3,r2
  805494:	3c45c83a 	sub	r2,r7,r17
  805498:	00c003c4 	movi	r3,15
  80549c:	18811f16 	blt	r3,r2,80591c <_malloc_r+0x578>
  8054a0:	32000515 	stw	r8,20(r6)
  8054a4:	32000415 	stw	r8,16(r6)
  8054a8:	10007f0e 	bge	r2,zero,8056a8 <_malloc_r+0x304>
  8054ac:	00807fc4 	movi	r2,511
  8054b0:	11c0fd36 	bltu	r2,r7,8058a8 <_malloc_r+0x504>
  8054b4:	3806d0fa 	srli	r3,r7,3
  8054b8:	01c00044 	movi	r7,1
  8054bc:	30800117 	ldw	r2,4(r6)
  8054c0:	19400044 	addi	r5,r3,1
  8054c4:	294b883a 	add	r5,r5,r5
  8054c8:	1807d0ba 	srai	r3,r3,2
  8054cc:	294b883a 	add	r5,r5,r5
  8054d0:	294b883a 	add	r5,r5,r5
  8054d4:	298b883a 	add	r5,r5,r6
  8054d8:	38c6983a 	sll	r3,r7,r3
  8054dc:	29c00017 	ldw	r7,0(r5)
  8054e0:	2a7ffe04 	addi	r9,r5,-8
  8054e4:	1886b03a 	or	r3,r3,r2
  8054e8:	82400315 	stw	r9,12(r16)
  8054ec:	81c00215 	stw	r7,8(r16)
  8054f0:	30c00115 	stw	r3,4(r6)
  8054f4:	2c000015 	stw	r16,0(r5)
  8054f8:	3c000315 	stw	r16,12(r7)
  8054fc:	2005d0ba 	srai	r2,r4,2
  805500:	01400044 	movi	r5,1
  805504:	288a983a 	sll	r5,r5,r2
  805508:	19406f36 	bltu	r3,r5,8056c8 <_malloc_r+0x324>
  80550c:	28c4703a 	and	r2,r5,r3
  805510:	10000a1e 	bne	r2,zero,80553c <_malloc_r+0x198>
  805514:	00bfff04 	movi	r2,-4
  805518:	294b883a 	add	r5,r5,r5
  80551c:	2088703a 	and	r4,r4,r2
  805520:	28c4703a 	and	r2,r5,r3
  805524:	21000104 	addi	r4,r4,4
  805528:	1000041e 	bne	r2,zero,80553c <_malloc_r+0x198>
  80552c:	294b883a 	add	r5,r5,r5
  805530:	28c4703a 	and	r2,r5,r3
  805534:	21000104 	addi	r4,r4,4
  805538:	103ffc26 	beq	r2,zero,80552c <__alt_data_end+0xff80552c>
  80553c:	02bfff04 	movi	r10,-4
  805540:	024003c4 	movi	r9,15
  805544:	21800044 	addi	r6,r4,1
  805548:	318d883a 	add	r6,r6,r6
  80554c:	318d883a 	add	r6,r6,r6
  805550:	318d883a 	add	r6,r6,r6
  805554:	998d883a 	add	r6,r19,r6
  805558:	333ffe04 	addi	r12,r6,-8
  80555c:	2017883a 	mov	r11,r4
  805560:	31800104 	addi	r6,r6,4
  805564:	34000017 	ldw	r16,0(r6)
  805568:	31fffd04 	addi	r7,r6,-12
  80556c:	81c0041e 	bne	r16,r7,805580 <_malloc_r+0x1dc>
  805570:	0000fb06 	br	805960 <_malloc_r+0x5bc>
  805574:	1801030e 	bge	r3,zero,805984 <_malloc_r+0x5e0>
  805578:	84000317 	ldw	r16,12(r16)
  80557c:	81c0f826 	beq	r16,r7,805960 <_malloc_r+0x5bc>
  805580:	80800117 	ldw	r2,4(r16)
  805584:	1284703a 	and	r2,r2,r10
  805588:	1447c83a 	sub	r3,r2,r17
  80558c:	48fff90e 	bge	r9,r3,805574 <__alt_data_end+0xff805574>
  805590:	80800317 	ldw	r2,12(r16)
  805594:	81000217 	ldw	r4,8(r16)
  805598:	89400054 	ori	r5,r17,1
  80559c:	81400115 	stw	r5,4(r16)
  8055a0:	20800315 	stw	r2,12(r4)
  8055a4:	11000215 	stw	r4,8(r2)
  8055a8:	8463883a 	add	r17,r16,r17
  8055ac:	9c400515 	stw	r17,20(r19)
  8055b0:	9c400415 	stw	r17,16(r19)
  8055b4:	18800054 	ori	r2,r3,1
  8055b8:	88800115 	stw	r2,4(r17)
  8055bc:	8a000315 	stw	r8,12(r17)
  8055c0:	8a000215 	stw	r8,8(r17)
  8055c4:	88e3883a 	add	r17,r17,r3
  8055c8:	88c00015 	stw	r3,0(r17)
  8055cc:	9009883a 	mov	r4,r18
  8055d0:	08065500 	call	806550 <__malloc_unlock>
  8055d4:	80800204 	addi	r2,r16,8
  8055d8:	00001b06 	br	805648 <_malloc_r+0x2a4>
  8055dc:	04400404 	movi	r17,16
  8055e0:	89402536 	bltu	r17,r5,805678 <_malloc_r+0x2d4>
  8055e4:	080652c0 	call	80652c <__malloc_lock>
  8055e8:	00800184 	movi	r2,6
  8055ec:	01000084 	movi	r4,2
  8055f0:	04c02034 	movhi	r19,128
  8055f4:	1085883a 	add	r2,r2,r2
  8055f8:	9cdd0504 	addi	r19,r19,29716
  8055fc:	1085883a 	add	r2,r2,r2
  805600:	9885883a 	add	r2,r19,r2
  805604:	14000117 	ldw	r16,4(r2)
  805608:	10fffe04 	addi	r3,r2,-8
  80560c:	80c0d926 	beq	r16,r3,805974 <_malloc_r+0x5d0>
  805610:	80c00117 	ldw	r3,4(r16)
  805614:	81000317 	ldw	r4,12(r16)
  805618:	00bfff04 	movi	r2,-4
  80561c:	1884703a 	and	r2,r3,r2
  805620:	81400217 	ldw	r5,8(r16)
  805624:	8085883a 	add	r2,r16,r2
  805628:	10c00117 	ldw	r3,4(r2)
  80562c:	29000315 	stw	r4,12(r5)
  805630:	21400215 	stw	r5,8(r4)
  805634:	18c00054 	ori	r3,r3,1
  805638:	10c00115 	stw	r3,4(r2)
  80563c:	9009883a 	mov	r4,r18
  805640:	08065500 	call	806550 <__malloc_unlock>
  805644:	80800204 	addi	r2,r16,8
  805648:	dfc00a17 	ldw	ra,40(sp)
  80564c:	df000917 	ldw	fp,36(sp)
  805650:	ddc00817 	ldw	r23,32(sp)
  805654:	dd800717 	ldw	r22,28(sp)
  805658:	dd400617 	ldw	r21,24(sp)
  80565c:	dd000517 	ldw	r20,20(sp)
  805660:	dcc00417 	ldw	r19,16(sp)
  805664:	dc800317 	ldw	r18,12(sp)
  805668:	dc400217 	ldw	r17,8(sp)
  80566c:	dc000117 	ldw	r16,4(sp)
  805670:	dec00b04 	addi	sp,sp,44
  805674:	f800283a 	ret
  805678:	00800304 	movi	r2,12
  80567c:	90800015 	stw	r2,0(r18)
  805680:	0005883a 	mov	r2,zero
  805684:	003ff006 	br	805648 <__alt_data_end+0xff805648>
  805688:	01002004 	movi	r4,128
  80568c:	02001004 	movi	r8,64
  805690:	01c00fc4 	movi	r7,63
  805694:	003f6106 	br	80541c <__alt_data_end+0xff80541c>
  805698:	4009883a 	mov	r4,r8
  80569c:	003f7506 	br	805474 <__alt_data_end+0xff805474>
  8056a0:	81000317 	ldw	r4,12(r16)
  8056a4:	003fde06 	br	805620 <__alt_data_end+0xff805620>
  8056a8:	81c5883a 	add	r2,r16,r7
  8056ac:	11400117 	ldw	r5,4(r2)
  8056b0:	9009883a 	mov	r4,r18
  8056b4:	29400054 	ori	r5,r5,1
  8056b8:	11400115 	stw	r5,4(r2)
  8056bc:	08065500 	call	806550 <__malloc_unlock>
  8056c0:	80800204 	addi	r2,r16,8
  8056c4:	003fe006 	br	805648 <__alt_data_end+0xff805648>
  8056c8:	9c000217 	ldw	r16,8(r19)
  8056cc:	00bfff04 	movi	r2,-4
  8056d0:	85800117 	ldw	r22,4(r16)
  8056d4:	b0ac703a 	and	r22,r22,r2
  8056d8:	b4400336 	bltu	r22,r17,8056e8 <_malloc_r+0x344>
  8056dc:	b445c83a 	sub	r2,r22,r17
  8056e0:	00c003c4 	movi	r3,15
  8056e4:	18805d16 	blt	r3,r2,80585c <_malloc_r+0x4b8>
  8056e8:	05c02034 	movhi	r23,128
  8056ec:	00802074 	movhi	r2,129
  8056f0:	10a14204 	addi	r2,r2,-31480
  8056f4:	bdde1404 	addi	r23,r23,30800
  8056f8:	15400017 	ldw	r21,0(r2)
  8056fc:	b8c00017 	ldw	r3,0(r23)
  805700:	00bfffc4 	movi	r2,-1
  805704:	858d883a 	add	r6,r16,r22
  805708:	8d6b883a 	add	r21,r17,r21
  80570c:	1880ea26 	beq	r3,r2,805ab8 <_malloc_r+0x714>
  805710:	ad4403c4 	addi	r21,r21,4111
  805714:	00bc0004 	movi	r2,-4096
  805718:	a8aa703a 	and	r21,r21,r2
  80571c:	a80b883a 	mov	r5,r21
  805720:	9009883a 	mov	r4,r18
  805724:	d9800015 	stw	r6,0(sp)
  805728:	0805bb00 	call	805bb0 <_sbrk_r>
  80572c:	1029883a 	mov	r20,r2
  805730:	00bfffc4 	movi	r2,-1
  805734:	d9800017 	ldw	r6,0(sp)
  805738:	a080e826 	beq	r20,r2,805adc <_malloc_r+0x738>
  80573c:	a180a636 	bltu	r20,r6,8059d8 <_malloc_r+0x634>
  805740:	07002074 	movhi	fp,129
  805744:	e7214304 	addi	fp,fp,-31476
  805748:	e0800017 	ldw	r2,0(fp)
  80574c:	a887883a 	add	r3,r21,r2
  805750:	e0c00015 	stw	r3,0(fp)
  805754:	3500e626 	beq	r6,r20,805af0 <_malloc_r+0x74c>
  805758:	b9000017 	ldw	r4,0(r23)
  80575c:	00bfffc4 	movi	r2,-1
  805760:	2080ee26 	beq	r4,r2,805b1c <_malloc_r+0x778>
  805764:	a185c83a 	sub	r2,r20,r6
  805768:	10c5883a 	add	r2,r2,r3
  80576c:	e0800015 	stw	r2,0(fp)
  805770:	a0c001cc 	andi	r3,r20,7
  805774:	1800bc26 	beq	r3,zero,805a68 <_malloc_r+0x6c4>
  805778:	a0e9c83a 	sub	r20,r20,r3
  80577c:	00840204 	movi	r2,4104
  805780:	a5000204 	addi	r20,r20,8
  805784:	10c7c83a 	sub	r3,r2,r3
  805788:	a545883a 	add	r2,r20,r21
  80578c:	1083ffcc 	andi	r2,r2,4095
  805790:	18abc83a 	sub	r21,r3,r2
  805794:	a80b883a 	mov	r5,r21
  805798:	9009883a 	mov	r4,r18
  80579c:	0805bb00 	call	805bb0 <_sbrk_r>
  8057a0:	00ffffc4 	movi	r3,-1
  8057a4:	10c0e126 	beq	r2,r3,805b2c <_malloc_r+0x788>
  8057a8:	1505c83a 	sub	r2,r2,r20
  8057ac:	1545883a 	add	r2,r2,r21
  8057b0:	10800054 	ori	r2,r2,1
  8057b4:	e0c00017 	ldw	r3,0(fp)
  8057b8:	9d000215 	stw	r20,8(r19)
  8057bc:	a0800115 	stw	r2,4(r20)
  8057c0:	a8c7883a 	add	r3,r21,r3
  8057c4:	e0c00015 	stw	r3,0(fp)
  8057c8:	84c00e26 	beq	r16,r19,805804 <_malloc_r+0x460>
  8057cc:	018003c4 	movi	r6,15
  8057d0:	3580a72e 	bgeu	r6,r22,805a70 <_malloc_r+0x6cc>
  8057d4:	81400117 	ldw	r5,4(r16)
  8057d8:	013ffe04 	movi	r4,-8
  8057dc:	b0bffd04 	addi	r2,r22,-12
  8057e0:	1104703a 	and	r2,r2,r4
  8057e4:	2900004c 	andi	r4,r5,1
  8057e8:	2088b03a 	or	r4,r4,r2
  8057ec:	81000115 	stw	r4,4(r16)
  8057f0:	01400144 	movi	r5,5
  8057f4:	8089883a 	add	r4,r16,r2
  8057f8:	21400115 	stw	r5,4(r4)
  8057fc:	21400215 	stw	r5,8(r4)
  805800:	3080cd36 	bltu	r6,r2,805b38 <_malloc_r+0x794>
  805804:	00802074 	movhi	r2,129
  805808:	10a14104 	addi	r2,r2,-31484
  80580c:	11000017 	ldw	r4,0(r2)
  805810:	20c0012e 	bgeu	r4,r3,805818 <_malloc_r+0x474>
  805814:	10c00015 	stw	r3,0(r2)
  805818:	00802074 	movhi	r2,129
  80581c:	10a14004 	addi	r2,r2,-31488
  805820:	11000017 	ldw	r4,0(r2)
  805824:	9c000217 	ldw	r16,8(r19)
  805828:	20c0012e 	bgeu	r4,r3,805830 <_malloc_r+0x48c>
  80582c:	10c00015 	stw	r3,0(r2)
  805830:	80c00117 	ldw	r3,4(r16)
  805834:	00bfff04 	movi	r2,-4
  805838:	1886703a 	and	r3,r3,r2
  80583c:	1c45c83a 	sub	r2,r3,r17
  805840:	1c400236 	bltu	r3,r17,80584c <_malloc_r+0x4a8>
  805844:	00c003c4 	movi	r3,15
  805848:	18800416 	blt	r3,r2,80585c <_malloc_r+0x4b8>
  80584c:	9009883a 	mov	r4,r18
  805850:	08065500 	call	806550 <__malloc_unlock>
  805854:	0005883a 	mov	r2,zero
  805858:	003f7b06 	br	805648 <__alt_data_end+0xff805648>
  80585c:	88c00054 	ori	r3,r17,1
  805860:	80c00115 	stw	r3,4(r16)
  805864:	8463883a 	add	r17,r16,r17
  805868:	10800054 	ori	r2,r2,1
  80586c:	9c400215 	stw	r17,8(r19)
  805870:	88800115 	stw	r2,4(r17)
  805874:	9009883a 	mov	r4,r18
  805878:	08065500 	call	806550 <__malloc_unlock>
  80587c:	80800204 	addi	r2,r16,8
  805880:	003f7106 	br	805648 <__alt_data_end+0xff805648>
  805884:	00c00504 	movi	r3,20
  805888:	18804a2e 	bgeu	r3,r2,8059b4 <_malloc_r+0x610>
  80588c:	00c01504 	movi	r3,84
  805890:	18806e36 	bltu	r3,r2,805a4c <_malloc_r+0x6a8>
  805894:	8804d33a 	srli	r2,r17,12
  805898:	12001bc4 	addi	r8,r2,111
  80589c:	11c01b84 	addi	r7,r2,110
  8058a0:	4209883a 	add	r4,r8,r8
  8058a4:	003edd06 	br	80541c <__alt_data_end+0xff80541c>
  8058a8:	3804d27a 	srli	r2,r7,9
  8058ac:	00c00104 	movi	r3,4
  8058b0:	1880442e 	bgeu	r3,r2,8059c4 <_malloc_r+0x620>
  8058b4:	00c00504 	movi	r3,20
  8058b8:	18808136 	bltu	r3,r2,805ac0 <_malloc_r+0x71c>
  8058bc:	11401704 	addi	r5,r2,92
  8058c0:	10c016c4 	addi	r3,r2,91
  8058c4:	294b883a 	add	r5,r5,r5
  8058c8:	294b883a 	add	r5,r5,r5
  8058cc:	294b883a 	add	r5,r5,r5
  8058d0:	994b883a 	add	r5,r19,r5
  8058d4:	28800017 	ldw	r2,0(r5)
  8058d8:	01802034 	movhi	r6,128
  8058dc:	297ffe04 	addi	r5,r5,-8
  8058e0:	319d0504 	addi	r6,r6,29716
  8058e4:	28806526 	beq	r5,r2,805a7c <_malloc_r+0x6d8>
  8058e8:	01bfff04 	movi	r6,-4
  8058ec:	10c00117 	ldw	r3,4(r2)
  8058f0:	1986703a 	and	r3,r3,r6
  8058f4:	38c0022e 	bgeu	r7,r3,805900 <_malloc_r+0x55c>
  8058f8:	10800217 	ldw	r2,8(r2)
  8058fc:	28bffb1e 	bne	r5,r2,8058ec <__alt_data_end+0xff8058ec>
  805900:	11400317 	ldw	r5,12(r2)
  805904:	98c00117 	ldw	r3,4(r19)
  805908:	81400315 	stw	r5,12(r16)
  80590c:	80800215 	stw	r2,8(r16)
  805910:	2c000215 	stw	r16,8(r5)
  805914:	14000315 	stw	r16,12(r2)
  805918:	003ef806 	br	8054fc <__alt_data_end+0xff8054fc>
  80591c:	88c00054 	ori	r3,r17,1
  805920:	80c00115 	stw	r3,4(r16)
  805924:	8463883a 	add	r17,r16,r17
  805928:	34400515 	stw	r17,20(r6)
  80592c:	34400415 	stw	r17,16(r6)
  805930:	10c00054 	ori	r3,r2,1
  805934:	8a000315 	stw	r8,12(r17)
  805938:	8a000215 	stw	r8,8(r17)
  80593c:	88c00115 	stw	r3,4(r17)
  805940:	88a3883a 	add	r17,r17,r2
  805944:	88800015 	stw	r2,0(r17)
  805948:	9009883a 	mov	r4,r18
  80594c:	08065500 	call	806550 <__malloc_unlock>
  805950:	80800204 	addi	r2,r16,8
  805954:	003f3c06 	br	805648 <__alt_data_end+0xff805648>
  805958:	30c00117 	ldw	r3,4(r6)
  80595c:	003ee706 	br	8054fc <__alt_data_end+0xff8054fc>
  805960:	5ac00044 	addi	r11,r11,1
  805964:	588000cc 	andi	r2,r11,3
  805968:	31800204 	addi	r6,r6,8
  80596c:	103efd1e 	bne	r2,zero,805564 <__alt_data_end+0xff805564>
  805970:	00002406 	br	805a04 <_malloc_r+0x660>
  805974:	14000317 	ldw	r16,12(r2)
  805978:	143f251e 	bne	r2,r16,805610 <__alt_data_end+0xff805610>
  80597c:	21000084 	addi	r4,r4,2
  805980:	003ebc06 	br	805474 <__alt_data_end+0xff805474>
  805984:	8085883a 	add	r2,r16,r2
  805988:	10c00117 	ldw	r3,4(r2)
  80598c:	81000317 	ldw	r4,12(r16)
  805990:	81400217 	ldw	r5,8(r16)
  805994:	18c00054 	ori	r3,r3,1
  805998:	10c00115 	stw	r3,4(r2)
  80599c:	29000315 	stw	r4,12(r5)
  8059a0:	21400215 	stw	r5,8(r4)
  8059a4:	9009883a 	mov	r4,r18
  8059a8:	08065500 	call	806550 <__malloc_unlock>
  8059ac:	80800204 	addi	r2,r16,8
  8059b0:	003f2506 	br	805648 <__alt_data_end+0xff805648>
  8059b4:	12001704 	addi	r8,r2,92
  8059b8:	11c016c4 	addi	r7,r2,91
  8059bc:	4209883a 	add	r4,r8,r8
  8059c0:	003e9606 	br	80541c <__alt_data_end+0xff80541c>
  8059c4:	3804d1ba 	srli	r2,r7,6
  8059c8:	11400e44 	addi	r5,r2,57
  8059cc:	10c00e04 	addi	r3,r2,56
  8059d0:	294b883a 	add	r5,r5,r5
  8059d4:	003fbc06 	br	8058c8 <__alt_data_end+0xff8058c8>
  8059d8:	84ff5926 	beq	r16,r19,805740 <__alt_data_end+0xff805740>
  8059dc:	00802034 	movhi	r2,128
  8059e0:	109d0504 	addi	r2,r2,29716
  8059e4:	14000217 	ldw	r16,8(r2)
  8059e8:	00bfff04 	movi	r2,-4
  8059ec:	80c00117 	ldw	r3,4(r16)
  8059f0:	1886703a 	and	r3,r3,r2
  8059f4:	003f9106 	br	80583c <__alt_data_end+0xff80583c>
  8059f8:	60800217 	ldw	r2,8(r12)
  8059fc:	213fffc4 	addi	r4,r4,-1
  805a00:	1300651e 	bne	r2,r12,805b98 <_malloc_r+0x7f4>
  805a04:	208000cc 	andi	r2,r4,3
  805a08:	633ffe04 	addi	r12,r12,-8
  805a0c:	103ffa1e 	bne	r2,zero,8059f8 <__alt_data_end+0xff8059f8>
  805a10:	98800117 	ldw	r2,4(r19)
  805a14:	0146303a 	nor	r3,zero,r5
  805a18:	1884703a 	and	r2,r3,r2
  805a1c:	98800115 	stw	r2,4(r19)
  805a20:	294b883a 	add	r5,r5,r5
  805a24:	117f2836 	bltu	r2,r5,8056c8 <__alt_data_end+0xff8056c8>
  805a28:	283f2726 	beq	r5,zero,8056c8 <__alt_data_end+0xff8056c8>
  805a2c:	2886703a 	and	r3,r5,r2
  805a30:	5809883a 	mov	r4,r11
  805a34:	183ec31e 	bne	r3,zero,805544 <__alt_data_end+0xff805544>
  805a38:	294b883a 	add	r5,r5,r5
  805a3c:	2886703a 	and	r3,r5,r2
  805a40:	21000104 	addi	r4,r4,4
  805a44:	183ffc26 	beq	r3,zero,805a38 <__alt_data_end+0xff805a38>
  805a48:	003ebe06 	br	805544 <__alt_data_end+0xff805544>
  805a4c:	00c05504 	movi	r3,340
  805a50:	18801236 	bltu	r3,r2,805a9c <_malloc_r+0x6f8>
  805a54:	8804d3fa 	srli	r2,r17,15
  805a58:	12001e04 	addi	r8,r2,120
  805a5c:	11c01dc4 	addi	r7,r2,119
  805a60:	4209883a 	add	r4,r8,r8
  805a64:	003e6d06 	br	80541c <__alt_data_end+0xff80541c>
  805a68:	00c40004 	movi	r3,4096
  805a6c:	003f4606 	br	805788 <__alt_data_end+0xff805788>
  805a70:	00800044 	movi	r2,1
  805a74:	a0800115 	stw	r2,4(r20)
  805a78:	003f7406 	br	80584c <__alt_data_end+0xff80584c>
  805a7c:	1805d0ba 	srai	r2,r3,2
  805a80:	01c00044 	movi	r7,1
  805a84:	30c00117 	ldw	r3,4(r6)
  805a88:	388e983a 	sll	r7,r7,r2
  805a8c:	2805883a 	mov	r2,r5
  805a90:	38c6b03a 	or	r3,r7,r3
  805a94:	30c00115 	stw	r3,4(r6)
  805a98:	003f9b06 	br	805908 <__alt_data_end+0xff805908>
  805a9c:	00c15504 	movi	r3,1364
  805aa0:	18801a36 	bltu	r3,r2,805b0c <_malloc_r+0x768>
  805aa4:	8804d4ba 	srli	r2,r17,18
  805aa8:	12001f44 	addi	r8,r2,125
  805aac:	11c01f04 	addi	r7,r2,124
  805ab0:	4209883a 	add	r4,r8,r8
  805ab4:	003e5906 	br	80541c <__alt_data_end+0xff80541c>
  805ab8:	ad400404 	addi	r21,r21,16
  805abc:	003f1706 	br	80571c <__alt_data_end+0xff80571c>
  805ac0:	00c01504 	movi	r3,84
  805ac4:	18802336 	bltu	r3,r2,805b54 <_malloc_r+0x7b0>
  805ac8:	3804d33a 	srli	r2,r7,12
  805acc:	11401bc4 	addi	r5,r2,111
  805ad0:	10c01b84 	addi	r3,r2,110
  805ad4:	294b883a 	add	r5,r5,r5
  805ad8:	003f7b06 	br	8058c8 <__alt_data_end+0xff8058c8>
  805adc:	9c000217 	ldw	r16,8(r19)
  805ae0:	00bfff04 	movi	r2,-4
  805ae4:	80c00117 	ldw	r3,4(r16)
  805ae8:	1886703a 	and	r3,r3,r2
  805aec:	003f5306 	br	80583c <__alt_data_end+0xff80583c>
  805af0:	3083ffcc 	andi	r2,r6,4095
  805af4:	103f181e 	bne	r2,zero,805758 <__alt_data_end+0xff805758>
  805af8:	99000217 	ldw	r4,8(r19)
  805afc:	b545883a 	add	r2,r22,r21
  805b00:	10800054 	ori	r2,r2,1
  805b04:	20800115 	stw	r2,4(r4)
  805b08:	003f3e06 	br	805804 <__alt_data_end+0xff805804>
  805b0c:	01003f84 	movi	r4,254
  805b10:	02001fc4 	movi	r8,127
  805b14:	01c01f84 	movi	r7,126
  805b18:	003e4006 	br	80541c <__alt_data_end+0xff80541c>
  805b1c:	00802034 	movhi	r2,128
  805b20:	109e1404 	addi	r2,r2,30800
  805b24:	15000015 	stw	r20,0(r2)
  805b28:	003f1106 	br	805770 <__alt_data_end+0xff805770>
  805b2c:	00800044 	movi	r2,1
  805b30:	002b883a 	mov	r21,zero
  805b34:	003f1f06 	br	8057b4 <__alt_data_end+0xff8057b4>
  805b38:	81400204 	addi	r5,r16,8
  805b3c:	9009883a 	mov	r4,r18
  805b40:	0804d500 	call	804d50 <_free_r>
  805b44:	00802074 	movhi	r2,129
  805b48:	10a14304 	addi	r2,r2,-31476
  805b4c:	10c00017 	ldw	r3,0(r2)
  805b50:	003f2c06 	br	805804 <__alt_data_end+0xff805804>
  805b54:	00c05504 	movi	r3,340
  805b58:	18800536 	bltu	r3,r2,805b70 <_malloc_r+0x7cc>
  805b5c:	3804d3fa 	srli	r2,r7,15
  805b60:	11401e04 	addi	r5,r2,120
  805b64:	10c01dc4 	addi	r3,r2,119
  805b68:	294b883a 	add	r5,r5,r5
  805b6c:	003f5606 	br	8058c8 <__alt_data_end+0xff8058c8>
  805b70:	00c15504 	movi	r3,1364
  805b74:	18800536 	bltu	r3,r2,805b8c <_malloc_r+0x7e8>
  805b78:	3804d4ba 	srli	r2,r7,18
  805b7c:	11401f44 	addi	r5,r2,125
  805b80:	10c01f04 	addi	r3,r2,124
  805b84:	294b883a 	add	r5,r5,r5
  805b88:	003f4f06 	br	8058c8 <__alt_data_end+0xff8058c8>
  805b8c:	01403f84 	movi	r5,254
  805b90:	00c01f84 	movi	r3,126
  805b94:	003f4c06 	br	8058c8 <__alt_data_end+0xff8058c8>
  805b98:	98800117 	ldw	r2,4(r19)
  805b9c:	003fa006 	br	805a20 <__alt_data_end+0xff805a20>
  805ba0:	8808d0fa 	srli	r4,r17,3
  805ba4:	20800044 	addi	r2,r4,1
  805ba8:	1085883a 	add	r2,r2,r2
  805bac:	003e9006 	br	8055f0 <__alt_data_end+0xff8055f0>

00805bb0 <_sbrk_r>:
  805bb0:	defffd04 	addi	sp,sp,-12
  805bb4:	dc000015 	stw	r16,0(sp)
  805bb8:	04002074 	movhi	r16,129
  805bbc:	dc400115 	stw	r17,4(sp)
  805bc0:	84213f04 	addi	r16,r16,-31492
  805bc4:	2023883a 	mov	r17,r4
  805bc8:	2809883a 	mov	r4,r5
  805bcc:	dfc00215 	stw	ra,8(sp)
  805bd0:	80000015 	stw	zero,0(r16)
  805bd4:	08066ac0 	call	8066ac <sbrk>
  805bd8:	00ffffc4 	movi	r3,-1
  805bdc:	10c00526 	beq	r2,r3,805bf4 <_sbrk_r+0x44>
  805be0:	dfc00217 	ldw	ra,8(sp)
  805be4:	dc400117 	ldw	r17,4(sp)
  805be8:	dc000017 	ldw	r16,0(sp)
  805bec:	dec00304 	addi	sp,sp,12
  805bf0:	f800283a 	ret
  805bf4:	80c00017 	ldw	r3,0(r16)
  805bf8:	183ff926 	beq	r3,zero,805be0 <__alt_data_end+0xff805be0>
  805bfc:	88c00015 	stw	r3,0(r17)
  805c00:	003ff706 	br	805be0 <__alt_data_end+0xff805be0>

00805c04 <__sread>:
  805c04:	defffe04 	addi	sp,sp,-8
  805c08:	dc000015 	stw	r16,0(sp)
  805c0c:	2821883a 	mov	r16,r5
  805c10:	2940038f 	ldh	r5,14(r5)
  805c14:	dfc00115 	stw	ra,4(sp)
  805c18:	08060080 	call	806008 <_read_r>
  805c1c:	10000716 	blt	r2,zero,805c3c <__sread+0x38>
  805c20:	80c01417 	ldw	r3,80(r16)
  805c24:	1887883a 	add	r3,r3,r2
  805c28:	80c01415 	stw	r3,80(r16)
  805c2c:	dfc00117 	ldw	ra,4(sp)
  805c30:	dc000017 	ldw	r16,0(sp)
  805c34:	dec00204 	addi	sp,sp,8
  805c38:	f800283a 	ret
  805c3c:	80c0030b 	ldhu	r3,12(r16)
  805c40:	18fbffcc 	andi	r3,r3,61439
  805c44:	80c0030d 	sth	r3,12(r16)
  805c48:	dfc00117 	ldw	ra,4(sp)
  805c4c:	dc000017 	ldw	r16,0(sp)
  805c50:	dec00204 	addi	sp,sp,8
  805c54:	f800283a 	ret

00805c58 <__seofread>:
  805c58:	0005883a 	mov	r2,zero
  805c5c:	f800283a 	ret

00805c60 <__swrite>:
  805c60:	2880030b 	ldhu	r2,12(r5)
  805c64:	defffb04 	addi	sp,sp,-20
  805c68:	dcc00315 	stw	r19,12(sp)
  805c6c:	dc800215 	stw	r18,8(sp)
  805c70:	dc400115 	stw	r17,4(sp)
  805c74:	dc000015 	stw	r16,0(sp)
  805c78:	dfc00415 	stw	ra,16(sp)
  805c7c:	10c0400c 	andi	r3,r2,256
  805c80:	2821883a 	mov	r16,r5
  805c84:	2023883a 	mov	r17,r4
  805c88:	3025883a 	mov	r18,r6
  805c8c:	3827883a 	mov	r19,r7
  805c90:	18000526 	beq	r3,zero,805ca8 <__swrite+0x48>
  805c94:	2940038f 	ldh	r5,14(r5)
  805c98:	01c00084 	movi	r7,2
  805c9c:	000d883a 	mov	r6,zero
  805ca0:	0805fa80 	call	805fa8 <_lseek_r>
  805ca4:	8080030b 	ldhu	r2,12(r16)
  805ca8:	8140038f 	ldh	r5,14(r16)
  805cac:	10bbffcc 	andi	r2,r2,61439
  805cb0:	980f883a 	mov	r7,r19
  805cb4:	900d883a 	mov	r6,r18
  805cb8:	8809883a 	mov	r4,r17
  805cbc:	8080030d 	sth	r2,12(r16)
  805cc0:	dfc00417 	ldw	ra,16(sp)
  805cc4:	dcc00317 	ldw	r19,12(sp)
  805cc8:	dc800217 	ldw	r18,8(sp)
  805ccc:	dc400117 	ldw	r17,4(sp)
  805cd0:	dc000017 	ldw	r16,0(sp)
  805cd4:	dec00504 	addi	sp,sp,20
  805cd8:	0805d401 	jmpi	805d40 <_write_r>

00805cdc <__sseek>:
  805cdc:	defffe04 	addi	sp,sp,-8
  805ce0:	dc000015 	stw	r16,0(sp)
  805ce4:	2821883a 	mov	r16,r5
  805ce8:	2940038f 	ldh	r5,14(r5)
  805cec:	dfc00115 	stw	ra,4(sp)
  805cf0:	0805fa80 	call	805fa8 <_lseek_r>
  805cf4:	00ffffc4 	movi	r3,-1
  805cf8:	10c00826 	beq	r2,r3,805d1c <__sseek+0x40>
  805cfc:	80c0030b 	ldhu	r3,12(r16)
  805d00:	80801415 	stw	r2,80(r16)
  805d04:	18c40014 	ori	r3,r3,4096
  805d08:	80c0030d 	sth	r3,12(r16)
  805d0c:	dfc00117 	ldw	ra,4(sp)
  805d10:	dc000017 	ldw	r16,0(sp)
  805d14:	dec00204 	addi	sp,sp,8
  805d18:	f800283a 	ret
  805d1c:	80c0030b 	ldhu	r3,12(r16)
  805d20:	18fbffcc 	andi	r3,r3,61439
  805d24:	80c0030d 	sth	r3,12(r16)
  805d28:	dfc00117 	ldw	ra,4(sp)
  805d2c:	dc000017 	ldw	r16,0(sp)
  805d30:	dec00204 	addi	sp,sp,8
  805d34:	f800283a 	ret

00805d38 <__sclose>:
  805d38:	2940038f 	ldh	r5,14(r5)
  805d3c:	0805da01 	jmpi	805da0 <_close_r>

00805d40 <_write_r>:
  805d40:	defffd04 	addi	sp,sp,-12
  805d44:	2805883a 	mov	r2,r5
  805d48:	dc000015 	stw	r16,0(sp)
  805d4c:	04002074 	movhi	r16,129
  805d50:	dc400115 	stw	r17,4(sp)
  805d54:	300b883a 	mov	r5,r6
  805d58:	84213f04 	addi	r16,r16,-31492
  805d5c:	2023883a 	mov	r17,r4
  805d60:	380d883a 	mov	r6,r7
  805d64:	1009883a 	mov	r4,r2
  805d68:	dfc00215 	stw	ra,8(sp)
  805d6c:	80000015 	stw	zero,0(r16)
  805d70:	08067980 	call	806798 <write>
  805d74:	00ffffc4 	movi	r3,-1
  805d78:	10c00526 	beq	r2,r3,805d90 <_write_r+0x50>
  805d7c:	dfc00217 	ldw	ra,8(sp)
  805d80:	dc400117 	ldw	r17,4(sp)
  805d84:	dc000017 	ldw	r16,0(sp)
  805d88:	dec00304 	addi	sp,sp,12
  805d8c:	f800283a 	ret
  805d90:	80c00017 	ldw	r3,0(r16)
  805d94:	183ff926 	beq	r3,zero,805d7c <__alt_data_end+0xff805d7c>
  805d98:	88c00015 	stw	r3,0(r17)
  805d9c:	003ff706 	br	805d7c <__alt_data_end+0xff805d7c>

00805da0 <_close_r>:
  805da0:	defffd04 	addi	sp,sp,-12
  805da4:	dc000015 	stw	r16,0(sp)
  805da8:	04002074 	movhi	r16,129
  805dac:	dc400115 	stw	r17,4(sp)
  805db0:	84213f04 	addi	r16,r16,-31492
  805db4:	2023883a 	mov	r17,r4
  805db8:	2809883a 	mov	r4,r5
  805dbc:	dfc00215 	stw	ra,8(sp)
  805dc0:	80000015 	stw	zero,0(r16)
  805dc4:	0802c200 	call	802c20 <close>
  805dc8:	00ffffc4 	movi	r3,-1
  805dcc:	10c00526 	beq	r2,r3,805de4 <_close_r+0x44>
  805dd0:	dfc00217 	ldw	ra,8(sp)
  805dd4:	dc400117 	ldw	r17,4(sp)
  805dd8:	dc000017 	ldw	r16,0(sp)
  805ddc:	dec00304 	addi	sp,sp,12
  805de0:	f800283a 	ret
  805de4:	80c00017 	ldw	r3,0(r16)
  805de8:	183ff926 	beq	r3,zero,805dd0 <__alt_data_end+0xff805dd0>
  805dec:	88c00015 	stw	r3,0(r17)
  805df0:	003ff706 	br	805dd0 <__alt_data_end+0xff805dd0>

00805df4 <_fclose_r>:
  805df4:	28003926 	beq	r5,zero,805edc <_fclose_r+0xe8>
  805df8:	defffc04 	addi	sp,sp,-16
  805dfc:	dc400115 	stw	r17,4(sp)
  805e00:	dc000015 	stw	r16,0(sp)
  805e04:	dfc00315 	stw	ra,12(sp)
  805e08:	dc800215 	stw	r18,8(sp)
  805e0c:	2023883a 	mov	r17,r4
  805e10:	2821883a 	mov	r16,r5
  805e14:	20000226 	beq	r4,zero,805e20 <_fclose_r+0x2c>
  805e18:	20800e17 	ldw	r2,56(r4)
  805e1c:	10002726 	beq	r2,zero,805ebc <_fclose_r+0xc8>
  805e20:	8080030f 	ldh	r2,12(r16)
  805e24:	1000071e 	bne	r2,zero,805e44 <_fclose_r+0x50>
  805e28:	0005883a 	mov	r2,zero
  805e2c:	dfc00317 	ldw	ra,12(sp)
  805e30:	dc800217 	ldw	r18,8(sp)
  805e34:	dc400117 	ldw	r17,4(sp)
  805e38:	dc000017 	ldw	r16,0(sp)
  805e3c:	dec00404 	addi	sp,sp,16
  805e40:	f800283a 	ret
  805e44:	800b883a 	mov	r5,r16
  805e48:	8809883a 	mov	r4,r17
  805e4c:	08045e40 	call	8045e4 <__sflush_r>
  805e50:	1025883a 	mov	r18,r2
  805e54:	80800b17 	ldw	r2,44(r16)
  805e58:	10000426 	beq	r2,zero,805e6c <_fclose_r+0x78>
  805e5c:	81400717 	ldw	r5,28(r16)
  805e60:	8809883a 	mov	r4,r17
  805e64:	103ee83a 	callr	r2
  805e68:	10001616 	blt	r2,zero,805ec4 <_fclose_r+0xd0>
  805e6c:	8080030b 	ldhu	r2,12(r16)
  805e70:	1080200c 	andi	r2,r2,128
  805e74:	1000151e 	bne	r2,zero,805ecc <_fclose_r+0xd8>
  805e78:	81400c17 	ldw	r5,48(r16)
  805e7c:	28000526 	beq	r5,zero,805e94 <_fclose_r+0xa0>
  805e80:	80801004 	addi	r2,r16,64
  805e84:	28800226 	beq	r5,r2,805e90 <_fclose_r+0x9c>
  805e88:	8809883a 	mov	r4,r17
  805e8c:	0804d500 	call	804d50 <_free_r>
  805e90:	80000c15 	stw	zero,48(r16)
  805e94:	81401117 	ldw	r5,68(r16)
  805e98:	28000326 	beq	r5,zero,805ea8 <_fclose_r+0xb4>
  805e9c:	8809883a 	mov	r4,r17
  805ea0:	0804d500 	call	804d50 <_free_r>
  805ea4:	80001115 	stw	zero,68(r16)
  805ea8:	0804bec0 	call	804bec <__sfp_lock_acquire>
  805eac:	8000030d 	sth	zero,12(r16)
  805eb0:	0804bf00 	call	804bf0 <__sfp_lock_release>
  805eb4:	9005883a 	mov	r2,r18
  805eb8:	003fdc06 	br	805e2c <__alt_data_end+0xff805e2c>
  805ebc:	0804bdc0 	call	804bdc <__sinit>
  805ec0:	003fd706 	br	805e20 <__alt_data_end+0xff805e20>
  805ec4:	04bfffc4 	movi	r18,-1
  805ec8:	003fe806 	br	805e6c <__alt_data_end+0xff805e6c>
  805ecc:	81400417 	ldw	r5,16(r16)
  805ed0:	8809883a 	mov	r4,r17
  805ed4:	0804d500 	call	804d50 <_free_r>
  805ed8:	003fe706 	br	805e78 <__alt_data_end+0xff805e78>
  805edc:	0005883a 	mov	r2,zero
  805ee0:	f800283a 	ret

00805ee4 <fclose>:
  805ee4:	00802034 	movhi	r2,128
  805ee8:	109e1304 	addi	r2,r2,30796
  805eec:	200b883a 	mov	r5,r4
  805ef0:	11000017 	ldw	r4,0(r2)
  805ef4:	0805df41 	jmpi	805df4 <_fclose_r>

00805ef8 <_fstat_r>:
  805ef8:	defffd04 	addi	sp,sp,-12
  805efc:	2805883a 	mov	r2,r5
  805f00:	dc000015 	stw	r16,0(sp)
  805f04:	04002074 	movhi	r16,129
  805f08:	dc400115 	stw	r17,4(sp)
  805f0c:	84213f04 	addi	r16,r16,-31492
  805f10:	2023883a 	mov	r17,r4
  805f14:	300b883a 	mov	r5,r6
  805f18:	1009883a 	mov	r4,r2
  805f1c:	dfc00215 	stw	ra,8(sp)
  805f20:	80000015 	stw	zero,0(r16)
  805f24:	080628c0 	call	80628c <fstat>
  805f28:	00ffffc4 	movi	r3,-1
  805f2c:	10c00526 	beq	r2,r3,805f44 <_fstat_r+0x4c>
  805f30:	dfc00217 	ldw	ra,8(sp)
  805f34:	dc400117 	ldw	r17,4(sp)
  805f38:	dc000017 	ldw	r16,0(sp)
  805f3c:	dec00304 	addi	sp,sp,12
  805f40:	f800283a 	ret
  805f44:	80c00017 	ldw	r3,0(r16)
  805f48:	183ff926 	beq	r3,zero,805f30 <__alt_data_end+0xff805f30>
  805f4c:	88c00015 	stw	r3,0(r17)
  805f50:	003ff706 	br	805f30 <__alt_data_end+0xff805f30>

00805f54 <_isatty_r>:
  805f54:	defffd04 	addi	sp,sp,-12
  805f58:	dc000015 	stw	r16,0(sp)
  805f5c:	04002074 	movhi	r16,129
  805f60:	dc400115 	stw	r17,4(sp)
  805f64:	84213f04 	addi	r16,r16,-31492
  805f68:	2023883a 	mov	r17,r4
  805f6c:	2809883a 	mov	r4,r5
  805f70:	dfc00215 	stw	ra,8(sp)
  805f74:	80000015 	stw	zero,0(r16)
  805f78:	08063780 	call	806378 <isatty>
  805f7c:	00ffffc4 	movi	r3,-1
  805f80:	10c00526 	beq	r2,r3,805f98 <_isatty_r+0x44>
  805f84:	dfc00217 	ldw	ra,8(sp)
  805f88:	dc400117 	ldw	r17,4(sp)
  805f8c:	dc000017 	ldw	r16,0(sp)
  805f90:	dec00304 	addi	sp,sp,12
  805f94:	f800283a 	ret
  805f98:	80c00017 	ldw	r3,0(r16)
  805f9c:	183ff926 	beq	r3,zero,805f84 <__alt_data_end+0xff805f84>
  805fa0:	88c00015 	stw	r3,0(r17)
  805fa4:	003ff706 	br	805f84 <__alt_data_end+0xff805f84>

00805fa8 <_lseek_r>:
  805fa8:	defffd04 	addi	sp,sp,-12
  805fac:	2805883a 	mov	r2,r5
  805fb0:	dc000015 	stw	r16,0(sp)
  805fb4:	04002074 	movhi	r16,129
  805fb8:	dc400115 	stw	r17,4(sp)
  805fbc:	300b883a 	mov	r5,r6
  805fc0:	84213f04 	addi	r16,r16,-31492
  805fc4:	2023883a 	mov	r17,r4
  805fc8:	380d883a 	mov	r6,r7
  805fcc:	1009883a 	mov	r4,r2
  805fd0:	dfc00215 	stw	ra,8(sp)
  805fd4:	80000015 	stw	zero,0(r16)
  805fd8:	08064580 	call	806458 <lseek>
  805fdc:	00ffffc4 	movi	r3,-1
  805fe0:	10c00526 	beq	r2,r3,805ff8 <_lseek_r+0x50>
  805fe4:	dfc00217 	ldw	ra,8(sp)
  805fe8:	dc400117 	ldw	r17,4(sp)
  805fec:	dc000017 	ldw	r16,0(sp)
  805ff0:	dec00304 	addi	sp,sp,12
  805ff4:	f800283a 	ret
  805ff8:	80c00017 	ldw	r3,0(r16)
  805ffc:	183ff926 	beq	r3,zero,805fe4 <__alt_data_end+0xff805fe4>
  806000:	88c00015 	stw	r3,0(r17)
  806004:	003ff706 	br	805fe4 <__alt_data_end+0xff805fe4>

00806008 <_read_r>:
  806008:	defffd04 	addi	sp,sp,-12
  80600c:	2805883a 	mov	r2,r5
  806010:	dc000015 	stw	r16,0(sp)
  806014:	04002074 	movhi	r16,129
  806018:	dc400115 	stw	r17,4(sp)
  80601c:	300b883a 	mov	r5,r6
  806020:	84213f04 	addi	r16,r16,-31492
  806024:	2023883a 	mov	r17,r4
  806028:	380d883a 	mov	r6,r7
  80602c:	1009883a 	mov	r4,r2
  806030:	dfc00215 	stw	ra,8(sp)
  806034:	80000015 	stw	zero,0(r16)
  806038:	08065b00 	call	8065b0 <read>
  80603c:	00ffffc4 	movi	r3,-1
  806040:	10c00526 	beq	r2,r3,806058 <_read_r+0x50>
  806044:	dfc00217 	ldw	ra,8(sp)
  806048:	dc400117 	ldw	r17,4(sp)
  80604c:	dc000017 	ldw	r16,0(sp)
  806050:	dec00304 	addi	sp,sp,12
  806054:	f800283a 	ret
  806058:	80c00017 	ldw	r3,0(r16)
  80605c:	183ff926 	beq	r3,zero,806044 <__alt_data_end+0xff806044>
  806060:	88c00015 	stw	r3,0(r17)
  806064:	003ff706 	br	806044 <__alt_data_end+0xff806044>

00806068 <__divsi3>:
  806068:	20001b16 	blt	r4,zero,8060d8 <__divsi3+0x70>
  80606c:	000f883a 	mov	r7,zero
  806070:	28001616 	blt	r5,zero,8060cc <__divsi3+0x64>
  806074:	200d883a 	mov	r6,r4
  806078:	29001a2e 	bgeu	r5,r4,8060e4 <__divsi3+0x7c>
  80607c:	00800804 	movi	r2,32
  806080:	00c00044 	movi	r3,1
  806084:	00000106 	br	80608c <__divsi3+0x24>
  806088:	10000d26 	beq	r2,zero,8060c0 <__divsi3+0x58>
  80608c:	294b883a 	add	r5,r5,r5
  806090:	10bfffc4 	addi	r2,r2,-1
  806094:	18c7883a 	add	r3,r3,r3
  806098:	293ffb36 	bltu	r5,r4,806088 <__alt_data_end+0xff806088>
  80609c:	0005883a 	mov	r2,zero
  8060a0:	18000726 	beq	r3,zero,8060c0 <__divsi3+0x58>
  8060a4:	0005883a 	mov	r2,zero
  8060a8:	31400236 	bltu	r6,r5,8060b4 <__divsi3+0x4c>
  8060ac:	314dc83a 	sub	r6,r6,r5
  8060b0:	10c4b03a 	or	r2,r2,r3
  8060b4:	1806d07a 	srli	r3,r3,1
  8060b8:	280ad07a 	srli	r5,r5,1
  8060bc:	183ffa1e 	bne	r3,zero,8060a8 <__alt_data_end+0xff8060a8>
  8060c0:	38000126 	beq	r7,zero,8060c8 <__divsi3+0x60>
  8060c4:	0085c83a 	sub	r2,zero,r2
  8060c8:	f800283a 	ret
  8060cc:	014bc83a 	sub	r5,zero,r5
  8060d0:	39c0005c 	xori	r7,r7,1
  8060d4:	003fe706 	br	806074 <__alt_data_end+0xff806074>
  8060d8:	0109c83a 	sub	r4,zero,r4
  8060dc:	01c00044 	movi	r7,1
  8060e0:	003fe306 	br	806070 <__alt_data_end+0xff806070>
  8060e4:	00c00044 	movi	r3,1
  8060e8:	003fee06 	br	8060a4 <__alt_data_end+0xff8060a4>

008060ec <__modsi3>:
  8060ec:	20001716 	blt	r4,zero,80614c <__modsi3+0x60>
  8060f0:	000f883a 	mov	r7,zero
  8060f4:	2005883a 	mov	r2,r4
  8060f8:	28001216 	blt	r5,zero,806144 <__modsi3+0x58>
  8060fc:	2900162e 	bgeu	r5,r4,806158 <__modsi3+0x6c>
  806100:	01800804 	movi	r6,32
  806104:	00c00044 	movi	r3,1
  806108:	00000106 	br	806110 <__modsi3+0x24>
  80610c:	30000a26 	beq	r6,zero,806138 <__modsi3+0x4c>
  806110:	294b883a 	add	r5,r5,r5
  806114:	31bfffc4 	addi	r6,r6,-1
  806118:	18c7883a 	add	r3,r3,r3
  80611c:	293ffb36 	bltu	r5,r4,80610c <__alt_data_end+0xff80610c>
  806120:	18000526 	beq	r3,zero,806138 <__modsi3+0x4c>
  806124:	1806d07a 	srli	r3,r3,1
  806128:	11400136 	bltu	r2,r5,806130 <__modsi3+0x44>
  80612c:	1145c83a 	sub	r2,r2,r5
  806130:	280ad07a 	srli	r5,r5,1
  806134:	183ffb1e 	bne	r3,zero,806124 <__alt_data_end+0xff806124>
  806138:	38000126 	beq	r7,zero,806140 <__modsi3+0x54>
  80613c:	0085c83a 	sub	r2,zero,r2
  806140:	f800283a 	ret
  806144:	014bc83a 	sub	r5,zero,r5
  806148:	003fec06 	br	8060fc <__alt_data_end+0xff8060fc>
  80614c:	0109c83a 	sub	r4,zero,r4
  806150:	01c00044 	movi	r7,1
  806154:	003fe706 	br	8060f4 <__alt_data_end+0xff8060f4>
  806158:	00c00044 	movi	r3,1
  80615c:	003ff106 	br	806124 <__alt_data_end+0xff806124>

00806160 <__udivsi3>:
  806160:	200d883a 	mov	r6,r4
  806164:	2900152e 	bgeu	r5,r4,8061bc <__udivsi3+0x5c>
  806168:	28001416 	blt	r5,zero,8061bc <__udivsi3+0x5c>
  80616c:	00800804 	movi	r2,32
  806170:	00c00044 	movi	r3,1
  806174:	00000206 	br	806180 <__udivsi3+0x20>
  806178:	10000e26 	beq	r2,zero,8061b4 <__udivsi3+0x54>
  80617c:	28000516 	blt	r5,zero,806194 <__udivsi3+0x34>
  806180:	294b883a 	add	r5,r5,r5
  806184:	10bfffc4 	addi	r2,r2,-1
  806188:	18c7883a 	add	r3,r3,r3
  80618c:	293ffa36 	bltu	r5,r4,806178 <__alt_data_end+0xff806178>
  806190:	18000826 	beq	r3,zero,8061b4 <__udivsi3+0x54>
  806194:	0005883a 	mov	r2,zero
  806198:	31400236 	bltu	r6,r5,8061a4 <__udivsi3+0x44>
  80619c:	314dc83a 	sub	r6,r6,r5
  8061a0:	10c4b03a 	or	r2,r2,r3
  8061a4:	1806d07a 	srli	r3,r3,1
  8061a8:	280ad07a 	srli	r5,r5,1
  8061ac:	183ffa1e 	bne	r3,zero,806198 <__alt_data_end+0xff806198>
  8061b0:	f800283a 	ret
  8061b4:	0005883a 	mov	r2,zero
  8061b8:	f800283a 	ret
  8061bc:	00c00044 	movi	r3,1
  8061c0:	003ff406 	br	806194 <__alt_data_end+0xff806194>

008061c4 <__umodsi3>:
  8061c4:	2005883a 	mov	r2,r4
  8061c8:	2900122e 	bgeu	r5,r4,806214 <__umodsi3+0x50>
  8061cc:	28001116 	blt	r5,zero,806214 <__umodsi3+0x50>
  8061d0:	01800804 	movi	r6,32
  8061d4:	00c00044 	movi	r3,1
  8061d8:	00000206 	br	8061e4 <__umodsi3+0x20>
  8061dc:	30000c26 	beq	r6,zero,806210 <__umodsi3+0x4c>
  8061e0:	28000516 	blt	r5,zero,8061f8 <__umodsi3+0x34>
  8061e4:	294b883a 	add	r5,r5,r5
  8061e8:	31bfffc4 	addi	r6,r6,-1
  8061ec:	18c7883a 	add	r3,r3,r3
  8061f0:	293ffa36 	bltu	r5,r4,8061dc <__alt_data_end+0xff8061dc>
  8061f4:	18000626 	beq	r3,zero,806210 <__umodsi3+0x4c>
  8061f8:	1806d07a 	srli	r3,r3,1
  8061fc:	11400136 	bltu	r2,r5,806204 <__umodsi3+0x40>
  806200:	1145c83a 	sub	r2,r2,r5
  806204:	280ad07a 	srli	r5,r5,1
  806208:	183ffb1e 	bne	r3,zero,8061f8 <__alt_data_end+0xff8061f8>
  80620c:	f800283a 	ret
  806210:	f800283a 	ret
  806214:	00c00044 	movi	r3,1
  806218:	003ff706 	br	8061f8 <__alt_data_end+0xff8061f8>

0080621c <_exit>:
 *
 * ALT_EXIT is mapped onto the _exit() system call in alt_syscall.h
 */

void ALT_EXIT (int exit_code)
{
  80621c:	defffd04 	addi	sp,sp,-12
  806220:	df000215 	stw	fp,8(sp)
  806224:	df000204 	addi	fp,sp,8
  806228:	e13fff15 	stw	r4,-4(fp)
  ALT_LOG_PRINT_BOOT("[alt_exit.c] Entering _exit() function.\r\n");
  ALT_LOG_PRINT_BOOT("[alt_exit.c] Exit code from main was %d.\r\n",exit_code);
  /* Stop all other threads */

  ALT_LOG_PRINT_BOOT("[alt_exit.c] Calling ALT_OS_STOP().\r\n");
  ALT_OS_STOP();
  80622c:	0001883a 	nop
  806230:	e0bfff17 	ldw	r2,-4(fp)
  806234:	e0bffe15 	stw	r2,-8(fp)
/*
 * Routine called on exit.
 */
static ALT_INLINE ALT_ALWAYS_INLINE void alt_sim_halt(int exit_code)
{
  register int r2 asm ("r2") = exit_code;
  806238:	e0bffe17 	ldw	r2,-8(fp)
  __asm__ volatile ("\n0:\n\taddi %0,%0, -1\n\tbgt %0,zero,0b" : : "r" (ALT_CPU_FREQ/100) ); /* Delay for >30ms */

  __asm__ volatile ("break 2" : : "r"(r2), "r"(r3) ALT_GMON_DATA );

#else /* !DEBUG_STUB */
  if (r2) {
  80623c:	10000226 	beq	r2,zero,806248 <_exit+0x2c>
    ALT_SIM_FAIL();
  806240:	002af070 	cmpltui	zero,zero,43969
  806244:	00000106 	br	80624c <_exit+0x30>
  } else {
    ALT_SIM_PASS();
  806248:	002af0b0 	cmpltui	zero,zero,43970
  ALT_SIM_HALT(exit_code);

  /* spin forever, since there's no where to go back to */

  ALT_LOG_PRINT_BOOT("[alt_exit.c] Spinning forever.\r\n");
  while (1);
  80624c:	003fff06 	br	80624c <__alt_data_end+0xff80624c>

00806250 <alt_get_errno>:
#undef errno

extern int errno;

static ALT_INLINE int* alt_get_errno(void)
{
  806250:	defffe04 	addi	sp,sp,-8
  806254:	dfc00115 	stw	ra,4(sp)
  806258:	df000015 	stw	fp,0(sp)
  80625c:	d839883a 	mov	fp,sp
  return ((alt_errno) ? alt_errno() : &errno);
  806260:	d0a00617 	ldw	r2,-32744(gp)
  806264:	10000326 	beq	r2,zero,806274 <alt_get_errno+0x24>
  806268:	d0a00617 	ldw	r2,-32744(gp)
  80626c:	103ee83a 	callr	r2
  806270:	00000106 	br	806278 <alt_get_errno+0x28>
  806274:	d0a33804 	addi	r2,gp,-29472
}
  806278:	e037883a 	mov	sp,fp
  80627c:	dfc00117 	ldw	ra,4(sp)
  806280:	df000017 	ldw	fp,0(sp)
  806284:	dec00204 	addi	sp,sp,8
  806288:	f800283a 	ret

0080628c <fstat>:
}

#else /* !ALT_USE_DIRECT_DRIVERS */

int ALT_FSTAT (int file, struct stat *st)
{
  80628c:	defffb04 	addi	sp,sp,-20
  806290:	dfc00415 	stw	ra,16(sp)
  806294:	df000315 	stw	fp,12(sp)
  806298:	df000304 	addi	fp,sp,12
  80629c:	e13ffe15 	stw	r4,-8(fp)
  8062a0:	e17fff15 	stw	r5,-4(fp)
   * A common error case is that when the file descriptor was created, the call
   * to open() failed resulting in a negative file descriptor. This is trapped
   * below so that we don't try and process an invalid file descriptor.
   */

  fd = (file < 0) ? NULL : &alt_fd_list[file];
  8062a4:	e0bffe17 	ldw	r2,-8(fp)
  8062a8:	10000616 	blt	r2,zero,8062c4 <fstat+0x38>
  8062ac:	e0bffe17 	ldw	r2,-8(fp)
  8062b0:	10c00324 	muli	r3,r2,12
  8062b4:	00802034 	movhi	r2,128
  8062b8:	109b9c04 	addi	r2,r2,28272
  8062bc:	1885883a 	add	r2,r3,r2
  8062c0:	00000106 	br	8062c8 <fstat+0x3c>
  8062c4:	0005883a 	mov	r2,zero
  8062c8:	e0bffd15 	stw	r2,-12(fp)
  
  if (fd)
  8062cc:	e0bffd17 	ldw	r2,-12(fp)
  8062d0:	10001026 	beq	r2,zero,806314 <fstat+0x88>
  {
    /* Call the drivers fstat() function to fill out the "st" structure. */

    if (fd->dev->fstat)
  8062d4:	e0bffd17 	ldw	r2,-12(fp)
  8062d8:	10800017 	ldw	r2,0(r2)
  8062dc:	10800817 	ldw	r2,32(r2)
  8062e0:	10000726 	beq	r2,zero,806300 <fstat+0x74>
    {
      return fd->dev->fstat(fd, st);
  8062e4:	e0bffd17 	ldw	r2,-12(fp)
  8062e8:	10800017 	ldw	r2,0(r2)
  8062ec:	10800817 	ldw	r2,32(r2)
  8062f0:	e17fff17 	ldw	r5,-4(fp)
  8062f4:	e13ffd17 	ldw	r4,-12(fp)
  8062f8:	103ee83a 	callr	r2
  8062fc:	00000a06 	br	806328 <fstat+0x9c>
     * device.
     */
 
    else
    {
      st->st_mode = _IFCHR;
  806300:	e0bfff17 	ldw	r2,-4(fp)
  806304:	00c80004 	movi	r3,8192
  806308:	10c00115 	stw	r3,4(r2)
      return 0;
  80630c:	0005883a 	mov	r2,zero
  806310:	00000506 	br	806328 <fstat+0x9c>
    }
  }
  else
  {
    ALT_ERRNO = EBADFD;
  806314:	08062500 	call	806250 <alt_get_errno>
  806318:	1007883a 	mov	r3,r2
  80631c:	00801444 	movi	r2,81
  806320:	18800015 	stw	r2,0(r3)
    return -1;
  806324:	00bfffc4 	movi	r2,-1
  }
}
  806328:	e037883a 	mov	sp,fp
  80632c:	dfc00117 	ldw	ra,4(sp)
  806330:	df000017 	ldw	fp,0(sp)
  806334:	dec00204 	addi	sp,sp,8
  806338:	f800283a 	ret

0080633c <alt_get_errno>:
#undef errno

extern int errno;

static ALT_INLINE int* alt_get_errno(void)
{
  80633c:	defffe04 	addi	sp,sp,-8
  806340:	dfc00115 	stw	ra,4(sp)
  806344:	df000015 	stw	fp,0(sp)
  806348:	d839883a 	mov	fp,sp
  return ((alt_errno) ? alt_errno() : &errno);
  80634c:	d0a00617 	ldw	r2,-32744(gp)
  806350:	10000326 	beq	r2,zero,806360 <alt_get_errno+0x24>
  806354:	d0a00617 	ldw	r2,-32744(gp)
  806358:	103ee83a 	callr	r2
  80635c:	00000106 	br	806364 <alt_get_errno+0x28>
  806360:	d0a33804 	addi	r2,gp,-29472
}
  806364:	e037883a 	mov	sp,fp
  806368:	dfc00117 	ldw	ra,4(sp)
  80636c:	df000017 	ldw	fp,0(sp)
  806370:	dec00204 	addi	sp,sp,8
  806374:	f800283a 	ret

00806378 <isatty>:
 *
 * ALT_ISATTY is mapped onto the isatty() system call in alt_syscall.h
 */
 
int ALT_ISATTY (int file)
{
  806378:	deffed04 	addi	sp,sp,-76
  80637c:	dfc01215 	stw	ra,72(sp)
  806380:	df001115 	stw	fp,68(sp)
  806384:	df001104 	addi	fp,sp,68
  806388:	e13fff15 	stw	r4,-4(fp)
   * A common error case is that when the file descriptor was created, the call
   * to open() failed resulting in a negative file descriptor. This is trapped
   * below so that we don't try and process an invalid file descriptor.
   */

  fd = (file < 0) ? NULL : &alt_fd_list[file];
  80638c:	e0bfff17 	ldw	r2,-4(fp)
  806390:	10000616 	blt	r2,zero,8063ac <isatty+0x34>
  806394:	e0bfff17 	ldw	r2,-4(fp)
  806398:	10c00324 	muli	r3,r2,12
  80639c:	00802034 	movhi	r2,128
  8063a0:	109b9c04 	addi	r2,r2,28272
  8063a4:	1885883a 	add	r2,r3,r2
  8063a8:	00000106 	br	8063b0 <isatty+0x38>
  8063ac:	0005883a 	mov	r2,zero
  8063b0:	e0bfef15 	stw	r2,-68(fp)
  
  if (fd)
  8063b4:	e0bfef17 	ldw	r2,-68(fp)
  8063b8:	10000e26 	beq	r2,zero,8063f4 <isatty+0x7c>
    /*
     * If a device driver does not provide an fstat() function, then it is 
     * treated as a terminal device by default.
     */

    if (!fd->dev->fstat)
  8063bc:	e0bfef17 	ldw	r2,-68(fp)
  8063c0:	10800017 	ldw	r2,0(r2)
  8063c4:	10800817 	ldw	r2,32(r2)
  8063c8:	1000021e 	bne	r2,zero,8063d4 <isatty+0x5c>
    {
      return 1;
  8063cc:	00800044 	movi	r2,1
  8063d0:	00000d06 	br	806408 <isatty+0x90>
     * this is called so that the device can identify itself.
     */ 

    else
    {
      fstat (file, &stat);
  8063d4:	e0bff004 	addi	r2,fp,-64
  8063d8:	100b883a 	mov	r5,r2
  8063dc:	e13fff17 	ldw	r4,-4(fp)
  8063e0:	080628c0 	call	80628c <fstat>
      return (stat.st_mode == _IFCHR) ? 1 : 0;
  8063e4:	e0bff117 	ldw	r2,-60(fp)
  8063e8:	10880020 	cmpeqi	r2,r2,8192
  8063ec:	10803fcc 	andi	r2,r2,255
  8063f0:	00000506 	br	806408 <isatty+0x90>
    }
  }
  else
  {
    ALT_ERRNO = EBADFD;
  8063f4:	080633c0 	call	80633c <alt_get_errno>
  8063f8:	1007883a 	mov	r3,r2
  8063fc:	00801444 	movi	r2,81
  806400:	18800015 	stw	r2,0(r3)
    return 0;
  806404:	0005883a 	mov	r2,zero
  }
}
  806408:	e037883a 	mov	sp,fp
  80640c:	dfc00117 	ldw	ra,4(sp)
  806410:	df000017 	ldw	fp,0(sp)
  806414:	dec00204 	addi	sp,sp,8
  806418:	f800283a 	ret

0080641c <alt_get_errno>:
#undef errno

extern int errno;

static ALT_INLINE int* alt_get_errno(void)
{
  80641c:	defffe04 	addi	sp,sp,-8
  806420:	dfc00115 	stw	ra,4(sp)
  806424:	df000015 	stw	fp,0(sp)
  806428:	d839883a 	mov	fp,sp
  return ((alt_errno) ? alt_errno() : &errno);
  80642c:	d0a00617 	ldw	r2,-32744(gp)
  806430:	10000326 	beq	r2,zero,806440 <alt_get_errno+0x24>
  806434:	d0a00617 	ldw	r2,-32744(gp)
  806438:	103ee83a 	callr	r2
  80643c:	00000106 	br	806444 <alt_get_errno+0x28>
  806440:	d0a33804 	addi	r2,gp,-29472
}
  806444:	e037883a 	mov	sp,fp
  806448:	dfc00117 	ldw	ra,4(sp)
  80644c:	df000017 	ldw	fp,0(sp)
  806450:	dec00204 	addi	sp,sp,8
  806454:	f800283a 	ret

00806458 <lseek>:
 * ALT_LSEEK is mapped onto the lseek() system call in alt_syscall.h
 *
 */

off_t ALT_LSEEK (int file, off_t ptr, int dir)
{
  806458:	defff904 	addi	sp,sp,-28
  80645c:	dfc00615 	stw	ra,24(sp)
  806460:	df000515 	stw	fp,20(sp)
  806464:	df000504 	addi	fp,sp,20
  806468:	e13ffd15 	stw	r4,-12(fp)
  80646c:	e17ffe15 	stw	r5,-8(fp)
  806470:	e1bfff15 	stw	r6,-4(fp)
  alt_fd* fd;
  off_t   rc = 0; 
  806474:	e03ffb15 	stw	zero,-20(fp)
   * A common error case is that when the file descriptor was created, the call
   * to open() failed resulting in a negative file descriptor. This is trapped
   * below so that we don't try and process an invalid file descriptor.
   */

  fd = (file < 0) ? NULL : &alt_fd_list[file];
  806478:	e0bffd17 	ldw	r2,-12(fp)
  80647c:	10000616 	blt	r2,zero,806498 <lseek+0x40>
  806480:	e0bffd17 	ldw	r2,-12(fp)
  806484:	10c00324 	muli	r3,r2,12
  806488:	00802034 	movhi	r2,128
  80648c:	109b9c04 	addi	r2,r2,28272
  806490:	1885883a 	add	r2,r3,r2
  806494:	00000106 	br	80649c <lseek+0x44>
  806498:	0005883a 	mov	r2,zero
  80649c:	e0bffc15 	stw	r2,-16(fp)
  
  if (fd) 
  8064a0:	e0bffc17 	ldw	r2,-16(fp)
  8064a4:	10001026 	beq	r2,zero,8064e8 <lseek+0x90>
    /*
     * If the device driver provides an implementation of the lseek() function,
     * then call that to process the request.
     */
 
    if (fd->dev->lseek)
  8064a8:	e0bffc17 	ldw	r2,-16(fp)
  8064ac:	10800017 	ldw	r2,0(r2)
  8064b0:	10800717 	ldw	r2,28(r2)
  8064b4:	10000926 	beq	r2,zero,8064dc <lseek+0x84>
    {
      rc = fd->dev->lseek(fd, ptr, dir);
  8064b8:	e0bffc17 	ldw	r2,-16(fp)
  8064bc:	10800017 	ldw	r2,0(r2)
  8064c0:	10800717 	ldw	r2,28(r2)
  8064c4:	e1bfff17 	ldw	r6,-4(fp)
  8064c8:	e17ffe17 	ldw	r5,-8(fp)
  8064cc:	e13ffc17 	ldw	r4,-16(fp)
  8064d0:	103ee83a 	callr	r2
  8064d4:	e0bffb15 	stw	r2,-20(fp)
  8064d8:	00000506 	br	8064f0 <lseek+0x98>
     * Otherwise return an error.
     */

    else
    {
      rc = -ENOTSUP;
  8064dc:	00bfde84 	movi	r2,-134
  8064e0:	e0bffb15 	stw	r2,-20(fp)
  8064e4:	00000206 	br	8064f0 <lseek+0x98>
    }
  }
  else  
  {
    rc = -EBADFD;
  8064e8:	00bfebc4 	movi	r2,-81
  8064ec:	e0bffb15 	stw	r2,-20(fp)
  }

  if (rc < 0)
  8064f0:	e0bffb17 	ldw	r2,-20(fp)
  8064f4:	1000070e 	bge	r2,zero,806514 <lseek+0xbc>
  {
    ALT_ERRNO = -rc;
  8064f8:	080641c0 	call	80641c <alt_get_errno>
  8064fc:	1007883a 	mov	r3,r2
  806500:	e0bffb17 	ldw	r2,-20(fp)
  806504:	0085c83a 	sub	r2,zero,r2
  806508:	18800015 	stw	r2,0(r3)
    rc = -1;
  80650c:	00bfffc4 	movi	r2,-1
  806510:	e0bffb15 	stw	r2,-20(fp)
  }

  return rc;
  806514:	e0bffb17 	ldw	r2,-20(fp)
}
  806518:	e037883a 	mov	sp,fp
  80651c:	dfc00117 	ldw	ra,4(sp)
  806520:	df000017 	ldw	fp,0(sp)
  806524:	dec00204 	addi	sp,sp,8
  806528:	f800283a 	ret

0080652c <__malloc_lock>:
 * configuration is single threaded, so there is nothing to do here. Note that 
 * this requires that malloc is never called by an interrupt service routine.
 */

void __malloc_lock ( struct _reent *_r )
{
  80652c:	defffe04 	addi	sp,sp,-8
  806530:	df000115 	stw	fp,4(sp)
  806534:	df000104 	addi	fp,sp,4
  806538:	e13fff15 	stw	r4,-4(fp)
}
  80653c:	0001883a 	nop
  806540:	e037883a 	mov	sp,fp
  806544:	df000017 	ldw	fp,0(sp)
  806548:	dec00104 	addi	sp,sp,4
  80654c:	f800283a 	ret

00806550 <__malloc_unlock>:
/*
 *
 */

void __malloc_unlock ( struct _reent *_r )
{
  806550:	defffe04 	addi	sp,sp,-8
  806554:	df000115 	stw	fp,4(sp)
  806558:	df000104 	addi	fp,sp,4
  80655c:	e13fff15 	stw	r4,-4(fp)
}
  806560:	0001883a 	nop
  806564:	e037883a 	mov	sp,fp
  806568:	df000017 	ldw	fp,0(sp)
  80656c:	dec00104 	addi	sp,sp,4
  806570:	f800283a 	ret

00806574 <alt_get_errno>:
#undef errno

extern int errno;

static ALT_INLINE int* alt_get_errno(void)
{
  806574:	defffe04 	addi	sp,sp,-8
  806578:	dfc00115 	stw	ra,4(sp)
  80657c:	df000015 	stw	fp,0(sp)
  806580:	d839883a 	mov	fp,sp
  return ((alt_errno) ? alt_errno() : &errno);
  806584:	d0a00617 	ldw	r2,-32744(gp)
  806588:	10000326 	beq	r2,zero,806598 <alt_get_errno+0x24>
  80658c:	d0a00617 	ldw	r2,-32744(gp)
  806590:	103ee83a 	callr	r2
  806594:	00000106 	br	80659c <alt_get_errno+0x28>
  806598:	d0a33804 	addi	r2,gp,-29472
}
  80659c:	e037883a 	mov	sp,fp
  8065a0:	dfc00117 	ldw	ra,4(sp)
  8065a4:	df000017 	ldw	fp,0(sp)
  8065a8:	dec00204 	addi	sp,sp,8
  8065ac:	f800283a 	ret

008065b0 <read>:
}

#else /* !ALT_USE_DIRECT_DRIVERS */

int ALT_READ (int file, void *ptr, size_t len)
{
  8065b0:	defff904 	addi	sp,sp,-28
  8065b4:	dfc00615 	stw	ra,24(sp)
  8065b8:	df000515 	stw	fp,20(sp)
  8065bc:	df000504 	addi	fp,sp,20
  8065c0:	e13ffd15 	stw	r4,-12(fp)
  8065c4:	e17ffe15 	stw	r5,-8(fp)
  8065c8:	e1bfff15 	stw	r6,-4(fp)
   * A common error case is that when the file descriptor was created, the call
   * to open() failed resulting in a negative file descriptor. This is trapped
   * below so that we don't try and process an invalid file descriptor.
   */

  fd = (file < 0) ? NULL : &alt_fd_list[file];
  8065cc:	e0bffd17 	ldw	r2,-12(fp)
  8065d0:	10000616 	blt	r2,zero,8065ec <read+0x3c>
  8065d4:	e0bffd17 	ldw	r2,-12(fp)
  8065d8:	10c00324 	muli	r3,r2,12
  8065dc:	00802034 	movhi	r2,128
  8065e0:	109b9c04 	addi	r2,r2,28272
  8065e4:	1885883a 	add	r2,r3,r2
  8065e8:	00000106 	br	8065f0 <read+0x40>
  8065ec:	0005883a 	mov	r2,zero
  8065f0:	e0bffb15 	stw	r2,-20(fp)
  
  if (fd)
  8065f4:	e0bffb17 	ldw	r2,-20(fp)
  8065f8:	10002226 	beq	r2,zero,806684 <read+0xd4>
     * If the file has not been opened with read access, or if the driver does
     * not provide an implementation of read(), generate an error. Otherwise
     * call the drivers read() function to process the request.
     */

    if (((fd->fd_flags & O_ACCMODE) != O_WRONLY) && 
  8065fc:	e0bffb17 	ldw	r2,-20(fp)
  806600:	10800217 	ldw	r2,8(r2)
  806604:	108000cc 	andi	r2,r2,3
  806608:	10800060 	cmpeqi	r2,r2,1
  80660c:	1000181e 	bne	r2,zero,806670 <read+0xc0>
        (fd->dev->read))
  806610:	e0bffb17 	ldw	r2,-20(fp)
  806614:	10800017 	ldw	r2,0(r2)
  806618:	10800517 	ldw	r2,20(r2)
     * If the file has not been opened with read access, or if the driver does
     * not provide an implementation of read(), generate an error. Otherwise
     * call the drivers read() function to process the request.
     */

    if (((fd->fd_flags & O_ACCMODE) != O_WRONLY) && 
  80661c:	10001426 	beq	r2,zero,806670 <read+0xc0>
        (fd->dev->read))
      {
        if ((rval = fd->dev->read(fd, ptr, len)) < 0)
  806620:	e0bffb17 	ldw	r2,-20(fp)
  806624:	10800017 	ldw	r2,0(r2)
  806628:	10800517 	ldw	r2,20(r2)
  80662c:	e0ffff17 	ldw	r3,-4(fp)
  806630:	180d883a 	mov	r6,r3
  806634:	e17ffe17 	ldw	r5,-8(fp)
  806638:	e13ffb17 	ldw	r4,-20(fp)
  80663c:	103ee83a 	callr	r2
  806640:	e0bffc15 	stw	r2,-16(fp)
  806644:	e0bffc17 	ldw	r2,-16(fp)
  806648:	1000070e 	bge	r2,zero,806668 <read+0xb8>
        {
          ALT_ERRNO = -rval;
  80664c:	08065740 	call	806574 <alt_get_errno>
  806650:	1007883a 	mov	r3,r2
  806654:	e0bffc17 	ldw	r2,-16(fp)
  806658:	0085c83a 	sub	r2,zero,r2
  80665c:	18800015 	stw	r2,0(r3)
          return -1;
  806660:	00bfffc4 	movi	r2,-1
  806664:	00000c06 	br	806698 <read+0xe8>
        }
        return rval;
  806668:	e0bffc17 	ldw	r2,-16(fp)
  80666c:	00000a06 	br	806698 <read+0xe8>
      }
      else
      {
        ALT_ERRNO = EACCES;
  806670:	08065740 	call	806574 <alt_get_errno>
  806674:	1007883a 	mov	r3,r2
  806678:	00800344 	movi	r2,13
  80667c:	18800015 	stw	r2,0(r3)
  806680:	00000406 	br	806694 <read+0xe4>
      }
    }
  else
  {
    ALT_ERRNO = EBADFD;
  806684:	08065740 	call	806574 <alt_get_errno>
  806688:	1007883a 	mov	r3,r2
  80668c:	00801444 	movi	r2,81
  806690:	18800015 	stw	r2,0(r3)
  }
  return -1;
  806694:	00bfffc4 	movi	r2,-1
}
  806698:	e037883a 	mov	sp,fp
  80669c:	dfc00117 	ldw	ra,4(sp)
  8066a0:	df000017 	ldw	fp,0(sp)
  8066a4:	dec00204 	addi	sp,sp,8
  8066a8:	f800283a 	ret

008066ac <sbrk>:
#endif
 
caddr_t ALT_SBRK (int incr) __attribute__ ((no_instrument_function ));

caddr_t ALT_SBRK (int incr)
{ 
  8066ac:	defff904 	addi	sp,sp,-28
  8066b0:	df000615 	stw	fp,24(sp)
  8066b4:	df000604 	addi	fp,sp,24
  8066b8:	e13fff15 	stw	r4,-4(fp)
static ALT_INLINE alt_irq_context ALT_ALWAYS_INLINE 
       alt_irq_disable_all (void)
{
  alt_irq_context context;

  NIOS2_READ_STATUS (context);
  8066bc:	0005303a 	rdctl	r2,status
  8066c0:	e0bffe15 	stw	r2,-8(fp)

  NIOS2_WRITE_STATUS (context & ~NIOS2_STATUS_PIE_MSK);
  8066c4:	e0fffe17 	ldw	r3,-8(fp)
  8066c8:	00bfff84 	movi	r2,-2
  8066cc:	1884703a 	and	r2,r3,r2
  8066d0:	1001703a 	wrctl	status,r2
  
  return context;
  8066d4:	e0bffe17 	ldw	r2,-8(fp)
  alt_irq_context context;
  char *prev_heap_end; 

  context = alt_irq_disable_all();
  8066d8:	e0bffb15 	stw	r2,-20(fp)

  /* Always return data aligned on a word boundary */
  heap_end = (char *)(((unsigned int)heap_end + 3) & ~3);
  8066dc:	d0a00f17 	ldw	r2,-32708(gp)
  8066e0:	10c000c4 	addi	r3,r2,3
  8066e4:	00bfff04 	movi	r2,-4
  8066e8:	1884703a 	and	r2,r3,r2
  8066ec:	d0a00f15 	stw	r2,-32708(gp)
  if (((heap_end + incr) - __alt_heap_start) > ALT_MAX_HEAP_BYTES) {
    alt_irq_enable_all(context);
    return (caddr_t)-1;
  }
#else
  if ((heap_end + incr) > __alt_heap_limit) {
  8066f0:	d0e00f17 	ldw	r3,-32708(gp)
  8066f4:	e0bfff17 	ldw	r2,-4(fp)
  8066f8:	1887883a 	add	r3,r3,r2
  8066fc:	00804034 	movhi	r2,256
  806700:	10800004 	addi	r2,r2,0
  806704:	10c0062e 	bgeu	r2,r3,806720 <sbrk+0x74>
  806708:	e0bffb17 	ldw	r2,-20(fp)
  80670c:	e0bffa15 	stw	r2,-24(fp)
  status &= ~NIOS2_STATUS_PIE_MSK;
  status |= (context & NIOS2_STATUS_PIE_MSK);
  
  NIOS2_WRITE_STATUS (status);
#else
  NIOS2_WRITE_STATUS (context);
  806710:	e0bffa17 	ldw	r2,-24(fp)
  806714:	1001703a 	wrctl	status,r2
    alt_irq_enable_all(context);
    return (caddr_t)-1;
  806718:	00bfffc4 	movi	r2,-1
  80671c:	00000b06 	br	80674c <sbrk+0xa0>
  }
#endif

  prev_heap_end = heap_end; 
  806720:	d0a00f17 	ldw	r2,-32708(gp)
  806724:	e0bffd15 	stw	r2,-12(fp)
  heap_end += incr; 
  806728:	d0e00f17 	ldw	r3,-32708(gp)
  80672c:	e0bfff17 	ldw	r2,-4(fp)
  806730:	1885883a 	add	r2,r3,r2
  806734:	d0a00f15 	stw	r2,-32708(gp)
  806738:	e0bffb17 	ldw	r2,-20(fp)
  80673c:	e0bffc15 	stw	r2,-16(fp)
  806740:	e0bffc17 	ldw	r2,-16(fp)
  806744:	1001703a 	wrctl	status,r2

#endif

  alt_irq_enable_all(context);

  return (caddr_t) prev_heap_end; 
  806748:	e0bffd17 	ldw	r2,-12(fp)
} 
  80674c:	e037883a 	mov	sp,fp
  806750:	df000017 	ldw	fp,0(sp)
  806754:	dec00104 	addi	sp,sp,4
  806758:	f800283a 	ret

0080675c <alt_get_errno>:
#undef errno

extern int errno;

static ALT_INLINE int* alt_get_errno(void)
{
  80675c:	defffe04 	addi	sp,sp,-8
  806760:	dfc00115 	stw	ra,4(sp)
  806764:	df000015 	stw	fp,0(sp)
  806768:	d839883a 	mov	fp,sp
  return ((alt_errno) ? alt_errno() : &errno);
  80676c:	d0a00617 	ldw	r2,-32744(gp)
  806770:	10000326 	beq	r2,zero,806780 <alt_get_errno+0x24>
  806774:	d0a00617 	ldw	r2,-32744(gp)
  806778:	103ee83a 	callr	r2
  80677c:	00000106 	br	806784 <alt_get_errno+0x28>
  806780:	d0a33804 	addi	r2,gp,-29472
}
  806784:	e037883a 	mov	sp,fp
  806788:	dfc00117 	ldw	ra,4(sp)
  80678c:	df000017 	ldw	fp,0(sp)
  806790:	dec00204 	addi	sp,sp,8
  806794:	f800283a 	ret

00806798 <write>:
}

#else /* !ALT_USE_DIRECT_DRIVERS */

int ALT_WRITE (int file, const void *ptr, size_t len)
{
  806798:	defff904 	addi	sp,sp,-28
  80679c:	dfc00615 	stw	ra,24(sp)
  8067a0:	df000515 	stw	fp,20(sp)
  8067a4:	df000504 	addi	fp,sp,20
  8067a8:	e13ffd15 	stw	r4,-12(fp)
  8067ac:	e17ffe15 	stw	r5,-8(fp)
  8067b0:	e1bfff15 	stw	r6,-4(fp)
   * A common error case is that when the file descriptor was created, the call
   * to open() failed resulting in a negative file descriptor. This is trapped
   * below so that we don't try and process an invalid file descriptor.
   */

  fd = (file < 0) ? NULL : &alt_fd_list[file];
  8067b4:	e0bffd17 	ldw	r2,-12(fp)
  8067b8:	10000616 	blt	r2,zero,8067d4 <write+0x3c>
  8067bc:	e0bffd17 	ldw	r2,-12(fp)
  8067c0:	10c00324 	muli	r3,r2,12
  8067c4:	00802034 	movhi	r2,128
  8067c8:	109b9c04 	addi	r2,r2,28272
  8067cc:	1885883a 	add	r2,r3,r2
  8067d0:	00000106 	br	8067d8 <write+0x40>
  8067d4:	0005883a 	mov	r2,zero
  8067d8:	e0bffb15 	stw	r2,-20(fp)
  
  if (fd)
  8067dc:	e0bffb17 	ldw	r2,-20(fp)
  8067e0:	10002126 	beq	r2,zero,806868 <write+0xd0>
     * If the file has not been opened with write access, or if the driver does
     * not provide an implementation of write(), generate an error. Otherwise
     * call the drivers write() function to process the request.
     */

    if (((fd->fd_flags & O_ACCMODE) != O_RDONLY) && fd->dev->write)
  8067e4:	e0bffb17 	ldw	r2,-20(fp)
  8067e8:	10800217 	ldw	r2,8(r2)
  8067ec:	108000cc 	andi	r2,r2,3
  8067f0:	10001826 	beq	r2,zero,806854 <write+0xbc>
  8067f4:	e0bffb17 	ldw	r2,-20(fp)
  8067f8:	10800017 	ldw	r2,0(r2)
  8067fc:	10800617 	ldw	r2,24(r2)
  806800:	10001426 	beq	r2,zero,806854 <write+0xbc>
    {
      
      /* ALT_LOG - see altera_hal/HAL/inc/sys/alt_log_printf.h */
      ALT_LOG_WRITE_FUNCTION(ptr,len);

      if ((rval = fd->dev->write(fd, ptr, len)) < 0)
  806804:	e0bffb17 	ldw	r2,-20(fp)
  806808:	10800017 	ldw	r2,0(r2)
  80680c:	10800617 	ldw	r2,24(r2)
  806810:	e0ffff17 	ldw	r3,-4(fp)
  806814:	180d883a 	mov	r6,r3
  806818:	e17ffe17 	ldw	r5,-8(fp)
  80681c:	e13ffb17 	ldw	r4,-20(fp)
  806820:	103ee83a 	callr	r2
  806824:	e0bffc15 	stw	r2,-16(fp)
  806828:	e0bffc17 	ldw	r2,-16(fp)
  80682c:	1000070e 	bge	r2,zero,80684c <write+0xb4>
      {
        ALT_ERRNO = -rval;
  806830:	080675c0 	call	80675c <alt_get_errno>
  806834:	1007883a 	mov	r3,r2
  806838:	e0bffc17 	ldw	r2,-16(fp)
  80683c:	0085c83a 	sub	r2,zero,r2
  806840:	18800015 	stw	r2,0(r3)
        return -1;
  806844:	00bfffc4 	movi	r2,-1
  806848:	00000c06 	br	80687c <write+0xe4>
      }
      return rval;
  80684c:	e0bffc17 	ldw	r2,-16(fp)
  806850:	00000a06 	br	80687c <write+0xe4>
    }
    else
    {
      ALT_ERRNO = EACCES;
  806854:	080675c0 	call	80675c <alt_get_errno>
  806858:	1007883a 	mov	r3,r2
  80685c:	00800344 	movi	r2,13
  806860:	18800015 	stw	r2,0(r3)
  806864:	00000406 	br	806878 <write+0xe0>
    }
  }
  else  
  {
    ALT_ERRNO = EBADFD;
  806868:	080675c0 	call	80675c <alt_get_errno>
  80686c:	1007883a 	mov	r3,r2
  806870:	00801444 	movi	r2,81
  806874:	18800015 	stw	r2,0(r3)
  }
  return -1;
  806878:	00bfffc4 	movi	r2,-1
}
  80687c:	e037883a 	mov	sp,fp
  806880:	dfc00117 	ldw	ra,4(sp)
  806884:	df000017 	ldw	fp,0(sp)
  806888:	dec00204 	addi	sp,sp,8
  80688c:	f800283a 	ret
