
Lab2_WAVE_PLAYER.elf:     file format elf32-littlenios2
Lab2_WAVE_PLAYER.elf
architecture: nios2:r1, flags 0x00000112:
EXEC_P, HAS_SYMS, D_PAGED
start address 0x00800248

Program Header:
    LOAD off    0x00001000 vaddr 0x00800000 paddr 0x00800000 align 2**12
         filesz 0x00000020 memsz 0x00000020 flags r-x
    LOAD off    0x00001020 vaddr 0x00800020 paddr 0x00800020 align 2**12
         filesz 0x0001b4cc memsz 0x0001b4cc flags r-x
    LOAD off    0x0001c4ec vaddr 0x0081b4ec paddr 0x0081c218 align 2**12
         filesz 0x00000d2c memsz 0x00000d2c flags rw-
    LOAD off    0x0001df44 vaddr 0x0081cf44 paddr 0x0081cf44 align 2**12
         filesz 0x00000000 memsz 0x00000804 flags rw-

Sections:
Idx Name          Size      VMA       LMA       File off  Algn
  0 .entry        00000020  00800000  00800000  00001000  2**5
                  CONTENTS, ALLOC, LOAD, READONLY, CODE
  1 .exceptions   00000228  00800020  00800020  00001020  2**2
                  CONTENTS, ALLOC, LOAD, READONLY, CODE
  2 .text         0001aa38  00800248  00800248  00001248  2**2
                  CONTENTS, ALLOC, LOAD, READONLY, CODE
  3 .rodata       0000086c  0081ac80  0081ac80  0001bc80  2**2
                  CONTENTS, ALLOC, LOAD, READONLY, DATA
  4 .rwdata       00000d2c  0081b4ec  0081c218  0001c4ec  2**2
                  CONTENTS, ALLOC, LOAD, DATA, SMALL_DATA
  5 .bss          00000804  0081cf44  0081cf44  0001df44  2**2
                  ALLOC, SMALL_DATA
  6 .sdram_0      00000000  0081d748  0081d748  0001d218  2**0
                  CONTENTS
  7 .comment      00000023  00000000  00000000  0001d218  2**0
                  CONTENTS, READONLY
  8 .debug_aranges 00001210  00000000  00000000  0001d240  2**3
                  CONTENTS, READONLY, DEBUGGING
  9 .debug_info   0002fadf  00000000  00000000  0001e450  2**0
                  CONTENTS, READONLY, DEBUGGING
 10 .debug_abbrev 0000b822  00000000  00000000  0004df2f  2**0
                  CONTENTS, READONLY, DEBUGGING
 11 .debug_line   0000f5e2  00000000  00000000  00059751  2**0
                  CONTENTS, READONLY, DEBUGGING
 12 .debug_frame  00003620  00000000  00000000  00068d34  2**2
                  CONTENTS, READONLY, DEBUGGING
 13 .debug_str    00004b51  00000000  00000000  0006c354  2**0
                  CONTENTS, READONLY, DEBUGGING
 14 .debug_loc    00018819  00000000  00000000  00070ea5  2**0
                  CONTENTS, READONLY, DEBUGGING
 15 .debug_alt_sim_info 00000060  00000000  00000000  000896c0  2**2
                  CONTENTS, READONLY, DEBUGGING
 16 .debug_ranges 00001a40  00000000  00000000  00089720  2**3
                  CONTENTS, READONLY, DEBUGGING
 17 .thread_model 00000003  00000000  00000000  0008f862  2**0
                  CONTENTS, READONLY
 18 .cpu          0000000c  00000000  00000000  0008f865  2**0
                  CONTENTS, READONLY
 19 .qsys         00000001  00000000  00000000  0008f871  2**0
                  CONTENTS, READONLY
 20 .simulation_enabled 00000001  00000000  00000000  0008f872  2**0
                  CONTENTS, READONLY
 21 .sysid_hash   00000004  00000000  00000000  0008f873  2**0
                  CONTENTS, READONLY
 22 .sysid_base   00000004  00000000  00000000  0008f877  2**0
                  CONTENTS, READONLY
 23 .sysid_time   00000004  00000000  00000000  0008f87b  2**0
                  CONTENTS, READONLY
 24 .stderr_dev   0000000b  00000000  00000000  0008f87f  2**0
                  CONTENTS, READONLY
 25 .stdin_dev    0000000b  00000000  00000000  0008f88a  2**0
                  CONTENTS, READONLY
 26 .stdout_dev   0000000b  00000000  00000000  0008f895  2**0
                  CONTENTS, READONLY
 27 .sopc_system_name 00000003  00000000  00000000  0008f8a0  2**0
                  CONTENTS, READONLY
 28 .quartus_project_dir 00000030  00000000  00000000  0008f8a3  2**0
                  CONTENTS, READONLY
 29 .jdi          000081b0  00000000  00000000  0008f8d3  2**0
                  CONTENTS, READONLY
 30 .sopcinfo     0008f4e8  00000000  00000000  00097a83  2**0
                  CONTENTS, READONLY
SYMBOL TABLE:
00800000 l    d  .entry	00000000 .entry
00800020 l    d  .exceptions	00000000 .exceptions
00800248 l    d  .text	00000000 .text
0081ac80 l    d  .rodata	00000000 .rodata
0081b4ec l    d  .rwdata	00000000 .rwdata
0081cf44 l    d  .bss	00000000 .bss
0081d748 l    d  .sdram_0	00000000 .sdram_0
00000000 l    d  .comment	00000000 .comment
00000000 l    d  .debug_aranges	00000000 .debug_aranges
00000000 l    d  .debug_info	00000000 .debug_info
00000000 l    d  .debug_abbrev	00000000 .debug_abbrev
00000000 l    d  .debug_line	00000000 .debug_line
00000000 l    d  .debug_frame	00000000 .debug_frame
00000000 l    d  .debug_str	00000000 .debug_str
00000000 l    d  .debug_loc	00000000 .debug_loc
00000000 l    d  .debug_alt_sim_info	00000000 .debug_alt_sim_info
00000000 l    d  .debug_ranges	00000000 .debug_ranges
00000000 l    df *ABS*	00000000 ../Lab2_WAVE_PLAYER_bsp//obj/HAL/src/crt0.o
00800290 l       .text	00000000 alt_after_alt_main
00000000 l    df *ABS*	00000000 alt_irq_handler.c
00000000 l    df *ABS*	00000000 alt_instruction_exception_entry.c
00000000 l    df *ABS*	00000000 fatfs.c
00000000 l    df *ABS*	00000000 fatfs_diskio.c
0081c1c0 l     O .rwdata	00000001 Stat
0081cf44 l     O .bss	00000001 CardType
0081cf46 l     O .bss	00000002 Timer1
0081cf48 l     O .bss	00000002 Timer2
0081cf4a l     O .bss	00000001 XMITDummy
0081cf4c l     O .bss	00000004 Control1
008002b8 l     F .text	00000050 SetLowSpeed
00800308 l     F .text	00000070 SetHighSpeed
00800378 l     F .text	00000048 InitDiskIOHardware
008003c0 l     F .text	00000040 Set8BitTransfer
00800400 l     F .text	0000003c Set32BitTransfer
0080043c l     F .text	00000050 ReceiveU8
0080048c l     F .text	0000012c ReceiveDatablock
008005b8 l     F .text	00000188 TransmitDatablock
00800764 l     F .text	00000054 WaitReady
00800740 l     F .text	00000024 GetCDWP
008007b8 l     F .text	00000048 ReleaseBus
00800800 l     F .text	0000024c SendCMD
0081cf50 l     O .bss	00000004 pvm.1949
00000000 l    df *ABS*	00000000 fatfs_nios2_de0_nano_spi.c
00000000 l    df *ABS*	00000000 fatfs_nios2_de1_pio.c
00000000 l    df *ABS*	00000000 fatfs_nios2_de1_spi.c
00000000 l    df *ABS*	00000000 ff.c
0081cf54 l     O .bss	00000004 FatFs
0081cf58 l     O .bss	00000002 Fsid
00801588 l     F .text	00000070 mem_cpy
008015f8 l     F .text	0000005c mem_set
00801654 l     F .text	0000008c mem_cmp
008016e0 l     F .text	0000007c chk_chr
0080175c l     F .text	0000015c move_window
008018b8 l     F .text	00000220 sync
00802154 l     F .text	0000011c remove_chain
00802270 l     F .text	000001dc create_chain
0080244c l     F .text	000001ec dir_sdi
00802638 l     F .text	000002e8 dir_next
00802920 l     F .text	000000fc dir_find
00802a1c l     F .text	00000108 dir_read
00802b24 l     F .text	00000124 dir_register
00802c48 l     F .text	00000098 dir_remove
00802ce0 l     F .text	000002ec create_name
0081acc4 l     O .rodata	00000080 excvt.1975
00802fcc l     F .text	0000023c get_fileinfo
00803208 l     F .text	000001dc follow_path
008033e4 l     F .text	000001ac check_fs
00803590 l     F .text	00000940 chk_mounted
00803ed0 l     F .text	00000090 validate
0081ad44 l     O .rodata	00000016 vst.2214
0081ad5a l     O .rodata	00000016 cst.2215
00000000 l    df *ABS*	00000000 hello_world.c
008080f4 l     F .text	000001f4 timer_ISR
008082e8 l     F .text	00000048 PB_ISR
00000000 l    df *ABS*	00000000 monitor.c
00000000 l    df *ABS*	00000000 uart_nios2.c
00000000 l    df *ABS*	00000000 lib2-divmod.c
00000000 l    df *ABS*	00000000 fclose.c
00000000 l    df *ABS*	00000000 fflush.c
00000000 l    df *ABS*	00000000 findfp.c
00809b40 l     F .text	00000008 __fp_unlock
00809b54 l     F .text	0000019c __sinit.part.1
00809cf0 l     F .text	00000008 __fp_lock
00000000 l    df *ABS*	00000000 fopen.c
00000000 l    df *ABS*	00000000 fprintf.c
00000000 l    df *ABS*	00000000 mallocr.c
00000000 l    df *ABS*	00000000 fseek.c
00000000 l    df *ABS*	00000000 fseeko.c
00000000 l    df *ABS*	00000000 fstatr.c
00000000 l    df *ABS*	00000000 fwalk.c
00000000 l    df *ABS*	00000000 getc.c
00000000 l    df *ABS*	00000000 impure.c
0081b504 l     O .rwdata	00000424 impure_data
00000000 l    df *ABS*	00000000 int_errno.c
00000000 l    df *ABS*	00000000 makebuf.c
00000000 l    df *ABS*	00000000 mallocr.c
00000000 l    df *ABS*	00000000 memset.c
00000000 l    df *ABS*	00000000 openr.c
00000000 l    df *ABS*	00000000 printf.c
00000000 l    df *ABS*	00000000 putchar.c
00000000 l    df *ABS*	00000000 refill.c
0080b7a4 l     F .text	0000001c lflush
00000000 l    df *ABS*	00000000 rget.c
00000000 l    df *ABS*	00000000 sbrkr.c
00000000 l    df *ABS*	00000000 stdio.c
00000000 l    df *ABS*	00000000 strcpy.c
00000000 l    df *ABS*	00000000 strlen.c
00000000 l    df *ABS*	00000000 vfprintf.c
0081af72 l     O .rodata	00000010 zeroes.4404
0080dee8 l     F .text	000000bc __sbprintf
0081af82 l     O .rodata	00000010 blanks.4403
00000000 l    df *ABS*	00000000 writer.c
00000000 l    df *ABS*	00000000 wsetup.c
00000000 l    df *ABS*	00000000 closer.c
00000000 l    df *ABS*	00000000 dtoa.c
0080e1ac l     F .text	00000200 quorem
00000000 l    df *ABS*	00000000 flags.c
00000000 l    df *ABS*	00000000 isattyr.c
00000000 l    df *ABS*	00000000 locale.c
0081bd50 l     O .rwdata	00000020 lc_ctype_charset
0081bd30 l     O .rwdata	00000020 lc_message_charset
0081bd70 l     O .rwdata	00000038 lconv
00000000 l    df *ABS*	00000000 lseekr.c
00000000 l    df *ABS*	00000000 memchr.c
00000000 l    df *ABS*	00000000 memcpy.c
00000000 l    df *ABS*	00000000 mprec.c
0081afb0 l     O .rodata	0000000c p05.2768
00000000 l    df *ABS*	00000000 putc.c
00000000 l    df *ABS*	00000000 readr.c
00000000 l    df *ABS*	00000000 s_fpclassify.c
00000000 l    df *ABS*	00000000 strcmp.c
00000000 l    df *ABS*	00000000 vfprintf.c
008111b0 l     F .text	000000fc __sprint_r.part.0
0081b0e4 l     O .rodata	00000010 blanks.4348
0081b0d4 l     O .rodata	00000010 zeroes.4349
0081273c l     F .text	000000bc __sbprintf
00000000 l    df *ABS*	00000000 wbuf.c
00000000 l    df *ABS*	00000000 mallocr.c
00000000 l    df *ABS*	00000000 fputwc.c
00000000 l    df *ABS*	00000000 fvwrite.c
00000000 l    df *ABS*	00000000 memmove.c
00000000 l    df *ABS*	00000000 mallocr.c
00000000 l    df *ABS*	00000000 wcrtomb.c
00000000 l    df *ABS*	00000000 wctomb_r.c
00000000 l    df *ABS*	00000000 libgcc2.c
00000000 l    df *ABS*	00000000 libgcc2.c
00000000 l    df *ABS*	00000000 adddf3.c
00000000 l    df *ABS*	00000000 divdf3.c
00000000 l    df *ABS*	00000000 eqdf2.c
00000000 l    df *ABS*	00000000 gedf2.c
00000000 l    df *ABS*	00000000 ledf2.c
00000000 l    df *ABS*	00000000 muldf3.c
00000000 l    df *ABS*	00000000 subdf3.c
00000000 l    df *ABS*	00000000 fixdfsi.c
00000000 l    df *ABS*	00000000 floatsidf.c
00000000 l    df *ABS*	00000000 floatunsidf.c
00000000 l    df *ABS*	00000000 libgcc2.c
00000000 l    df *ABS*	00000000 libgcc2.c
00000000 l    df *ABS*	00000000 alt_close.c
00816a98 l     F .text	0000003c alt_get_errno
00000000 l    df *ABS*	00000000 alt_dev.c
00816ba4 l     F .text	0000002c alt_dev_null_write
00000000 l    df *ABS*	00000000 alt_errno.c
00000000 l    df *ABS*	00000000 alt_fstat.c
00816bd0 l     F .text	0000003c alt_get_errno
00000000 l    df *ABS*	00000000 alt_irq_register.c
00000000 l    df *ABS*	00000000 alt_irq_vars.c
00000000 l    df *ABS*	00000000 alt_isatty.c
00816e3c l     F .text	0000003c alt_get_errno
00000000 l    df *ABS*	00000000 alt_load.c
00816f1c l     F .text	00000068 alt_load_section
00000000 l    df *ABS*	00000000 alt_lseek.c
00817008 l     F .text	0000003c alt_get_errno
00000000 l    df *ABS*	00000000 alt_main.c
00000000 l    df *ABS*	00000000 alt_malloc_lock.c
00000000 l    df *ABS*	00000000 alt_open.c
008171dc l     F .text	0000003c alt_get_errno
00817218 l     F .text	000000c4 alt_file_locked
00000000 l    df *ABS*	00000000 alt_printf.c
00000000 l    df *ABS*	00000000 alt_putchar.c
00000000 l    df *ABS*	00000000 alt_read.c
00817698 l     F .text	0000003c alt_get_errno
00000000 l    df *ABS*	00000000 alt_release_fd.c
00000000 l    df *ABS*	00000000 alt_sbrk.c
0081c204 l     O .rwdata	00000004 heap_end
00000000 l    df *ABS*	00000000 alt_write.c
008178e4 l     F .text	0000003c alt_get_errno
00000000 l    df *ABS*	00000000 alt_sys_init.c
00817a18 l     F .text	00000034 alt_dev_reg
0081bf50 l     O .rwdata	0000002c jtag_uart_0
0081bf7c l     O .rwdata	00000120 lcd_display
0081c09c l     O .rwdata	000000c4 uart
0081c160 l     O .rwdata	00000030 audio_i2c_config
0081c190 l     O .rwdata	00000030 Audio
00000000 l    df *ABS*	00000000 altera_avalon_jtag_uart_fd.c
00000000 l    df *ABS*	00000000 altera_avalon_jtag_uart_read.c
00000000 l    df *ABS*	00000000 altera_avalon_jtag_uart_write.c
00000000 l    df *ABS*	00000000 altera_avalon_lcd_16207.c
0081c208 l     O .rwdata	00000004 colstart
00817d64 l     F .text	000000b8 lcd_write_command
00817e1c l     F .text	000000d8 lcd_write_data
00817ef4 l     F .text	000000d0 lcd_clear_screen
00817fc4 l     F .text	000001ec lcd_repaint_screen
008181b0 l     F .text	000000cc lcd_scroll_up
0081827c l     F .text	000002ac lcd_handle_escape
00818a00 l     F .text	000000ac alt_lcd_16207_timeout
00000000 l    df *ABS*	00000000 altera_avalon_lcd_16207_fd.c
00000000 l    df *ABS*	00000000 altera_avalon_timer_sc.c
00818c40 l     F .text	0000007c alt_avalon_timer_sc_irq
00000000 l    df *ABS*	00000000 altera_avalon_uart_fd.c
00000000 l    df *ABS*	00000000 altera_avalon_uart_init.c
00818ee4 l     F .text	000000a0 altera_avalon_uart_irq
00818f84 l     F .text	000000e4 altera_avalon_uart_rxirq
00819068 l     F .text	00000148 altera_avalon_uart_txirq
00000000 l    df *ABS*	00000000 altera_avalon_uart_read.c
00819204 l     F .text	0000003c alt_get_errno
00000000 l    df *ABS*	00000000 altera_avalon_uart_write.c
0081941c l     F .text	0000003c alt_get_errno
00000000 l    df *ABS*	00000000 altera_up_avalon_audio.c
00000000 l    df *ABS*	00000000 alt_alarm_start.c
00000000 l    df *ABS*	00000000 alt_dcache_flush_all.c
00000000 l    df *ABS*	00000000 alt_dev_llist_insert.c
00819f20 l     F .text	0000003c alt_get_errno
00000000 l    df *ABS*	00000000 alt_do_ctors.c
00000000 l    df *ABS*	00000000 alt_do_dtors.c
00000000 l    df *ABS*	00000000 alt_find_dev.c
00000000 l    df *ABS*	00000000 alt_find_file.c
00000000 l    df *ABS*	00000000 alt_get_fd.c
00000000 l    df *ABS*	00000000 alt_icache_flush_all.c
00000000 l    df *ABS*	00000000 alt_io_redirect.c
0081a330 l     F .text	000000c4 alt_open_fd
00000000 l    df *ABS*	00000000 alt_tick.c
00000000 l    df *ABS*	00000000 alt_usleep.c
00000000 l    df *ABS*	00000000 altera_nios2_gen2_irq.c
00000000 l    df *ABS*	00000000 alt_busy_sleep.c
00000000 l    df *ABS*	00000000 alt_icache_flush.c
00000000 l    df *ABS*	00000000 atexit.c
00000000 l    df *ABS*	00000000 ctype_.c
0081b36c l     O .rodata	00000180 _ctype_b
00000000 l    df *ABS*	00000000 exit.c
00000000 l    df *ABS*	00000000 memcmp.c
00000000 l    df *ABS*	00000000 __atexit.c
00000000 l    df *ABS*	00000000 __call_atexit.c
00000000 l    df *ABS*	00000000 alt_exit.c
0081cfb4 g     O .bss	00000004 alt_instruction_exception_handler
0080b78c g     F .text	00000018 putchar
0081c1c8 g     O .rwdata	00000004 stopped
00810d20 g     F .text	00000074 _mprec_log10
00810e0c g     F .text	0000008c __any_on
0080fae0 g     F .text	00000054 _isatty_r
0081afbc g     O .rodata	00000028 __mprec_tinytens
008078b0 g     F .text	000000d8 f_gets
00817118 g     F .text	0000007c alt_main
0080bbac g     F .text	00000090 strcpy
0081cfe0 g     O .bss	00000230 Fatfs
0081d648 g     O .bss	00000100 alt_irq
0080fc10 g     F .text	00000060 _lseek_r
00801b44 g     F .text	00000290 get_fat
0081c218 g       *ABS*	00000000 __flash_rwdata_start
0080fa34 g     F .text	000000ac __sflags
008155c4 g     F .text	00000088 .hidden __eqdf2
008198ac g     F .text	00000060 alt_up_audio_read_fifo_avail
0081d748 g       *ABS*	00000000 __alt_heap_start
00809554 g     F .text	0000003c uart0_put
0080b748 g     F .text	0000003c printf
00807a94 g     F .text	00000660 f_printf
0081990c g     F .text	00000068 alt_up_audio_record_r
00813798 g     F .text	0000009c _wcrtomb_r
0080bb48 g     F .text	0000005c __sseek
00809e90 g     F .text	00000010 __sinit
008127f8 g     F .text	00000140 __swbuf_r
0081cf5c g     O .bss	00000004 lcd
0080fb34 g     F .text	0000007c _setlocale_r
00809cf8 g     F .text	00000068 __sfmoreglue
008171b8 g     F .text	00000024 __malloc_unlock
0081c1c4 g     O .rwdata	00000004 playMode
0081c1cc g     O .rwdata	00000004 buttonState
00819818 g     F .text	00000094 alt_up_audio_reset_audio_core
008130d8 g     F .text	0000015c memmove
00809e78 g     F .text	00000018 _cleanup
0080fe9c g     F .text	000000a8 _Balloc
0081564c g     F .text	000000dc .hidden __gtdf2
0081a644 g     F .text	00000024 altera_nios2_gen2_irq_init
00800000 g     F .entry	0000001c __reset
00800020 g       *ABS*	00000000 __flash_exceptions_start
00808420 g     F .text	000000b4 printFiles
0080a8ec g     F .text	0000005c _fstat_r
0081cf80 g     O .bss	00000004 errno
0080ba08 g     F .text	00000014 __srget
0080bac4 g     F .text	00000008 __seofread
00800f28 g     F .text	00000170 ffs_DiskIOWrite
008197d8 g     F .text	00000040 alt_up_audio_write_interrupt_pending
0081cfa4 g     O .bss	00000004 alt_argv
008241c0 g       *ABS*	00000000 _gp
0081a614 g     F .text	00000030 usleep
0081cf60 g     O .bss	00000004 numFiles
0081bdd0 g     O .rwdata	00000180 alt_fd_list
0081d210 g     O .bss	00000018 Finfo
0080aad0 g     F .text	00000070 _getc_r
0080ab40 g     F .text	00000088 getc
0080b784 g     F .text	00000008 _putchar_r
00801098 g     F .text	000004c4 ffs_DiskIOIoctl
0081a0c0 g     F .text	00000090 alt_find_dev
0080fd54 g     F .text	00000148 memcpy
00809b48 g     F .text	0000000c _cleanup_r
008168b0 g     F .text	000000dc .hidden __floatsidf
0081a3f4 g     F .text	0000007c alt_io_redirect
00815728 g     F .text	000000f4 .hidden __ltdf2
0081ac80 g       *ABS*	00000000 __DTOR_END__
0081a850 g     F .text	0000009c alt_exception_cause_generated_bad_addr
00811060 g     F .text	00000074 __fpclassifyd
00810c7c g     F .text	000000a4 __ratio
00812720 g     F .text	0000001c __vfiprintf_internal
008066dc g     F .text	00000314 f_rename
00819cf4 g     F .text	00000050 alt_up_audio_read_fifo_head
00817be4 g     F .text	000000ec altera_avalon_jtag_uart_read
0080b718 g     F .text	00000030 _printf_r
008096d8 g     F .text	00000064 .hidden __udivsi3
00816e78 g     F .text	000000a4 isatty
0081b00c g     O .rodata	000000c8 __mprec_tens
0080fbb0 g     F .text	0000000c __locale_charset
00808ecc g     F .text	000001c0 xitoa
0081a7c0 g     F .text	00000090 alt_icache_flush
0081cf8c g     O .bss	00000004 __malloc_top_pad
00805c84 g     F .text	000001e8 f_truncate
00808b88 g     F .text	00000284 xatoi
00808330 g     F .text	000000f0 isWav
0081c1e0 g     O .rwdata	00000004 __mb_cur_max
0080fbe0 g     F .text	0000000c _localeconv_r
00812c1c g     F .text	000004bc __sfvwrite_r
008102a8 g     F .text	0000003c __i2b
0081cf78 g     O .bss	00000004 audio_dev
0080ba1c g     F .text	00000054 _sbrk_r
00809350 g     F .text	00000120 put_dump
0081cf7c g     O .bss	00000004 ptr
00811000 g     F .text	00000060 _read_r
0081c1f8 g     O .rwdata	00000004 alt_max_fd
0081d228 g     O .bss	00000224 File
00819d44 g     F .text	00000068 alt_up_audio_write_fifo_head
00809794 g     F .text	000000f0 _fclose_r
00809b10 g     F .text	00000030 fflush
0081cf88 g     O .bss	00000004 __malloc_max_sbrked_mem
00816cbc g     F .text	00000180 alt_irq_register
0081cf74 g     O .bss	00000004 toPerform
00814430 g     F .text	000008ac .hidden __adddf3
00810a24 g     F .text	0000010c __b2d
00813ef8 g     F .text	00000538 .hidden __umoddi3
00817044 g     F .text	000000d4 lseek
0081c1d0 g     O .rwdata	00000004 _global_impure_ptr
00813234 g     F .text	00000564 _realloc_r
0081d748 g       *ABS*	00000000 __bss_end
0081a50c g     F .text	00000108 alt_tick
00813980 g     F .text	00000578 .hidden __udivdi3
00812b78 g     F .text	00000024 _fputwc_r
0081afe4 g     O .rodata	00000028 __mprec_bigtens
0081008c g     F .text	00000104 __s2b
0081698c g     F .text	000000a8 .hidden __floatunsidf
00810764 g     F .text	00000060 __mcmp
00818e40 g     F .text	000000a4 altera_avalon_uart_init
00819604 g     F .text	0000003c alt_up_audio_open_dev
00809eb0 g     F .text	00000018 __fp_lock_all
00805e6c g     F .text	00000218 f_unlink
0081b4ec g     O .rwdata	00000018 modeStrings
00819a3c g     F .text	00000068 alt_up_audio_play_r
0081a470 g     F .text	0000009c alt_alarm_stop
0080908c g     F .text	000002c4 xprintf
0081d44c g     O .bss	00000050 fileSizes
0081cf9c g     O .bss	00000004 alt_irq_active
0080a48c g     F .text	00000444 _fseeko_r
00809470 g     F .text	000000c0 get_line
008000fc g     F .exceptions	000000d8 alt_irq_handler
0081bda8 g     O .rwdata	00000028 alt_dev_null
00807988 g     F .text	00000074 f_putc
008079fc g     F .text	00000098 f_puts
00819ed8 g     F .text	00000048 alt_dcache_flush_all
00810190 g     F .text	00000068 __hi0bits
00816830 g     F .text	00000080 .hidden __fixdfsi
0081c218 g       *ABS*	00000000 __ram_rwdata_end
0081c1f0 g     O .rwdata	00000008 alt_dev_list
00817920 g     F .text	000000f8 write
00810e98 g     F .text	000000a0 _putc_r
0081b4ec g       *ABS*	00000000 __ram_rodata_end
00816c0c g     F .text	000000b0 fstat
0080a014 g     F .text	00000024 fprintf
0081cf68 g     O .bss	00000004 playing
00815728 g     F .text	000000f4 .hidden __ledf2
008104dc g     F .text	00000140 __pow5mult
008112c4 g     F .text	0000145c ___vfiprintf_internal_r
0081cf98 g     O .bss	00000004 __nlocale_changed
0080973c g     F .text	00000058 .hidden __umodsi3
0081d748 g       *ABS*	00000000 end
00808674 g     F .text	000000e8 writeToLCD
00818528 g     F .text	000004d8 altera_avalon_lcd_16207_write
0080a8d0 g     F .text	0000001c fseeko
00819458 g     F .text	000001ac altera_avalon_uart_write
0080a470 g     F .text	0000001c fseek
008001d4 g     F .exceptions	00000074 alt_instruction_exception_entry
0081ac80 g       *ABS*	00000000 __CTOR_LIST__
01000000 g       *ABS*	00000000 __alt_stack_pointer
00818cbc g     F .text	00000074 alt_avalon_timer_sc_init
00818d90 g     F .text	00000060 altera_avalon_uart_write_fd
00816a34 g     F .text	00000064 .hidden __clzsi2
00818df0 g     F .text	00000050 altera_avalon_uart_close_fd
00817cd0 g     F .text	00000094 altera_avalon_jtag_uart_write
00809ea0 g     F .text	00000004 __sfp_lock_acquire
0080fc70 g     F .text	000000e4 memchr
0080bcd4 g     F .text	000021f8 ___vfprintf_internal_r
0080a15c g     F .text	00000310 _free_r
00817430 g     F .text	0000022c alt_printf
0080fbbc g     F .text	00000010 __locale_mb_cur_max
00808e60 g     F .text	0000006c xputs
0081aacc g     F .text	00000180 __call_exitprocs
0080b994 g     F .text	00000074 __srget_r
00809530 g     F .text	00000024 uart0_init
0081cf94 g     O .bss	00000004 __mlocale_changed
0080516c g     F .text	00000048 f_close
0081c1d8 g     O .rwdata	00000004 __malloc_sbrk_base
00800248 g     F .text	0000004c _start
0081cfac g     O .bss	00000004 _alt_tick_rate
00819bec g     F .text	00000108 alt_up_audio_write_fifo
0081061c g     F .text	00000148 __lshift
0081cfb0 g     O .bss	00000004 _alt_nticks
008176d4 g     F .text	000000fc read
00817a84 g     F .text	000000a0 alt_sys_init
00819b0c g     F .text	000000e0 alt_up_audio_read_fifo
0080b6b8 g     F .text	00000060 _open_r
0081a9b4 g     F .text	00000118 __register_exitproc
00804478 g     F .text	000004e8 f_read
00819740 g     F .text	00000058 alt_up_audio_disable_write_interrupt
008102e4 g     F .text	000001f8 __multiply
00805814 g     F .text	000000e4 f_readdir
0081b4ec g       *ABS*	00000000 __ram_rwdata_start
00800e08 g     F .text	00000120 ffs_DiskIORead
0081ac80 g       *ABS*	00000000 __ram_rodata_start
0081cfb8 g     O .bss	00000028 __malloc_current_mallinfo
00810b30 g     F .text	0000014c __d2b
008064bc g     F .text	0000010c f_chmod
00817b24 g     F .text	00000060 altera_avalon_jtag_uart_read_fd
0081a258 g     F .text	000000a4 alt_get_fd
00800a78 g     F .text	0000010c ffs_DiskIOTimerproc
0081a668 g     F .text	00000158 alt_busy_sleep
0080e158 g     F .text	00000054 _close_r
008196ec g     F .text	00000054 alt_up_audio_enable_write_interrupt
00800b84 g     F .text	0000025c ffs_DiskIOInitialize
0081cf64 g     O .bss	00000004 curIndex
0081a938 g     F .text	0000007c memcmp
0081d748 g       *ABS*	00000000 __alt_stack_base
0080e004 g     F .text	00000154 __swsetup_r
0081d49c g     O .bss	0000001c Dir
00814cdc g     F .text	000008e8 .hidden __divdf3
00819694 g     F .text	00000058 alt_up_audio_disable_read_interrupt
00809d60 g     F .text	00000118 __sfp
00810d94 g     F .text	00000078 __copybits
0081b928 g     O .rwdata	00000408 __malloc_av_
00809eac g     F .text	00000004 __sinit_lock_release
0081581c g     F .text	00000718 .hidden __muldf3
0080ba70 g     F .text	00000054 __sread
0080155c g     F .text	0000002c get_fattime
0081a150 g     F .text	00000108 alt_find_file
00819f5c g     F .text	000000a4 alt_dev_llist_insert
00817194 g     F .text	00000024 __malloc_lock
00809fec g     F .text	00000028 _fprintf_r
00817834 g     F .text	000000b0 sbrk
00809ab4 g     F .text	0000005c _fflush_r
00812950 g     F .text	000000c4 _calloc_r
00809fd4 g     F .text	00000018 fopen
0081cf44 g       *ABS*	00000000 __bss_start
0080b590 g     F .text	00000128 memset
00808a6c g     F .text	0000011c main
008199dc g     F .text	00000060 alt_up_audio_write_fifo_space
0081cfa8 g     O .bss	00000004 alt_envp
0081cf84 g     O .bss	00000004 __malloc_max_total_mem
00817b84 g     F .text	00000060 altera_avalon_jtag_uart_write_fd
00812938 g     F .text	00000018 __swbuf
00804ee4 g     F .text	00000288 f_sync
00818aac g     F .text	00000134 altera_avalon_lcd_16207_init
0080bba4 g     F .text	00000008 __sclose
01000000 g       *ABS*	00000000 __alt_heap_limit
00809884 g     F .text	00000014 fclose
0080e3ac g     F .text	00001688 _dtoa_r
0080ad84 g     F .text	0000080c _malloc_r
008138f4 g     F .text	00000030 __ascii_wctomb
008069f0 g     F .text	00000ec0 f_mkfs
0081c1fc g     O .rwdata	00000004 alt_errno
00803f60 g     F .text	00000094 f_mount
0080a948 g     F .text	000000c4 _fwalk
008056a4 g     F .text	00000170 f_opendir
00810f38 g     F .text	000000c8 putc
008095e0 g     F .text	00000084 .hidden __divsi3
0080a038 g     F .text	00000124 _malloc_trim_r
0081ac80 g       *ABS*	00000000 __CTOR_END__
008110d4 g     F .text	000000dc strcmp
0081ac80 g       *ABS*	00000000 __flash_rodata_start
0081ac80 g       *ABS*	00000000 __DTOR_LIST__
00801dd4 g     F .text	00000380 put_fat
00808e0c g     F .text	00000054 xputc
008155c4 g     F .text	00000088 .hidden __nedf2
00817a4c g     F .text	00000038 alt_irq_init
008177d0 g     F .text	00000064 alt_release_fd
008051b4 g     F .text	000004f0 f_lseek
0081b0f4 g     O .rodata	00000100 .hidden __clz_tab
0081cf90 g     O .bss	00000004 _PathLocale
0081a8ec g     F .text	00000014 atexit
0080dfa4 g     F .text	00000060 _write_r
0080fbec g     F .text	00000018 setlocale
0081c1d4 g     O .rwdata	00000004 _impure_ptr
0081cfa0 g     O .bss	00000004 alt_argc
00809898 g     F .text	0000021c __sflush_r
0081a060 g     F .text	00000060 _do_dtors
0080fbd8 g     F .text	00000008 __locale_cjk_lang
0080a46c g     F .text	00000004 _fseek_r
0080b7c0 g     F .text	000001d4 __srefill_r
00800000 g       *ABS*	00000000 __alt_mem_sdram_0
00800020 g       .exceptions	00000000 alt_irq_entry
00800de0 g     F .text	00000028 ffs_DiskIOStatus
008109c0 g     F .text	00000064 __ulp
008058f8 g     F .text	000000a0 f_stat
00809ec8 g     F .text	00000018 __fp_unlock_all
00818be0 g     F .text	00000060 altera_avalon_lcd_16207_write_fd
0081c1e8 g     O .rwdata	00000008 alt_fs_list
00819974 g     F .text	00000068 alt_up_audio_record_l
00800020 g       *ABS*	00000000 __ram_exceptions_start
0080fc04 g     F .text	0000000c localeconv
00801ad8 g     F .text	0000006c clust2sect
0081c218 g       *ABS*	00000000 _edata
008065c8 g     F .text	00000114 f_utime
00818d30 g     F .text	00000060 altera_avalon_uart_read_fd
0081d748 g       *ABS*	00000000 _end
00812a14 g     F .text	00000164 __fputwc
00800248 g       *ABS*	00000000 __ram_exceptions_end
00804960 g     F .text	00000584 f_write
00819aa4 g     F .text	00000068 alt_up_audio_play_l
0080bacc g     F .text	0000007c __swrite
0081c1dc g     O .rwdata	00000004 __malloc_trim_threshold
00803ff4 g     F .text	00000484 f_open
0080fbcc g     F .text	0000000c __locale_msgcharset
0081a900 g     F .text	00000038 exit
0080aa0c g     F .text	000000c4 _fwalk_reent
008107c4 g     F .text	000001fc __mdiff
00809664 g     F .text	00000074 .hidden __modsi3
0081c214 g     O .rwdata	00000004 __ctype_ptr__
01000000 g       *ABS*	00000000 __alt_data_end
00800020 g     F .exceptions	00000000 alt_exception
00809ea4 g     F .text	00000004 __sfp_lock_release
008084d4 g     F .text	000000f8 getWavFiles
008085cc g     F .text	000000a8 put_rc
0081b26b g     O .rodata	00000101 _ctype_
00809590 g     F .text	00000050 uart0_get
00806084 g     F .text	00000438 f_mkdir
008191b0 g     F .text	00000054 altera_avalon_uart_close
00809ee0 g     F .text	000000f4 _fopen_r
0081ac4c g     F .text	00000034 _exit
00800294 g     F .text	00000024 ffs_Init
00819dac g     F .text	0000012c alt_alarm_start
0080abc8 g     F .text	000001bc __smakebuf_r
0080bc3c g     F .text	00000098 strlen
008172dc g     F .text	00000154 open
0081564c g     F .text	000000dc .hidden __gedf2
0081765c g     F .text	0000003c alt_putchar
0081c1e4 g     O .rwdata	00000004 __wctomb
008112ac g     F .text	00000018 __sprint_r
0081a2fc g     F .text	00000034 alt_icache_flush_all
00805998 g     F .text	000002ec f_getfree
0081c200 g     O .rwdata	00000004 alt_priority_mask
0080decc g     F .text	0000001c __vfprintf_internal
0081cf70 g     O .bss	00000004 trackChange
00819240 g     F .text	000001dc altera_avalon_uart_read
00813924 g     F .text	0000005c _wctomb_r
0081cf6c g     O .bss	00000004 terminate
00815f34 g     F .text	000008fc .hidden __subdf3
00800a4c g     F .text	0000002c ffs_DiskIOInit
008101f8 g     F .text	000000b0 __lo0bits
0081c20c g     O .rwdata	00000008 alt_alarm_list
0081a000 g     F .text	00000060 _do_ctors
00813834 g     F .text	000000c0 wcrtomb
00816ad4 g     F .text	000000d0 close
00816f84 g     F .text	00000084 alt_load
00819640 g     F .text	00000054 alt_up_audio_enable_read_interrupt
0081d4b8 g     O .bss	00000190 fileNames
00812b9c g     F .text	00000080 fputwc
00809ea8 g     F .text	00000004 __sinit_lock_acquire
0080ff6c g     F .text	00000120 __multadd
0080ff44 g     F .text	00000028 _Bfree
0080875c g     F .text	00000310 playTrack
00819798 g     F .text	00000040 alt_up_audio_read_interrupt_pending



Disassembly of section .entry:

00800000 <__reset>:
  800000:	00840014 	movui	r2,4096
  800004:	1001483a 	initi	r2
  800008:	10bff804 	addi	r2,r2,-32
  80000c:	00bffd16 	blt	zero,r2,800004 <__alt_data_end+0xff800004>
  800010:	00402034 	movhi	at,128
  800014:	08409214 	ori	at,at,584
  800018:	0800683a 	jmp	at
  80001c:	00000000 	call	0 <__reset-0x800000>

Disassembly of section .exceptions:

00800020 <alt_exception>:
  800020:	deffed04 	addi	sp,sp,-76
  800024:	dfc00015 	stw	ra,0(sp)
  800028:	d8400215 	stw	at,8(sp)
  80002c:	d8800315 	stw	r2,12(sp)
  800030:	d8c00415 	stw	r3,16(sp)
  800034:	d9000515 	stw	r4,20(sp)
  800038:	d9400615 	stw	r5,24(sp)
  80003c:	d9800715 	stw	r6,28(sp)
  800040:	d9c00815 	stw	r7,32(sp)
  800044:	000b307a 	rdctl	r5,estatus
  800048:	da000915 	stw	r8,36(sp)
  80004c:	da400a15 	stw	r9,40(sp)
  800050:	da800b15 	stw	r10,44(sp)
  800054:	dac00c15 	stw	r11,48(sp)
  800058:	db000d15 	stw	r12,52(sp)
  80005c:	db400e15 	stw	r13,56(sp)
  800060:	db800f15 	stw	r14,60(sp)
  800064:	dbc01015 	stw	r15,64(sp)
  800068:	d9401115 	stw	r5,68(sp)
  80006c:	ebffff04 	addi	r15,ea,-4
  800070:	dbc01215 	stw	r15,72(sp)
  800074:	0009313a 	rdctl	r4,ipending
  800078:	2880004c 	andi	r2,r5,1
  80007c:	10000326 	beq	r2,zero,80008c <alt_exception+0x6c>
  800080:	20000226 	beq	r4,zero,80008c <alt_exception+0x6c>
  800084:	08000fc0 	call	8000fc <alt_irq_handler>
  800088:	00000706 	br	8000a8 <alt_exception+0x88>
  80008c:	df401215 	stw	ea,72(sp)
  800090:	e8bfff17 	ldw	r2,-4(ea)
  800094:	e93fff04 	addi	r4,ea,-4
  800098:	08001d40 	call	8001d4 <alt_instruction_exception_entry>
  80009c:	1000021e 	bne	r2,zero,8000a8 <alt_exception+0x88>
  8000a0:	ebffff04 	addi	r15,ea,-4
  8000a4:	dbc01215 	stw	r15,72(sp)
  8000a8:	d9401117 	ldw	r5,68(sp)
  8000ac:	df401217 	ldw	ea,72(sp)
  8000b0:	dfc00017 	ldw	ra,0(sp)
  8000b4:	2801707a 	wrctl	estatus,r5
  8000b8:	d8400217 	ldw	at,8(sp)
  8000bc:	d8800317 	ldw	r2,12(sp)
  8000c0:	d8c00417 	ldw	r3,16(sp)
  8000c4:	d9000517 	ldw	r4,20(sp)
  8000c8:	d9400617 	ldw	r5,24(sp)
  8000cc:	d9800717 	ldw	r6,28(sp)
  8000d0:	d9c00817 	ldw	r7,32(sp)
  8000d4:	da000917 	ldw	r8,36(sp)
  8000d8:	da400a17 	ldw	r9,40(sp)
  8000dc:	da800b17 	ldw	r10,44(sp)
  8000e0:	dac00c17 	ldw	r11,48(sp)
  8000e4:	db000d17 	ldw	r12,52(sp)
  8000e8:	db400e17 	ldw	r13,56(sp)
  8000ec:	db800f17 	ldw	r14,60(sp)
  8000f0:	dbc01017 	ldw	r15,64(sp)
  8000f4:	dec01304 	addi	sp,sp,76
  8000f8:	ef80083a 	eret

008000fc <alt_irq_handler>:
  8000fc:	defff904 	addi	sp,sp,-28
  800100:	dfc00615 	stw	ra,24(sp)
  800104:	df000515 	stw	fp,20(sp)
  800108:	df000504 	addi	fp,sp,20
  80010c:	0001883a 	nop
  800110:	0005313a 	rdctl	r2,ipending
  800114:	e0bffe15 	stw	r2,-8(fp)
  800118:	e0bffe17 	ldw	r2,-8(fp)
  80011c:	e0bffb15 	stw	r2,-20(fp)
  800120:	e03ffd15 	stw	zero,-12(fp)
  800124:	00800044 	movi	r2,1
  800128:	e0bffc15 	stw	r2,-16(fp)
  80012c:	e0fffb17 	ldw	r3,-20(fp)
  800130:	e0bffc17 	ldw	r2,-16(fp)
  800134:	1884703a 	and	r2,r3,r2
  800138:	10001526 	beq	r2,zero,800190 <alt_irq_handler+0x94>
  80013c:	008020b4 	movhi	r2,130
  800140:	10b59204 	addi	r2,r2,-10680
  800144:	e0fffd17 	ldw	r3,-12(fp)
  800148:	180690fa 	slli	r3,r3,3
  80014c:	10c5883a 	add	r2,r2,r3
  800150:	10c00017 	ldw	r3,0(r2)
  800154:	008020b4 	movhi	r2,130
  800158:	10b59204 	addi	r2,r2,-10680
  80015c:	e13ffd17 	ldw	r4,-12(fp)
  800160:	200890fa 	slli	r4,r4,3
  800164:	1105883a 	add	r2,r2,r4
  800168:	10800104 	addi	r2,r2,4
  80016c:	10800017 	ldw	r2,0(r2)
  800170:	e17ffd17 	ldw	r5,-12(fp)
  800174:	1009883a 	mov	r4,r2
  800178:	183ee83a 	callr	r3
  80017c:	0001883a 	nop
  800180:	0005313a 	rdctl	r2,ipending
  800184:	e0bfff15 	stw	r2,-4(fp)
  800188:	e0bfff17 	ldw	r2,-4(fp)
  80018c:	00000706 	br	8001ac <alt_irq_handler+0xb0>
  800190:	e0bffc17 	ldw	r2,-16(fp)
  800194:	1085883a 	add	r2,r2,r2
  800198:	e0bffc15 	stw	r2,-16(fp)
  80019c:	e0bffd17 	ldw	r2,-12(fp)
  8001a0:	10800044 	addi	r2,r2,1
  8001a4:	e0bffd15 	stw	r2,-12(fp)
  8001a8:	003fe006 	br	80012c <__alt_data_end+0xff80012c>
  8001ac:	e0bffb15 	stw	r2,-20(fp)
  8001b0:	e0bffb17 	ldw	r2,-20(fp)
  8001b4:	103fda1e 	bne	r2,zero,800120 <__alt_data_end+0xff800120>
  8001b8:	0001883a 	nop
  8001bc:	0001883a 	nop
  8001c0:	e037883a 	mov	sp,fp
  8001c4:	dfc00117 	ldw	ra,4(sp)
  8001c8:	df000017 	ldw	fp,0(sp)
  8001cc:	dec00204 	addi	sp,sp,8
  8001d0:	f800283a 	ret

008001d4 <alt_instruction_exception_entry>:
  8001d4:	defffb04 	addi	sp,sp,-20
  8001d8:	dfc00415 	stw	ra,16(sp)
  8001dc:	df000315 	stw	fp,12(sp)
  8001e0:	df000304 	addi	fp,sp,12
  8001e4:	e13fff15 	stw	r4,-4(fp)
  8001e8:	000531fa 	rdctl	r2,exception
  8001ec:	e0bffd15 	stw	r2,-12(fp)
  8001f0:	e0bffd17 	ldw	r2,-12(fp)
  8001f4:	10801f0c 	andi	r2,r2,124
  8001f8:	1004d0ba 	srli	r2,r2,2
  8001fc:	e0bffd15 	stw	r2,-12(fp)
  800200:	0005333a 	rdctl	r2,badaddr
  800204:	e0bffe15 	stw	r2,-8(fp)
  800208:	d0a37d17 	ldw	r2,-29196(gp)
  80020c:	10000726 	beq	r2,zero,80022c <alt_instruction_exception_entry+0x58>
  800210:	d0a37d17 	ldw	r2,-29196(gp)
  800214:	e0fffd17 	ldw	r3,-12(fp)
  800218:	e1bffe17 	ldw	r6,-8(fp)
  80021c:	e17fff17 	ldw	r5,-4(fp)
  800220:	1809883a 	mov	r4,r3
  800224:	103ee83a 	callr	r2
  800228:	00000206 	br	800234 <alt_instruction_exception_entry+0x60>
  80022c:	003da03a 	break	0
  800230:	0005883a 	mov	r2,zero
  800234:	e037883a 	mov	sp,fp
  800238:	dfc00117 	ldw	ra,4(sp)
  80023c:	df000017 	ldw	fp,0(sp)
  800240:	dec00204 	addi	sp,sp,8
  800244:	f800283a 	ret

Disassembly of section .text:

00800248 <_start>:
  800248:	00820014 	movui	r2,2048
  80024c:	10000033 	initd	0(r2)
  800250:	10bff804 	addi	r2,r2,-32
  800254:	00bffd16 	blt	zero,r2,80024c <__alt_data_end+0xff80024c>
  800258:	06c04034 	movhi	sp,256
  80025c:	dec00014 	ori	sp,sp,0
  800260:	068020b4 	movhi	gp,130
  800264:	d6907014 	ori	gp,gp,16832
  800268:	00802074 	movhi	r2,129
  80026c:	10b3d114 	ori	r2,r2,53060
  800270:	00c02074 	movhi	r3,129
  800274:	18f5d214 	ori	r3,r3,55112
  800278:	10c00326 	beq	r2,r3,800288 <_start+0x40>
  80027c:	10000015 	stw	zero,0(r2)
  800280:	10800104 	addi	r2,r2,4
  800284:	10fffd36 	bltu	r2,r3,80027c <__alt_data_end+0xff80027c>
  800288:	0816f840 	call	816f84 <alt_load>
  80028c:	08171180 	call	817118 <alt_main>

00800290 <alt_after_alt_main>:
  800290:	003fff06 	br	800290 <__alt_data_end+0xff800290>

00800294 <ffs_Init>:
  800294:	defffe04 	addi	sp,sp,-8
  800298:	df000115 	stw	fp,4(sp)
  80029c:	df000104 	addi	fp,sp,4
  8002a0:	e03fff0d 	sth	zero,-4(fp)
  8002a4:	e0bfff0b 	ldhu	r2,-4(fp)
  8002a8:	e037883a 	mov	sp,fp
  8002ac:	df000017 	ldw	fp,0(sp)
  8002b0:	dec00104 	addi	sp,sp,4
  8002b4:	f800283a 	ret

008002b8 <SetLowSpeed>:
/*  In    : none                                                           */
/*  Out   : none                                                           */
/*  Return: none                                                           */
/***************************************************************************/
static void SetLowSpeed(void)
{
  8002b8:	deffff04 	addi	sp,sp,-4
  8002bc:	df000015 	stw	fp,0(sp)
  8002c0:	d839883a 	mov	fp,sp
   Control1 &= ~0xFF00;
  8002c4:	d0e36317 	ldw	r3,-29300(gp)
  8002c8:	00bffff4 	movhi	r2,65535
  8002cc:	10803fc4 	addi	r2,r2,255
  8002d0:	1884703a 	and	r2,r3,r2
  8002d4:	d0a36315 	stw	r2,-29300(gp)
   Control1 |= (249 << 8);
  8002d8:	d0a36317 	ldw	r2,-29300(gp)
  8002dc:	10be4014 	ori	r2,r2,63744
  8002e0:	d0a36315 	stw	r2,-29300(gp)
   SPI_CTRL  = Control1;
  8002e4:	00a04034 	movhi	r2,33024
  8002e8:	10840204 	addi	r2,r2,4104
  8002ec:	d0e36317 	ldw	r3,-29300(gp)
  8002f0:	10c00015 	stw	r3,0(r2)
} /* SetLowSpeed */
  8002f4:	0001883a 	nop
  8002f8:	e037883a 	mov	sp,fp
  8002fc:	df000017 	ldw	fp,0(sp)
  800300:	dec00104 	addi	sp,sp,4
  800304:	f800283a 	ret

00800308 <SetHighSpeed>:
/*  In    : none                                                           */
/*  Out   : none                                                           */
/*  Return: none                                                           */
/***************************************************************************/
static void SetHighSpeed(void)
{
  800308:	deffff04 	addi	sp,sp,-4
  80030c:	df000015 	stw	fp,0(sp)
  800310:	d839883a 	mov	fp,sp
   Control1 &= ~0xFF00;
  800314:	d0e36317 	ldw	r3,-29300(gp)
  800318:	00bffff4 	movhi	r2,65535
  80031c:	10803fc4 	addi	r2,r2,255
  800320:	1884703a 	and	r2,r3,r2
  800324:	d0a36315 	stw	r2,-29300(gp)

   if (0 == (CardType & 0x01))
  800328:	d0a36103 	ldbu	r2,-29308(gp)
  80032c:	10803fcc 	andi	r2,r2,255
  800330:	1080004c 	andi	r2,r2,1
  800334:	1000041e 	bne	r2,zero,800348 <SetHighSpeed+0x40>
   {
      /* SD card 25 MHz */
      Control1 |= (1 << 8);
  800338:	d0a36317 	ldw	r2,-29300(gp)
  80033c:	10804014 	ori	r2,r2,256
  800340:	d0a36315 	stw	r2,-29300(gp)
  800344:	00000306 	br	800354 <SetHighSpeed+0x4c>
   }
   else
   {
      /* MMC card 16 MHz */
      Control1 |= (2 << 8);
  800348:	d0a36317 	ldw	r2,-29300(gp)
  80034c:	10808014 	ori	r2,r2,512
  800350:	d0a36315 	stw	r2,-29300(gp)
   }
   SPI_CTRL  = Control1;
  800354:	00a04034 	movhi	r2,33024
  800358:	10840204 	addi	r2,r2,4104
  80035c:	d0e36317 	ldw	r3,-29300(gp)
  800360:	10c00015 	stw	r3,0(r2)
} /* SetHighSpeed */
  800364:	0001883a 	nop
  800368:	e037883a 	mov	sp,fp
  80036c:	df000017 	ldw	fp,0(sp)
  800370:	dec00104 	addi	sp,sp,4
  800374:	f800283a 	ret

00800378 <InitDiskIOHardware>:
/*  In    : none                                                           */
/*  Out   : none                                                           */
/*  Return: none                                                           */
/***************************************************************************/
static void InitDiskIOHardware(void)
{
  800378:	defffe04 	addi	sp,sp,-8
  80037c:	dfc00115 	stw	ra,4(sp)
  800380:	df000015 	stw	fp,0(sp)
  800384:	d839883a 	mov	fp,sp
   /*
    * Deselct before to prevent glitch
    */
   DESELECT();
  800388:	d0a36317 	ldw	r2,-29300(gp)
  80038c:	10800054 	ori	r2,r2,1
  800390:	d0a36315 	stw	r2,-29300(gp)
  800394:	00a04034 	movhi	r2,33024
  800398:	10840204 	addi	r2,r2,4104
  80039c:	d0e36317 	ldw	r3,-29300(gp)
  8003a0:	10c00015 	stw	r3,0(r2)

   /* Slow during init */
   SetLowSpeed();
  8003a4:	08002b80 	call	8002b8 <SetLowSpeed>
   
} /* InitDiskIOHardware */
  8003a8:	0001883a 	nop
  8003ac:	e037883a 	mov	sp,fp
  8003b0:	dfc00117 	ldw	ra,4(sp)
  8003b4:	df000017 	ldw	fp,0(sp)
  8003b8:	dec00204 	addi	sp,sp,8
  8003bc:	f800283a 	ret

008003c0 <Set8BitTransfer>:
/*  In    : none                                                           */
/*  Out   : none                                                           */
/*  Return: none                                                           */
/***************************************************************************/
static void Set8BitTransfer(void)
{
  8003c0:	deffff04 	addi	sp,sp,-4
  8003c4:	df000015 	stw	fp,0(sp)
  8003c8:	d839883a 	mov	fp,sp
   Control1 &= ~CTRL_BIT32;
  8003cc:	d0e36317 	ldw	r3,-29300(gp)
  8003d0:	00bfff44 	movi	r2,-3
  8003d4:	1884703a 	and	r2,r3,r2
  8003d8:	d0a36315 	stw	r2,-29300(gp)
   SPI_CTRL  = Control1;
  8003dc:	00a04034 	movhi	r2,33024
  8003e0:	10840204 	addi	r2,r2,4104
  8003e4:	d0e36317 	ldw	r3,-29300(gp)
  8003e8:	10c00015 	stw	r3,0(r2)
} /* Set8BitTransfer */
  8003ec:	0001883a 	nop
  8003f0:	e037883a 	mov	sp,fp
  8003f4:	df000017 	ldw	fp,0(sp)
  8003f8:	dec00104 	addi	sp,sp,4
  8003fc:	f800283a 	ret

00800400 <Set32BitTransfer>:
/*  In    : none                                                           */
/*  Out   : none                                                           */
/*  Return: none                                                           */
/***************************************************************************/
static void Set32BitTransfer(void)
{
  800400:	deffff04 	addi	sp,sp,-4
  800404:	df000015 	stw	fp,0(sp)
  800408:	d839883a 	mov	fp,sp
   Control1 |= CTRL_BIT32;
  80040c:	d0a36317 	ldw	r2,-29300(gp)
  800410:	10800094 	ori	r2,r2,2
  800414:	d0a36315 	stw	r2,-29300(gp)
   SPI_CTRL  = Control1;
  800418:	00a04034 	movhi	r2,33024
  80041c:	10840204 	addi	r2,r2,4104
  800420:	d0e36317 	ldw	r3,-29300(gp)
  800424:	10c00015 	stw	r3,0(r2)
} /* Set32BitTransfer */
  800428:	0001883a 	nop
  80042c:	e037883a 	mov	sp,fp
  800430:	df000017 	ldw	fp,0(sp)
  800434:	dec00104 	addi	sp,sp,4
  800438:	f800283a 	ret

0080043c <ReceiveU8>:
/*  In    : none                                                           */
/*  Out   : none                                                           */
/*  Return: Data                                                           */
/***************************************************************************/
static FFS_U8 ReceiveU8 (void)
{
  80043c:	deffff04 	addi	sp,sp,-4
  800440:	df000015 	stw	fp,0(sp)
  800444:	d839883a 	mov	fp,sp
   SPI_TXR = (uint32_t) 0xff;
  800448:	00a04034 	movhi	r2,33024
  80044c:	10840004 	addi	r2,r2,4096
  800450:	00c03fc4 	movi	r3,255
  800454:	10c00015 	stw	r3,0(r2)

   /* wait for char */
   while (!(SPI_SR & SPI_SR_DONE)) ;
  800458:	0001883a 	nop
  80045c:	00a04034 	movhi	r2,33024
  800460:	10840304 	addi	r2,r2,4108
  800464:	10800017 	ldw	r2,0(r2)
  800468:	1080004c 	andi	r2,r2,1
  80046c:	103ffb26 	beq	r2,zero,80045c <__alt_data_end+0xff80045c>

   return(SPI_RXR);
  800470:	00a04034 	movhi	r2,33024
  800474:	10840104 	addi	r2,r2,4100
  800478:	10800017 	ldw	r2,0(r2)
} /* ReceiveU8 */
  80047c:	e037883a 	mov	sp,fp
  800480:	df000017 	ldw	fp,0(sp)
  800484:	dec00104 	addi	sp,sp,4
  800488:	f800283a 	ret

0080048c <ReceiveDatablock>:
/*  In    : buff, btr                                                      */
/*  Out   : none                                                           */
/*  Return: In case of an error return FALSE                               */
/***************************************************************************/
static int ReceiveDatablock(FFS_U8 * buff, uint32_t btr)
{
  80048c:	defff904 	addi	sp,sp,-28
  800490:	dfc00615 	stw	ra,24(sp)
  800494:	df000515 	stw	fp,20(sp)
  800498:	df000504 	addi	fp,sp,20
  80049c:	e13ffe15 	stw	r4,-8(fp)
  8004a0:	e17fff15 	stw	r5,-4(fp)
   FFS_U8 token, cnt;
   FFS_U32 *buff32 = (FFS_U32*)buff;
  8004a4:	e0bffe17 	ldw	r2,-8(fp)
  8004a8:	e0bffc15 	stw	r2,-16(fp)

   Timer1 = 10;
  8004ac:	00800284 	movi	r2,10
  8004b0:	d0a3618d 	sth	r2,-29306(gp)
   do /* Wait for data packet in timeout of 100ms */
   {
      token = ReceiveU8();
  8004b4:	080043c0 	call	80043c <ReceiveU8>
  8004b8:	e0bffd05 	stb	r2,-12(fp)
   }
   while ((token == 0xFF) && Timer1);
  8004bc:	e0bffd03 	ldbu	r2,-12(fp)
  8004c0:	10803fd8 	cmpnei	r2,r2,255
  8004c4:	1000031e 	bne	r2,zero,8004d4 <ReceiveDatablock+0x48>
  8004c8:	d0a3618b 	ldhu	r2,-29306(gp)
  8004cc:	10bfffcc 	andi	r2,r2,65535
  8004d0:	103ff81e 	bne	r2,zero,8004b4 <__alt_data_end+0xff8004b4>

   if (token != 0xFE)
  8004d4:	e0bffd03 	ldbu	r2,-12(fp)
  8004d8:	10803fa0 	cmpeqi	r2,r2,254
  8004dc:	1000021e 	bne	r2,zero,8004e8 <ReceiveDatablock+0x5c>
      return(FFS_FALSE);  /* If not valid data token, return with error */
  8004e0:	0005883a 	mov	r2,zero
  8004e4:	00002f06 	br	8005a4 <ReceiveDatablock+0x118>
      
   /* Receive the data block into buffer */
   Set32BitTransfer();
  8004e8:	08004000 	call	800400 <Set32BitTransfer>
   
   /* Divide by 8 */
   cnt = btr >> 3;
  8004ec:	e0bfff17 	ldw	r2,-4(fp)
  8004f0:	1004d0fa 	srli	r2,r2,3
  8004f4:	e0bffb05 	stb	r2,-20(fp)

   do /* Receive the data block into buffer */
   {
      RECEIVE_FAST(buff32);
  8004f8:	00a04034 	movhi	r2,33024
  8004fc:	10840004 	addi	r2,r2,4096
  800500:	00ffffc4 	movi	r3,-1
  800504:	10c00015 	stw	r3,0(r2)
  800508:	0001883a 	nop
  80050c:	00a04034 	movhi	r2,33024
  800510:	10840304 	addi	r2,r2,4108
  800514:	10800017 	ldw	r2,0(r2)
  800518:	1080004c 	andi	r2,r2,1
  80051c:	103ffb26 	beq	r2,zero,80050c <__alt_data_end+0xff80050c>
  800520:	e0fffc17 	ldw	r3,-16(fp)
  800524:	18800104 	addi	r2,r3,4
  800528:	e0bffc15 	stw	r2,-16(fp)
  80052c:	00a04034 	movhi	r2,33024
  800530:	10840104 	addi	r2,r2,4100
  800534:	10800017 	ldw	r2,0(r2)
  800538:	18800015 	stw	r2,0(r3)
      RECEIVE_FAST(buff32);
  80053c:	00a04034 	movhi	r2,33024
  800540:	10840004 	addi	r2,r2,4096
  800544:	00ffffc4 	movi	r3,-1
  800548:	10c00015 	stw	r3,0(r2)
  80054c:	0001883a 	nop
  800550:	00a04034 	movhi	r2,33024
  800554:	10840304 	addi	r2,r2,4108
  800558:	10800017 	ldw	r2,0(r2)
  80055c:	1080004c 	andi	r2,r2,1
  800560:	103ffb26 	beq	r2,zero,800550 <__alt_data_end+0xff800550>
  800564:	e0fffc17 	ldw	r3,-16(fp)
  800568:	18800104 	addi	r2,r3,4
  80056c:	e0bffc15 	stw	r2,-16(fp)
  800570:	00a04034 	movhi	r2,33024
  800574:	10840104 	addi	r2,r2,4100
  800578:	10800017 	ldw	r2,0(r2)
  80057c:	18800015 	stw	r2,0(r3)
   }
   while (--cnt);
  800580:	e0bffb03 	ldbu	r2,-20(fp)
  800584:	10bfffc4 	addi	r2,r2,-1
  800588:	e0bffb05 	stb	r2,-20(fp)
  80058c:	e0bffb03 	ldbu	r2,-20(fp)
  800590:	103fd91e 	bne	r2,zero,8004f8 <__alt_data_end+0xff8004f8>
   
   Set8BitTransfer();   
  800594:	08003c00 	call	8003c0 <Set8BitTransfer>
   ReceiveU8();   /* Discard CRC */
  800598:	080043c0 	call	80043c <ReceiveU8>
   ReceiveU8();   /* Discard CRC */
  80059c:	080043c0 	call	80043c <ReceiveU8>

   return(FFS_TRUE);  /* Return with success */
  8005a0:	00800044 	movi	r2,1
} /* ReceiveDatablock */
  8005a4:	e037883a 	mov	sp,fp
  8005a8:	dfc00117 	ldw	ra,4(sp)
  8005ac:	df000017 	ldw	fp,0(sp)
  8005b0:	dec00204 	addi	sp,sp,8
  8005b4:	f800283a 	ret

008005b8 <TransmitDatablock>:
/*  In    : buff, token (Data/Stop token)                                  */
/*  Out   : none                                                           */
/*  Return: In case of an error return FALSE                               */
/***************************************************************************/
static int TransmitDatablock(const FFS_U8 * buff, FFS_U8 token)
{
  8005b8:	defff904 	addi	sp,sp,-28
  8005bc:	dfc00615 	stw	ra,24(sp)
  8005c0:	df000515 	stw	fp,20(sp)
  8005c4:	df000504 	addi	fp,sp,20
  8005c8:	e13ffe15 	stw	r4,-8(fp)
  8005cc:	2805883a 	mov	r2,r5
  8005d0:	e0bfff05 	stb	r2,-4(fp)
   FFS_U8 resp, cnt = 0;
  8005d4:	e03ffb05 	stb	zero,-20(fp)
   FFS_U32 *buff32 = (FFS_U32*)buff;
  8005d8:	e0bffe17 	ldw	r2,-8(fp)
  8005dc:	e0bffc15 	stw	r2,-16(fp)

   if (WaitReady() != 0xFF)
  8005e0:	08007640 	call	800764 <WaitReady>
  8005e4:	10803fcc 	andi	r2,r2,255
  8005e8:	10803fe0 	cmpeqi	r2,r2,255
  8005ec:	1000021e 	bne	r2,zero,8005f8 <TransmitDatablock+0x40>
      return(FFS_FALSE);
  8005f0:	0005883a 	mov	r2,zero
  8005f4:	00004d06 	br	80072c <TransmitDatablock+0x174>

   TRANSMIT_U8(token);  /* Xmit data token */
  8005f8:	00a04034 	movhi	r2,33024
  8005fc:	10840004 	addi	r2,r2,4096
  800600:	e0ffff03 	ldbu	r3,-4(fp)
  800604:	10c00015 	stw	r3,0(r2)
  800608:	0001883a 	nop
  80060c:	00a04034 	movhi	r2,33024
  800610:	10840304 	addi	r2,r2,4108
  800614:	10800017 	ldw	r2,0(r2)
  800618:	1080004c 	andi	r2,r2,1
  80061c:	103ffb26 	beq	r2,zero,80060c <__alt_data_end+0xff80060c>
   if (token != 0xFD)   /* Is data token */
  800620:	e0bfff03 	ldbu	r2,-4(fp)
  800624:	10803f60 	cmpeqi	r2,r2,253
  800628:	10003f1e 	bne	r2,zero,800728 <TransmitDatablock+0x170>
   {
   
      cnt = 512 / 8;
  80062c:	00801004 	movi	r2,64
  800630:	e0bffb05 	stb	r2,-20(fp)
   
      /* Send the 512 byte data block */
      Set32BitTransfer();
  800634:	08004000 	call	800400 <Set32BitTransfer>
      do /* Send the 512 byte data block */
      {
         TRANSMIT_FAST(*buff32++);
  800638:	00a04034 	movhi	r2,33024
  80063c:	10840004 	addi	r2,r2,4096
  800640:	e0fffc17 	ldw	r3,-16(fp)
  800644:	19000104 	addi	r4,r3,4
  800648:	e13ffc15 	stw	r4,-16(fp)
  80064c:	18c00017 	ldw	r3,0(r3)
  800650:	10c00015 	stw	r3,0(r2)
  800654:	0001883a 	nop
  800658:	00a04034 	movhi	r2,33024
  80065c:	10840304 	addi	r2,r2,4108
  800660:	10800017 	ldw	r2,0(r2)
  800664:	1080004c 	andi	r2,r2,1
  800668:	103ffb26 	beq	r2,zero,800658 <__alt_data_end+0xff800658>
         TRANSMIT_FAST(*buff32++);
  80066c:	00a04034 	movhi	r2,33024
  800670:	10840004 	addi	r2,r2,4096
  800674:	e0fffc17 	ldw	r3,-16(fp)
  800678:	19000104 	addi	r4,r3,4
  80067c:	e13ffc15 	stw	r4,-16(fp)
  800680:	18c00017 	ldw	r3,0(r3)
  800684:	10c00015 	stw	r3,0(r2)
  800688:	0001883a 	nop
  80068c:	00a04034 	movhi	r2,33024
  800690:	10840304 	addi	r2,r2,4108
  800694:	10800017 	ldw	r2,0(r2)
  800698:	1080004c 	andi	r2,r2,1
  80069c:	103ffb26 	beq	r2,zero,80068c <__alt_data_end+0xff80068c>
      }
      while (--cnt);
  8006a0:	e0bffb03 	ldbu	r2,-20(fp)
  8006a4:	10bfffc4 	addi	r2,r2,-1
  8006a8:	e0bffb05 	stb	r2,-20(fp)
  8006ac:	e0bffb03 	ldbu	r2,-20(fp)
  8006b0:	103fe11e 	bne	r2,zero,800638 <__alt_data_end+0xff800638>

      Set8BitTransfer();
  8006b4:	08003c00 	call	8003c0 <Set8BitTransfer>
      TRANSMIT_U8(0xFF);   /* CRC (Dummy) */
  8006b8:	00a04034 	movhi	r2,33024
  8006bc:	10840004 	addi	r2,r2,4096
  8006c0:	00c03fc4 	movi	r3,255
  8006c4:	10c00015 	stw	r3,0(r2)
  8006c8:	0001883a 	nop
  8006cc:	00a04034 	movhi	r2,33024
  8006d0:	10840304 	addi	r2,r2,4108
  8006d4:	10800017 	ldw	r2,0(r2)
  8006d8:	1080004c 	andi	r2,r2,1
  8006dc:	103ffb26 	beq	r2,zero,8006cc <__alt_data_end+0xff8006cc>
      TRANSMIT_U8(0xFF);   /* CRC (Dummy) */
  8006e0:	00a04034 	movhi	r2,33024
  8006e4:	10840004 	addi	r2,r2,4096
  8006e8:	00c03fc4 	movi	r3,255
  8006ec:	10c00015 	stw	r3,0(r2)
  8006f0:	0001883a 	nop
  8006f4:	00a04034 	movhi	r2,33024
  8006f8:	10840304 	addi	r2,r2,4108
  8006fc:	10800017 	ldw	r2,0(r2)
  800700:	1080004c 	andi	r2,r2,1
  800704:	103ffb26 	beq	r2,zero,8006f4 <__alt_data_end+0xff8006f4>

      resp = ReceiveU8();  /* Reveive data response */
  800708:	080043c0 	call	80043c <ReceiveU8>
  80070c:	e0bffd05 	stb	r2,-12(fp)
      if ((resp & 0x1F) != 0x05) /* If not accepted, return with error */
  800710:	e0bffd03 	ldbu	r2,-12(fp)
  800714:	108007cc 	andi	r2,r2,31
  800718:	10800160 	cmpeqi	r2,r2,5
  80071c:	1000021e 	bne	r2,zero,800728 <TransmitDatablock+0x170>
      {
         return(FFS_FALSE);
  800720:	0005883a 	mov	r2,zero
  800724:	00000106 	br	80072c <TransmitDatablock+0x174>
      }
   }

   return(FFS_TRUE);  /* Return with success */
  800728:	00800044 	movi	r2,1
} /* TransmitDatablock */
  80072c:	e037883a 	mov	sp,fp
  800730:	dfc00117 	ldw	ra,4(sp)
  800734:	df000017 	ldw	fp,0(sp)
  800738:	dec00204 	addi	sp,sp,8
  80073c:	f800283a 	ret

00800740 <GetCDWP>:
/*  In    : none                                                           */
/*  Out   : none                                                           */
/*  Return: Data                                                           */
/***************************************************************************/
static FFS_U32 GetCDWP(void)
{
  800740:	defffe04 	addi	sp,sp,-8
  800744:	df000115 	stw	fp,4(sp)
  800748:	df000104 	addi	fp,sp,4
   FFS_U32 value = 0;
  80074c:	e03fff15 	stw	zero,-4(fp)
   
   /*
    * CD and WP is not supported by the Altera DE1 board.
    */

   return(value);
  800750:	e0bfff17 	ldw	r2,-4(fp)
} /* GetCDWP */
  800754:	e037883a 	mov	sp,fp
  800758:	df000017 	ldw	fp,0(sp)
  80075c:	dec00104 	addi	sp,sp,4
  800760:	f800283a 	ret

00800764 <WaitReady>:

/*-----------------------------------------------------------------------*/
/* Wait for card ready                                                   */
/*-----------------------------------------------------------------------*/
static FFS_U8 WaitReady (void)
{
  800764:	defffd04 	addi	sp,sp,-12
  800768:	dfc00215 	stw	ra,8(sp)
  80076c:	df000115 	stw	fp,4(sp)
  800770:	df000104 	addi	fp,sp,4
   FFS_U8 res;
   
#if (FFS_USE_REAL_TIME_OS == 0)
   Timer2 = (WAIT_READY_TIME_MAX_MS / 10);
  800774:	00800c84 	movi	r2,50
  800778:	d0a3620d 	sth	r2,-29304(gp)
   ReceiveU8();
  80077c:	080043c0 	call	80043c <ReceiveU8>
   do
   {
      res = ReceiveU8();
  800780:	080043c0 	call	80043c <ReceiveU8>
  800784:	e0bfff05 	stb	r2,-4(fp)
   }
   while ((res != 0xFF) && Timer2);
  800788:	e0bfff03 	ldbu	r2,-4(fp)
  80078c:	10803fe0 	cmpeqi	r2,r2,255
  800790:	1000031e 	bne	r2,zero,8007a0 <WaitReady+0x3c>
  800794:	d0a3620b 	ldhu	r2,-29304(gp)
  800798:	10bfffcc 	andi	r2,r2,65535
  80079c:	103ff81e 	bne	r2,zero,800780 <__alt_data_end+0xff800780>
      ff_wait_ms(WAIT_READY_TIME_RTOS_MS);
   }
   while ((res != 0xFF) && (cnt < WAIT_READY_TIME_CNT_RTOS));
#endif   

   return(res);
  8007a0:	e0bfff03 	ldbu	r2,-4(fp)
} /* WaitReady */
  8007a4:	e037883a 	mov	sp,fp
  8007a8:	dfc00117 	ldw	ra,4(sp)
  8007ac:	df000017 	ldw	fp,0(sp)
  8007b0:	dec00204 	addi	sp,sp,8
  8007b4:	f800283a 	ret

008007b8 <ReleaseBus>:

/*-----------------------------------------------------------------------*/
/* Deselect the card and release SPI bus                                 */
/*-----------------------------------------------------------------------*/
static void ReleaseBus (void)
{
  8007b8:	defffe04 	addi	sp,sp,-8
  8007bc:	dfc00115 	stw	ra,4(sp)
  8007c0:	df000015 	stw	fp,0(sp)
  8007c4:	d839883a 	mov	fp,sp
    * master device must send a byte after deasserted CS signal.   
    *
    * More information can be found here:
    * http://elm-chan.org/docs/mmc/mmc_e.html
    */
   DESELECT();
  8007c8:	d0a36317 	ldw	r2,-29300(gp)
  8007cc:	10800054 	ori	r2,r2,1
  8007d0:	d0a36315 	stw	r2,-29300(gp)
  8007d4:	00a04034 	movhi	r2,33024
  8007d8:	10840204 	addi	r2,r2,4104
  8007dc:	d0e36317 	ldw	r3,-29300(gp)
  8007e0:	10c00015 	stw	r3,0(r2)
   ReceiveU8();
  8007e4:	080043c0 	call	80043c <ReceiveU8>
} /* ReleaseBus */
  8007e8:	0001883a 	nop
  8007ec:	e037883a 	mov	sp,fp
  8007f0:	dfc00117 	ldw	ra,4(sp)
  8007f4:	df000017 	ldw	fp,0(sp)
  8007f8:	dec00204 	addi	sp,sp,8
  8007fc:	f800283a 	ret

00800800 <SendCMD>:
/*-----------------------------------------------------------------------*/
/* Send a command packet to MMC                                          */
/*-----------------------------------------------------------------------*/
static FFS_U8 SendCMD (FFS_U8 cmd,   /* Command byte */
                       FFS_U32 arg)  /* Argument */
{
  800800:	defffb04 	addi	sp,sp,-20
  800804:	dfc00415 	stw	ra,16(sp)
  800808:	df000315 	stw	fp,12(sp)
  80080c:	df000304 	addi	fp,sp,12
  800810:	2005883a 	mov	r2,r4
  800814:	e17fff15 	stw	r5,-4(fp)
  800818:	e0bffe05 	stb	r2,-8(fp)
   FFS_U8 n, res;

   if (cmd & 0x80)   /* ACMD<n> is the command sequense of CMD55-CMD<n> */
  80081c:	e0bffe03 	ldbu	r2,-8(fp)
  800820:	10803fcc 	andi	r2,r2,255
  800824:	1080201c 	xori	r2,r2,128
  800828:	10bfe004 	addi	r2,r2,-128
  80082c:	10000c0e 	bge	r2,zero,800860 <SendCMD+0x60>
   {
      cmd &= 0x7F;
  800830:	e0bffe03 	ldbu	r2,-8(fp)
  800834:	10801fcc 	andi	r2,r2,127
  800838:	e0bffe05 	stb	r2,-8(fp)
      res = SendCMD(CMD55, 0);
  80083c:	000b883a 	mov	r5,zero
  800840:	01001dc4 	movi	r4,119
  800844:	08008000 	call	800800 <SendCMD>
  800848:	e0bffd45 	stb	r2,-11(fp)
      if (res > 1)
  80084c:	e0bffd43 	ldbu	r2,-11(fp)
  800850:	108000b0 	cmpltui	r2,r2,2
  800854:	1000021e 	bne	r2,zero,800860 <SendCMD+0x60>
         return res;
  800858:	e0bffd43 	ldbu	r2,-11(fp)
  80085c:	00007606 	br	800a38 <SendCMD+0x238>
   }

   /* Select the card and wait for ready */
   DESELECT();
  800860:	d0a36317 	ldw	r2,-29300(gp)
  800864:	10800054 	ori	r2,r2,1
  800868:	d0a36315 	stw	r2,-29300(gp)
  80086c:	00a04034 	movhi	r2,33024
  800870:	10840204 	addi	r2,r2,4104
  800874:	d0e36317 	ldw	r3,-29300(gp)
  800878:	10c00015 	stw	r3,0(r2)
   SELECT();
  80087c:	d0e36317 	ldw	r3,-29300(gp)
  800880:	00bfff84 	movi	r2,-2
  800884:	1884703a 	and	r2,r3,r2
  800888:	d0a36315 	stw	r2,-29300(gp)
  80088c:	00a04034 	movhi	r2,33024
  800890:	10840204 	addi	r2,r2,4104
  800894:	d0e36317 	ldw	r3,-29300(gp)
  800898:	10c00015 	stw	r3,0(r2)

   if (WaitReady() != 0xFF)
  80089c:	08007640 	call	800764 <WaitReady>
  8008a0:	10803fcc 	andi	r2,r2,255
  8008a4:	10803fe0 	cmpeqi	r2,r2,255
  8008a8:	1000021e 	bne	r2,zero,8008b4 <SendCMD+0xb4>
      return 0xFF;
  8008ac:	00bfffc4 	movi	r2,-1
  8008b0:	00006106 	br	800a38 <SendCMD+0x238>

   /* Send command packet */
   TRANSMIT_U8(cmd); /* Start + Command index */
  8008b4:	00a04034 	movhi	r2,33024
  8008b8:	10840004 	addi	r2,r2,4096
  8008bc:	e0fffe03 	ldbu	r3,-8(fp)
  8008c0:	10c00015 	stw	r3,0(r2)
  8008c4:	0001883a 	nop
  8008c8:	00a04034 	movhi	r2,33024
  8008cc:	10840304 	addi	r2,r2,4108
  8008d0:	10800017 	ldw	r2,0(r2)
  8008d4:	1080004c 	andi	r2,r2,1
  8008d8:	103ffb26 	beq	r2,zero,8008c8 <__alt_data_end+0xff8008c8>
   TRANSMIT_U8((FFS_U8) (arg >> 24));  /* Argument[31..24] */
  8008dc:	00a04034 	movhi	r2,33024
  8008e0:	10840004 	addi	r2,r2,4096
  8008e4:	e0ffff17 	ldw	r3,-4(fp)
  8008e8:	1806d63a 	srli	r3,r3,24
  8008ec:	10c00015 	stw	r3,0(r2)
  8008f0:	0001883a 	nop
  8008f4:	00a04034 	movhi	r2,33024
  8008f8:	10840304 	addi	r2,r2,4108
  8008fc:	10800017 	ldw	r2,0(r2)
  800900:	1080004c 	andi	r2,r2,1
  800904:	103ffb26 	beq	r2,zero,8008f4 <__alt_data_end+0xff8008f4>
   TRANSMIT_U8((FFS_U8) (arg >> 16));  /* Argument[23..16] */
  800908:	00a04034 	movhi	r2,33024
  80090c:	10840004 	addi	r2,r2,4096
  800910:	e0ffff17 	ldw	r3,-4(fp)
  800914:	1806d43a 	srli	r3,r3,16
  800918:	18c03fcc 	andi	r3,r3,255
  80091c:	10c00015 	stw	r3,0(r2)
  800920:	0001883a 	nop
  800924:	00a04034 	movhi	r2,33024
  800928:	10840304 	addi	r2,r2,4108
  80092c:	10800017 	ldw	r2,0(r2)
  800930:	1080004c 	andi	r2,r2,1
  800934:	103ffb26 	beq	r2,zero,800924 <__alt_data_end+0xff800924>
   TRANSMIT_U8((FFS_U8) (arg >> 8));   /* Argument[15..8] */
  800938:	00a04034 	movhi	r2,33024
  80093c:	10840004 	addi	r2,r2,4096
  800940:	e0ffff17 	ldw	r3,-4(fp)
  800944:	1806d23a 	srli	r3,r3,8
  800948:	18c03fcc 	andi	r3,r3,255
  80094c:	10c00015 	stw	r3,0(r2)
  800950:	0001883a 	nop
  800954:	00a04034 	movhi	r2,33024
  800958:	10840304 	addi	r2,r2,4108
  80095c:	10800017 	ldw	r2,0(r2)
  800960:	1080004c 	andi	r2,r2,1
  800964:	103ffb26 	beq	r2,zero,800954 <__alt_data_end+0xff800954>
   TRANSMIT_U8((FFS_U8) arg); /* Argument[7..0] */
  800968:	00a04034 	movhi	r2,33024
  80096c:	10840004 	addi	r2,r2,4096
  800970:	e0ffff17 	ldw	r3,-4(fp)
  800974:	18c03fcc 	andi	r3,r3,255
  800978:	10c00015 	stw	r3,0(r2)
  80097c:	0001883a 	nop
  800980:	00a04034 	movhi	r2,33024
  800984:	10840304 	addi	r2,r2,4108
  800988:	10800017 	ldw	r2,0(r2)
  80098c:	1080004c 	andi	r2,r2,1
  800990:	103ffb26 	beq	r2,zero,800980 <__alt_data_end+0xff800980>

   n = 0x01;   /* Dummy CRC + Stop */
  800994:	00800044 	movi	r2,1
  800998:	e0bffd05 	stb	r2,-12(fp)
   if (cmd == CMD0)
  80099c:	e0bffe03 	ldbu	r2,-8(fp)
  8009a0:	10801018 	cmpnei	r2,r2,64
  8009a4:	1000021e 	bne	r2,zero,8009b0 <SendCMD+0x1b0>
      n = 0x95;   /* Valid CRC for CMD0(0) */
  8009a8:	00bfe544 	movi	r2,-107
  8009ac:	e0bffd05 	stb	r2,-12(fp)
   if (cmd == CMD8)
  8009b0:	e0bffe03 	ldbu	r2,-8(fp)
  8009b4:	10801218 	cmpnei	r2,r2,72
  8009b8:	1000021e 	bne	r2,zero,8009c4 <SendCMD+0x1c4>
      n = 0x87;   /* Valid CRC for CMD8(0x1AA) */
  8009bc:	00bfe1c4 	movi	r2,-121
  8009c0:	e0bffd05 	stb	r2,-12(fp)
   TRANSMIT_U8(n);
  8009c4:	00a04034 	movhi	r2,33024
  8009c8:	10840004 	addi	r2,r2,4096
  8009cc:	e0fffd03 	ldbu	r3,-12(fp)
  8009d0:	10c00015 	stw	r3,0(r2)
  8009d4:	0001883a 	nop
  8009d8:	00a04034 	movhi	r2,33024
  8009dc:	10840304 	addi	r2,r2,4108
  8009e0:	10800017 	ldw	r2,0(r2)
  8009e4:	1080004c 	andi	r2,r2,1
  8009e8:	103ffb26 	beq	r2,zero,8009d8 <__alt_data_end+0xff8009d8>

   /* Receive command response */
   if (cmd == CMD12)
  8009ec:	e0bffe03 	ldbu	r2,-8(fp)
  8009f0:	10801318 	cmpnei	r2,r2,76
  8009f4:	1000011e 	bne	r2,zero,8009fc <SendCMD+0x1fc>
      ReceiveU8();   /* Skip a stuff byte when stop reading */
  8009f8:	080043c0 	call	80043c <ReceiveU8>

   n = 10;  /* Wait for a valid response in timeout of 10 attempts */
  8009fc:	00800284 	movi	r2,10
  800a00:	e0bffd05 	stb	r2,-12(fp)
   do
   {
      res = ReceiveU8();
  800a04:	080043c0 	call	80043c <ReceiveU8>
  800a08:	e0bffd45 	stb	r2,-11(fp)
   }
   while ((res & 0x80) && --n);
  800a0c:	e0bffd43 	ldbu	r2,-11(fp)
  800a10:	10803fcc 	andi	r2,r2,255
  800a14:	1080201c 	xori	r2,r2,128
  800a18:	10bfe004 	addi	r2,r2,-128
  800a1c:	1000050e 	bge	r2,zero,800a34 <SendCMD+0x234>
  800a20:	e0bffd03 	ldbu	r2,-12(fp)
  800a24:	10bfffc4 	addi	r2,r2,-1
  800a28:	e0bffd05 	stb	r2,-12(fp)
  800a2c:	e0bffd03 	ldbu	r2,-12(fp)
  800a30:	103ff41e 	bne	r2,zero,800a04 <__alt_data_end+0xff800a04>

   return(res); /* Return with the response value */
  800a34:	e0bffd43 	ldbu	r2,-11(fp)
} /* SendCMD */
  800a38:	e037883a 	mov	sp,fp
  800a3c:	dfc00117 	ldw	ra,4(sp)
  800a40:	df000017 	ldw	fp,0(sp)
  800a44:	dec00204 	addi	sp,sp,8
  800a48:	f800283a 	ret

00800a4c <ffs_DiskIOInit>:
/*  In    : none                                                           */
/*  Out   : none                                                           */
/*  Return: FFS_OK                                                         */
/***************************************************************************/
FFS_RESULT ffs_DiskIOInit (void)
{
  800a4c:	defffe04 	addi	sp,sp,-8
  800a50:	dfc00115 	stw	ra,4(sp)
  800a54:	df000015 	stw	fp,0(sp)
  800a58:	d839883a 	mov	fp,sp
   (void)XMITDummy;

   InitDiskIOHardware();
  800a5c:	08003780 	call	800378 <InitDiskIOHardware>

   return(FFS_OK);
  800a60:	0005883a 	mov	r2,zero
} /* ffs_DiskIOInit */
  800a64:	e037883a 	mov	sp,fp
  800a68:	dfc00117 	ldw	ra,4(sp)
  800a6c:	df000017 	ldw	fp,0(sp)
  800a70:	dec00204 	addi	sp,sp,8
  800a74:	f800283a 	ret

00800a78 <ffs_DiskIOTimerproc>:
/*  In    : none                                                           */
/*  Out   : none                                                           */
/*  Return: none                                                           */
/***************************************************************************/
void ffs_DiskIOTimerproc (void)
{
  800a78:	defffc04 	addi	sp,sp,-16
  800a7c:	dfc00315 	stw	ra,12(sp)
  800a80:	df000215 	stw	fp,8(sp)
  800a84:	df000204 	addi	fp,sp,8
   static FFS_U32 pvm;
   FFS_U32 n;
   DSTATUS s;

   /* 100Hz decrement timer */
   n = Timer1;
  800a88:	d0a3618b 	ldhu	r2,-29306(gp)
  800a8c:	10bfffcc 	andi	r2,r2,65535
  800a90:	e0bfff15 	stw	r2,-4(fp)
   if (n)
  800a94:	e0bfff17 	ldw	r2,-4(fp)
  800a98:	10000526 	beq	r2,zero,800ab0 <ffs_DiskIOTimerproc+0x38>
      Timer1 = (FFS_U16)-- n;
  800a9c:	e0bfff17 	ldw	r2,-4(fp)
  800aa0:	10bfffc4 	addi	r2,r2,-1
  800aa4:	e0bfff15 	stw	r2,-4(fp)
  800aa8:	e0bfff17 	ldw	r2,-4(fp)
  800aac:	d0a3618d 	sth	r2,-29306(gp)
   n = Timer2;
  800ab0:	d0a3620b 	ldhu	r2,-29304(gp)
  800ab4:	10bfffcc 	andi	r2,r2,65535
  800ab8:	e0bfff15 	stw	r2,-4(fp)
   if (n)
  800abc:	e0bfff17 	ldw	r2,-4(fp)
  800ac0:	10000526 	beq	r2,zero,800ad8 <ffs_DiskIOTimerproc+0x60>
      Timer2 = (FFS_U16)-- n;
  800ac4:	e0bfff17 	ldw	r2,-4(fp)
  800ac8:	10bfffc4 	addi	r2,r2,-1
  800acc:	e0bfff15 	stw	r2,-4(fp)
  800ad0:	e0bfff17 	ldw	r2,-4(fp)
  800ad4:	d0a3620d 	sth	r2,-29304(gp)

   n = pvm;
  800ad8:	d0a36417 	ldw	r2,-29296(gp)
  800adc:	e0bfff15 	stw	r2,-4(fp)

   /* Sample socket switch */
   pvm = GetCDWP();
  800ae0:	08007400 	call	800740 <GetCDWP>
  800ae4:	d0a36415 	stw	r2,-29296(gp)

   /* Have contacts stabled? */
   if (n == pvm)
  800ae8:	d0a36417 	ldw	r2,-29296(gp)
  800aec:	e0ffff17 	ldw	r3,-4(fp)
  800af0:	18801e1e 	bne	r3,r2,800b6c <ffs_DiskIOTimerproc+0xf4>
   {
      s = Stat;
  800af4:	d0a00003 	ldbu	r2,-32768(gp)
  800af8:	e0bffe05 	stb	r2,-8(fp)

      /* Check write protect */
      if (pvm & SOCK_WP_ACTIVE)
  800afc:	d0a36417 	ldw	r2,-29296(gp)
  800b00:	1080008c 	andi	r2,r2,2
  800b04:	10000426 	beq	r2,zero,800b18 <ffs_DiskIOTimerproc+0xa0>
         s |= STA_PROTECT;
  800b08:	e0bffe03 	ldbu	r2,-8(fp)
  800b0c:	10800114 	ori	r2,r2,4
  800b10:	e0bffe05 	stb	r2,-8(fp)
  800b14:	00000406 	br	800b28 <ffs_DiskIOTimerproc+0xb0>
      else
         s &= ~STA_PROTECT;
  800b18:	e0fffe03 	ldbu	r3,-8(fp)
  800b1c:	00bffec4 	movi	r2,-5
  800b20:	1884703a 	and	r2,r3,r2
  800b24:	e0bffe05 	stb	r2,-8(fp)

      /* Check socket empty */
      if (pvm & SOCK_CD_EMPTY)
  800b28:	d0a36417 	ldw	r2,-29296(gp)
  800b2c:	1080004c 	andi	r2,r2,1
  800b30:	10000426 	beq	r2,zero,800b44 <ffs_DiskIOTimerproc+0xcc>
         s |= (STA_NODISK | STA_NOINIT);
  800b34:	e0bffe03 	ldbu	r2,-8(fp)
  800b38:	108000d4 	ori	r2,r2,3
  800b3c:	e0bffe05 	stb	r2,-8(fp)
  800b40:	00000406 	br	800b54 <ffs_DiskIOTimerproc+0xdc>
      else
         s &= ~STA_NODISK;
  800b44:	e0fffe03 	ldbu	r3,-8(fp)
  800b48:	00bfff44 	movi	r2,-3
  800b4c:	1884703a 	and	r2,r3,r2
  800b50:	e0bffe05 	stb	r2,-8(fp)

#if (FFS_SUPPORT_HW_WP == 0)
      /* Ignore the write protect */
      s &= ~STA_PROTECT;
  800b54:	e0fffe03 	ldbu	r3,-8(fp)
  800b58:	00bffec4 	movi	r2,-5
  800b5c:	1884703a 	and	r2,r3,r2
  800b60:	e0bffe05 	stb	r2,-8(fp)
#endif

      Stat = s;
  800b64:	e0bffe03 	ldbu	r2,-8(fp)
  800b68:	d0a00005 	stb	r2,-32768(gp)
   }
} /* ffs_DiskIOTimerproc */
  800b6c:	0001883a 	nop
  800b70:	e037883a 	mov	sp,fp
  800b74:	dfc00117 	ldw	ra,4(sp)
  800b78:	df000017 	ldw	fp,0(sp)
  800b7c:	dec00204 	addi	sp,sp,8
  800b80:	f800283a 	ret

00800b84 <ffs_DiskIOInitialize>:
/*  In    : Physical drive nmuber                                          */
/*  Out   : none                                                           */
/*  Return: DSTATUS                                                        */
/***************************************************************************/
DSTATUS ffs_DiskIOInitialize (FFS_U8 drv)
{
  800b84:	defffa04 	addi	sp,sp,-24
  800b88:	dfc00515 	stw	ra,20(sp)
  800b8c:	df000415 	stw	fp,16(sp)
  800b90:	dc000315 	stw	r16,12(sp)
  800b94:	df000404 	addi	fp,sp,16
  800b98:	2005883a 	mov	r2,r4
  800b9c:	e0bffe05 	stb	r2,-8(fp)
   FFS_U8 n, ty, cmd, ocr[4];

   (void)drv;

   if (Stat & STA_NODISK)  /* No card in the socket */
  800ba0:	d0a00003 	ldbu	r2,-32768(gp)
  800ba4:	10803fcc 	andi	r2,r2,255
  800ba8:	1080008c 	andi	r2,r2,2
  800bac:	10000226 	beq	r2,zero,800bb8 <ffs_DiskIOInitialize+0x34>
      return Stat;
  800bb0:	d0a00003 	ldbu	r2,-32768(gp)
  800bb4:	00008406 	br	800dc8 <ffs_DiskIOInitialize+0x244>

   /* low speed during init */
   SetLowSpeed();
  800bb8:	08002b80 	call	8002b8 <SetLowSpeed>

   POWER_ON(); /* Force socket power ON */
   for (n = 10; n; n--)
  800bbc:	00800284 	movi	r2,10
  800bc0:	e0bffc05 	stb	r2,-16(fp)
  800bc4:	00000406 	br	800bd8 <ffs_DiskIOInitialize+0x54>
      ReceiveU8();   /* 80 dummy clocks */
  800bc8:	080043c0 	call	80043c <ReceiveU8>

   /* low speed during init */
   SetLowSpeed();

   POWER_ON(); /* Force socket power ON */
   for (n = 10; n; n--)
  800bcc:	e0bffc03 	ldbu	r2,-16(fp)
  800bd0:	10bfffc4 	addi	r2,r2,-1
  800bd4:	e0bffc05 	stb	r2,-16(fp)
  800bd8:	e0bffc03 	ldbu	r2,-16(fp)
  800bdc:	103ffa1e 	bne	r2,zero,800bc8 <__alt_data_end+0xff800bc8>
      ReceiveU8();   /* 80 dummy clocks */

   ty = 0;
  800be0:	e03ffc45 	stb	zero,-15(fp)
   if (SendCMD(CMD0, 0) == 1)
  800be4:	000b883a 	mov	r5,zero
  800be8:	01001004 	movi	r4,64
  800bec:	08008000 	call	800800 <SendCMD>
  800bf0:	10803fcc 	andi	r2,r2,255
  800bf4:	10800058 	cmpnei	r2,r2,1
  800bf8:	1000681e 	bne	r2,zero,800d9c <ffs_DiskIOInitialize+0x218>
   {  /* Enter Idle state */
      Timer1 = 100;  /* Initialization timeout of 1000 msec */
  800bfc:	00801904 	movi	r2,100
  800c00:	d0a3618d 	sth	r2,-29306(gp)
      if (SendCMD(CMD8, 0x1AA) == 1)
  800c04:	01406a84 	movi	r5,426
  800c08:	01001204 	movi	r4,72
  800c0c:	08008000 	call	800800 <SendCMD>
  800c10:	10803fcc 	andi	r2,r2,255
  800c14:	10800058 	cmpnei	r2,r2,1
  800c18:	10003e1e 	bne	r2,zero,800d14 <ffs_DiskIOInitialize+0x190>
      {  /* SDC ver 2.00 */
         for (n = 0; n < 4; n++)
  800c1c:	e03ffc05 	stb	zero,-16(fp)
  800c20:	00000906 	br	800c48 <ffs_DiskIOInitialize+0xc4>
            ocr[n] = ReceiveU8();
  800c24:	e43ffc03 	ldbu	r16,-16(fp)
  800c28:	080043c0 	call	80043c <ReceiveU8>
  800c2c:	1007883a 	mov	r3,r2
  800c30:	e0bffcc4 	addi	r2,fp,-13
  800c34:	1405883a 	add	r2,r2,r16
  800c38:	10c00005 	stb	r3,0(r2)
   if (SendCMD(CMD0, 0) == 1)
   {  /* Enter Idle state */
      Timer1 = 100;  /* Initialization timeout of 1000 msec */
      if (SendCMD(CMD8, 0x1AA) == 1)
      {  /* SDC ver 2.00 */
         for (n = 0; n < 4; n++)
  800c3c:	e0bffc03 	ldbu	r2,-16(fp)
  800c40:	10800044 	addi	r2,r2,1
  800c44:	e0bffc05 	stb	r2,-16(fp)
  800c48:	e0bffc03 	ldbu	r2,-16(fp)
  800c4c:	10800130 	cmpltui	r2,r2,4
  800c50:	103ff41e 	bne	r2,zero,800c24 <__alt_data_end+0xff800c24>
            ocr[n] = ReceiveU8();
         if (ocr[2] == 0x01 && ocr[3] == 0xAA)
  800c54:	e0bffd43 	ldbu	r2,-11(fp)
  800c58:	10803fcc 	andi	r2,r2,255
  800c5c:	10800058 	cmpnei	r2,r2,1
  800c60:	10004e1e 	bne	r2,zero,800d9c <ffs_DiskIOInitialize+0x218>
  800c64:	e0bffd83 	ldbu	r2,-10(fp)
  800c68:	10803fcc 	andi	r2,r2,255
  800c6c:	10802a98 	cmpnei	r2,r2,170
  800c70:	10004a1e 	bne	r2,zero,800d9c <ffs_DiskIOInitialize+0x218>
         {  /* The card can work at vdd range of 2.7-3.6V */
            while (Timer1 && SendCMD(ACMD41, 1UL << 30)) ;  /* ACMD41 with HCS bit */
  800c74:	0001883a 	nop
  800c78:	d0a3618b 	ldhu	r2,-29306(gp)
  800c7c:	10bfffcc 	andi	r2,r2,65535
  800c80:	10000526 	beq	r2,zero,800c98 <ffs_DiskIOInitialize+0x114>
  800c84:	01500034 	movhi	r5,16384
  800c88:	01003a44 	movi	r4,233
  800c8c:	08008000 	call	800800 <SendCMD>
  800c90:	10803fcc 	andi	r2,r2,255
  800c94:	103ff81e 	bne	r2,zero,800c78 <__alt_data_end+0xff800c78>
            if (Timer1 && SendCMD(CMD58, 0) == 0)
  800c98:	d0a3618b 	ldhu	r2,-29306(gp)
  800c9c:	10bfffcc 	andi	r2,r2,65535
  800ca0:	10003e26 	beq	r2,zero,800d9c <ffs_DiskIOInitialize+0x218>
  800ca4:	000b883a 	mov	r5,zero
  800ca8:	01001e84 	movi	r4,122
  800cac:	08008000 	call	800800 <SendCMD>
  800cb0:	10803fcc 	andi	r2,r2,255
  800cb4:	1000391e 	bne	r2,zero,800d9c <ffs_DiskIOInitialize+0x218>
            {  /* Check CCS bit */
               for (n = 0; n < 4; n++)
  800cb8:	e03ffc05 	stb	zero,-16(fp)
  800cbc:	00000906 	br	800ce4 <ffs_DiskIOInitialize+0x160>
                  ocr[n] = ReceiveU8();
  800cc0:	e43ffc03 	ldbu	r16,-16(fp)
  800cc4:	080043c0 	call	80043c <ReceiveU8>
  800cc8:	1007883a 	mov	r3,r2
  800ccc:	e0bffcc4 	addi	r2,fp,-13
  800cd0:	1405883a 	add	r2,r2,r16
  800cd4:	10c00005 	stb	r3,0(r2)
         if (ocr[2] == 0x01 && ocr[3] == 0xAA)
         {  /* The card can work at vdd range of 2.7-3.6V */
            while (Timer1 && SendCMD(ACMD41, 1UL << 30)) ;  /* ACMD41 with HCS bit */
            if (Timer1 && SendCMD(CMD58, 0) == 0)
            {  /* Check CCS bit */
               for (n = 0; n < 4; n++)
  800cd8:	e0bffc03 	ldbu	r2,-16(fp)
  800cdc:	10800044 	addi	r2,r2,1
  800ce0:	e0bffc05 	stb	r2,-16(fp)
  800ce4:	e0bffc03 	ldbu	r2,-16(fp)
  800ce8:	10800130 	cmpltui	r2,r2,4
  800cec:	103ff41e 	bne	r2,zero,800cc0 <__alt_data_end+0xff800cc0>
                  ocr[n] = ReceiveU8();
               ty = (ocr[0] & 0x40) ? CT_SD2 | CT_BLOCK : CT_SD2; /* Card id SDv2 */
  800cf0:	e0bffcc3 	ldbu	r2,-13(fp)
  800cf4:	10803fcc 	andi	r2,r2,255
  800cf8:	1080100c 	andi	r2,r2,64
  800cfc:	10000226 	beq	r2,zero,800d08 <ffs_DiskIOInitialize+0x184>
  800d00:	00800304 	movi	r2,12
  800d04:	00000106 	br	800d0c <ffs_DiskIOInitialize+0x188>
  800d08:	00800104 	movi	r2,4
  800d0c:	e0bffc45 	stb	r2,-15(fp)
  800d10:	00002206 	br	800d9c <ffs_DiskIOInitialize+0x218>
            }
         }
      }
      else
      {  /* SDC ver 1.XX or MMC */
         if (SendCMD(ACMD41, 0) <= 1)
  800d14:	000b883a 	mov	r5,zero
  800d18:	01003a44 	movi	r4,233
  800d1c:	08008000 	call	800800 <SendCMD>
  800d20:	10803fcc 	andi	r2,r2,255
  800d24:	108000a8 	cmpgeui	r2,r2,2
  800d28:	1000051e 	bne	r2,zero,800d40 <ffs_DiskIOInitialize+0x1bc>
         {
            ty  = CT_SD1;
  800d2c:	00800084 	movi	r2,2
  800d30:	e0bffc45 	stb	r2,-15(fp)
            cmd = ACMD41;  /* SDC ver 1.XX */
  800d34:	00bffa44 	movi	r2,-23
  800d38:	e0bffc85 	stb	r2,-14(fp)
  800d3c:	00000406 	br	800d50 <ffs_DiskIOInitialize+0x1cc>
         }
         else
         {
            ty  = CT_MMC;
  800d40:	00800044 	movi	r2,1
  800d44:	e0bffc45 	stb	r2,-15(fp)
            cmd = CMD1; /* MMC */
  800d48:	00801044 	movi	r2,65
  800d4c:	e0bffc85 	stb	r2,-14(fp)
         }
         while (Timer1 && SendCMD(cmd, 0)) ; /* Wait for leaving idle state */
  800d50:	0001883a 	nop
  800d54:	d0a3618b 	ldhu	r2,-29306(gp)
  800d58:	10bfffcc 	andi	r2,r2,65535
  800d5c:	10000626 	beq	r2,zero,800d78 <ffs_DiskIOInitialize+0x1f4>
  800d60:	e0bffc83 	ldbu	r2,-14(fp)
  800d64:	000b883a 	mov	r5,zero
  800d68:	1009883a 	mov	r4,r2
  800d6c:	08008000 	call	800800 <SendCMD>
  800d70:	10803fcc 	andi	r2,r2,255
  800d74:	103ff71e 	bne	r2,zero,800d54 <__alt_data_end+0xff800d54>
         if (!Timer1 || SendCMD(CMD16, 512) != 0)  /* Select R/W block length */
  800d78:	d0a3618b 	ldhu	r2,-29306(gp)
  800d7c:	10bfffcc 	andi	r2,r2,65535
  800d80:	10000526 	beq	r2,zero,800d98 <ffs_DiskIOInitialize+0x214>
  800d84:	01408004 	movi	r5,512
  800d88:	01001404 	movi	r4,80
  800d8c:	08008000 	call	800800 <SendCMD>
  800d90:	10803fcc 	andi	r2,r2,255
  800d94:	10000126 	beq	r2,zero,800d9c <ffs_DiskIOInitialize+0x218>
            ty = 0;
  800d98:	e03ffc45 	stb	zero,-15(fp)
      }
   }
   CardType = ty;
  800d9c:	e0bffc43 	ldbu	r2,-15(fp)
  800da0:	d0a36105 	stb	r2,-29308(gp)
   ReleaseBus();
  800da4:	08007b80 	call	8007b8 <ReleaseBus>

   if (ty)
  800da8:	e0bffc43 	ldbu	r2,-15(fp)
  800dac:	10000526 	beq	r2,zero,800dc4 <ffs_DiskIOInitialize+0x240>
   {  /* Initialization succeded */
      Stat &= ~STA_NOINIT; /* Clear STA_NOINIT */
  800db0:	d0e00003 	ldbu	r3,-32768(gp)
  800db4:	00bfff84 	movi	r2,-2
  800db8:	1884703a 	and	r2,r3,r2
  800dbc:	d0a00005 	stb	r2,-32768(gp)

      SetHighSpeed();
  800dc0:	08003080 	call	800308 <SetHighSpeed>
   else
   {  /* Initialization failed */
      POWER_OFF();
   }

   return(Stat);
  800dc4:	d0a00003 	ldbu	r2,-32768(gp)
} /* ffs_DiskIOInitialize */
  800dc8:	e6ffff04 	addi	sp,fp,-4
  800dcc:	dfc00217 	ldw	ra,8(sp)
  800dd0:	df000117 	ldw	fp,4(sp)
  800dd4:	dc000017 	ldw	r16,0(sp)
  800dd8:	dec00304 	addi	sp,sp,12
  800ddc:	f800283a 	ret

00800de0 <ffs_DiskIOStatus>:
/*  In    : Physical drive nmuber                                          */
/*  Out   : none                                                           */
/*  Return: DSTATUS                                                        */
/***************************************************************************/
DSTATUS ffs_DiskIOStatus (FFS_U8 drv)
{
  800de0:	defffe04 	addi	sp,sp,-8
  800de4:	df000115 	stw	fp,4(sp)
  800de8:	df000104 	addi	fp,sp,4
  800dec:	2005883a 	mov	r2,r4
  800df0:	e0bfff05 	stb	r2,-4(fp)
   (void)drv;

   return(Stat);
  800df4:	d0a00003 	ldbu	r2,-32768(gp)
} /* ffs_DiskIOStatus */
  800df8:	e037883a 	mov	sp,fp
  800dfc:	df000017 	ldw	fp,0(sp)
  800e00:	dec00104 	addi	sp,sp,4
  800e04:	f800283a 	ret

00800e08 <ffs_DiskIORead>:
/*                                                                         */
/*  Out   : buff                                                           */
/*  Return: DRESULT                                                        */
/***************************************************************************/
DRESULT ffs_DiskIORead (FFS_U8 drv, FFS_U8 * buff, FFS_U32 sector, FFS_U8 count)
{
  800e08:	defffa04 	addi	sp,sp,-24
  800e0c:	dfc00515 	stw	ra,20(sp)
  800e10:	df000415 	stw	fp,16(sp)
  800e14:	df000404 	addi	fp,sp,16
  800e18:	2007883a 	mov	r3,r4
  800e1c:	e17ffd15 	stw	r5,-12(fp)
  800e20:	e1bffe15 	stw	r6,-8(fp)
  800e24:	3805883a 	mov	r2,r7
  800e28:	e0fffc05 	stb	r3,-16(fp)
  800e2c:	e0bfff05 	stb	r2,-4(fp)
   (void)drv;

   if (!count)
  800e30:	e0bfff03 	ldbu	r2,-4(fp)
  800e34:	1000021e 	bne	r2,zero,800e40 <ffs_DiskIORead+0x38>
      return RES_PARERR;
  800e38:	00800104 	movi	r2,4
  800e3c:	00003506 	br	800f14 <ffs_DiskIORead+0x10c>
   if (Stat & STA_NOINIT)
  800e40:	d0a00003 	ldbu	r2,-32768(gp)
  800e44:	10803fcc 	andi	r2,r2,255
  800e48:	1080004c 	andi	r2,r2,1
  800e4c:	10000226 	beq	r2,zero,800e58 <ffs_DiskIORead+0x50>
      return RES_NOTRDY;
  800e50:	008000c4 	movi	r2,3
  800e54:	00002f06 	br	800f14 <ffs_DiskIORead+0x10c>

   if (!(CardType & CT_BLOCK))
  800e58:	d0a36103 	ldbu	r2,-29308(gp)
  800e5c:	10803fcc 	andi	r2,r2,255
  800e60:	1080020c 	andi	r2,r2,8
  800e64:	1000031e 	bne	r2,zero,800e74 <ffs_DiskIORead+0x6c>
      sector *= 512; /* Convert LBA to byte address if needed */
  800e68:	e0bffe17 	ldw	r2,-8(fp)
  800e6c:	1004927a 	slli	r2,r2,9
  800e70:	e0bffe15 	stw	r2,-8(fp)

   if (count == 1)
  800e74:	e0bfff03 	ldbu	r2,-4(fp)
  800e78:	10800058 	cmpnei	r2,r2,1
  800e7c:	10000b1e 	bne	r2,zero,800eac <ffs_DiskIORead+0xa4>
   {  /* Single block read */
      if ((SendCMD(CMD17, sector) == 0)   /* READ_SINGLE_BLOCK */
  800e80:	e17ffe17 	ldw	r5,-8(fp)
  800e84:	01001444 	movi	r4,81
  800e88:	08008000 	call	800800 <SendCMD>
  800e8c:	10803fcc 	andi	r2,r2,255
  800e90:	10001c1e 	bne	r2,zero,800f04 <ffs_DiskIORead+0xfc>
          && ReceiveDatablock(buff, 512))
  800e94:	01408004 	movi	r5,512
  800e98:	e13ffd17 	ldw	r4,-12(fp)
  800e9c:	080048c0 	call	80048c <ReceiveDatablock>
  800ea0:	10001826 	beq	r2,zero,800f04 <ffs_DiskIORead+0xfc>
         count = 0;
  800ea4:	e03fff05 	stb	zero,-4(fp)
  800ea8:	00001606 	br	800f04 <ffs_DiskIORead+0xfc>
   }
   else
   {  /* Multiple block read */
      if (SendCMD(CMD18, sector) == 0)
  800eac:	e17ffe17 	ldw	r5,-8(fp)
  800eb0:	01001484 	movi	r4,82
  800eb4:	08008000 	call	800800 <SendCMD>
  800eb8:	10803fcc 	andi	r2,r2,255
  800ebc:	1000111e 	bne	r2,zero,800f04 <ffs_DiskIORead+0xfc>
      {  /* READ_MULTIPLE_BLOCK */
         do
         {
            if (!ReceiveDatablock(buff, 512))
  800ec0:	01408004 	movi	r5,512
  800ec4:	e13ffd17 	ldw	r4,-12(fp)
  800ec8:	080048c0 	call	80048c <ReceiveDatablock>
  800ecc:	10000926 	beq	r2,zero,800ef4 <ffs_DiskIORead+0xec>
               break;
            buff += 512;
  800ed0:	e0bffd17 	ldw	r2,-12(fp)
  800ed4:	10808004 	addi	r2,r2,512
  800ed8:	e0bffd15 	stw	r2,-12(fp)
         }
         while (--count);
  800edc:	e0bfff03 	ldbu	r2,-4(fp)
  800ee0:	10bfffc4 	addi	r2,r2,-1
  800ee4:	e0bfff05 	stb	r2,-4(fp)
  800ee8:	e0bfff03 	ldbu	r2,-4(fp)
  800eec:	103ff41e 	bne	r2,zero,800ec0 <__alt_data_end+0xff800ec0>
  800ef0:	00000106 	br	800ef8 <ffs_DiskIORead+0xf0>
      if (SendCMD(CMD18, sector) == 0)
      {  /* READ_MULTIPLE_BLOCK */
         do
         {
            if (!ReceiveDatablock(buff, 512))
               break;
  800ef4:	0001883a 	nop
            buff += 512;
         }
         while (--count);
         SendCMD(CMD12, 0);   /* STOP_TRANSMISSION */
  800ef8:	000b883a 	mov	r5,zero
  800efc:	01001304 	movi	r4,76
  800f00:	08008000 	call	800800 <SendCMD>
      }
   }
   ReleaseBus();
  800f04:	08007b80 	call	8007b8 <ReleaseBus>

   return(count ? RES_ERROR : RES_OK);
  800f08:	e0bfff03 	ldbu	r2,-4(fp)
  800f0c:	1004c03a 	cmpne	r2,r2,zero
  800f10:	10803fcc 	andi	r2,r2,255
} /* ffs_DiskIORead */
  800f14:	e037883a 	mov	sp,fp
  800f18:	dfc00117 	ldw	ra,4(sp)
  800f1c:	df000017 	ldw	fp,0(sp)
  800f20:	dec00204 	addi	sp,sp,8
  800f24:	f800283a 	ret

00800f28 <ffs_DiskIOWrite>:
/*                                                                         */
/*  Out   : buff                                                           */
/*  Return: DRESULT                                                        */
/***************************************************************************/
DRESULT ffs_DiskIOWrite (FFS_U8 drv, const FFS_U8 * buff, FFS_U32 sector, FFS_U8 count)
{
  800f28:	defffa04 	addi	sp,sp,-24
  800f2c:	dfc00515 	stw	ra,20(sp)
  800f30:	df000415 	stw	fp,16(sp)
  800f34:	df000404 	addi	fp,sp,16
  800f38:	2007883a 	mov	r3,r4
  800f3c:	e17ffd15 	stw	r5,-12(fp)
  800f40:	e1bffe15 	stw	r6,-8(fp)
  800f44:	3805883a 	mov	r2,r7
  800f48:	e0fffc05 	stb	r3,-16(fp)
  800f4c:	e0bfff05 	stb	r2,-4(fp)
   (void)drv;

   if (!count)
  800f50:	e0bfff03 	ldbu	r2,-4(fp)
  800f54:	1000021e 	bne	r2,zero,800f60 <ffs_DiskIOWrite+0x38>
      return RES_PARERR;
  800f58:	00800104 	movi	r2,4
  800f5c:	00004906 	br	801084 <ffs_DiskIOWrite+0x15c>
   if (Stat & STA_NOINIT)
  800f60:	d0a00003 	ldbu	r2,-32768(gp)
  800f64:	10803fcc 	andi	r2,r2,255
  800f68:	1080004c 	andi	r2,r2,1
  800f6c:	10000226 	beq	r2,zero,800f78 <ffs_DiskIOWrite+0x50>
      return RES_NOTRDY;
  800f70:	008000c4 	movi	r2,3
  800f74:	00004306 	br	801084 <ffs_DiskIOWrite+0x15c>
   if (Stat & STA_PROTECT)
  800f78:	d0a00003 	ldbu	r2,-32768(gp)
  800f7c:	10803fcc 	andi	r2,r2,255
  800f80:	1080010c 	andi	r2,r2,4
  800f84:	10000226 	beq	r2,zero,800f90 <ffs_DiskIOWrite+0x68>
      return RES_WRPRT;
  800f88:	00800084 	movi	r2,2
  800f8c:	00003d06 	br	801084 <ffs_DiskIOWrite+0x15c>

   if (!(CardType & CT_BLOCK))
  800f90:	d0a36103 	ldbu	r2,-29308(gp)
  800f94:	10803fcc 	andi	r2,r2,255
  800f98:	1080020c 	andi	r2,r2,8
  800f9c:	1000031e 	bne	r2,zero,800fac <ffs_DiskIOWrite+0x84>
      sector *= 512; /* Convert LBA to byte address if needed */
  800fa0:	e0bffe17 	ldw	r2,-8(fp)
  800fa4:	1004927a 	slli	r2,r2,9
  800fa8:	e0bffe15 	stw	r2,-8(fp)

   if (count == 1)
  800fac:	e0bfff03 	ldbu	r2,-4(fp)
  800fb0:	10800058 	cmpnei	r2,r2,1
  800fb4:	10000b1e 	bne	r2,zero,800fe4 <ffs_DiskIOWrite+0xbc>
   {  /* Single block write */
      if ((SendCMD(CMD24, sector) == 0)   /* WRITE_BLOCK */
  800fb8:	e17ffe17 	ldw	r5,-8(fp)
  800fbc:	01001604 	movi	r4,88
  800fc0:	08008000 	call	800800 <SendCMD>
  800fc4:	10803fcc 	andi	r2,r2,255
  800fc8:	10002a1e 	bne	r2,zero,801074 <ffs_DiskIOWrite+0x14c>
          && TransmitDatablock(buff, 0xFE))
  800fcc:	01403f84 	movi	r5,254
  800fd0:	e13ffd17 	ldw	r4,-12(fp)
  800fd4:	08005b80 	call	8005b8 <TransmitDatablock>
  800fd8:	10002626 	beq	r2,zero,801074 <ffs_DiskIOWrite+0x14c>
         count = 0;
  800fdc:	e03fff05 	stb	zero,-4(fp)
  800fe0:	00002406 	br	801074 <ffs_DiskIOWrite+0x14c>
   }
   else
   {  /* Multiple block write */
      if (CardType & CT_SDC)
  800fe4:	d0a36103 	ldbu	r2,-29308(gp)
  800fe8:	10803fcc 	andi	r2,r2,255
  800fec:	1080018c 	andi	r2,r2,6
  800ff0:	10000726 	beq	r2,zero,801010 <ffs_DiskIOWrite+0xe8>
      {
         SendCMD(CMD55, 0);
  800ff4:	000b883a 	mov	r5,zero
  800ff8:	01001dc4 	movi	r4,119
  800ffc:	08008000 	call	800800 <SendCMD>
         SendCMD(CMD23, count);  /* ACMD23 */
  801000:	e0bfff03 	ldbu	r2,-4(fp)
  801004:	100b883a 	mov	r5,r2
  801008:	010015c4 	movi	r4,87
  80100c:	08008000 	call	800800 <SendCMD>
      }
      if (SendCMD(CMD25, sector) == 0)
  801010:	e17ffe17 	ldw	r5,-8(fp)
  801014:	01001644 	movi	r4,89
  801018:	08008000 	call	800800 <SendCMD>
  80101c:	10803fcc 	andi	r2,r2,255
  801020:	1000141e 	bne	r2,zero,801074 <ffs_DiskIOWrite+0x14c>
      {  /* WRITE_MULTIPLE_BLOCK */
         do
         {
            if (!TransmitDatablock(buff, 0xFC))
  801024:	01403f04 	movi	r5,252
  801028:	e13ffd17 	ldw	r4,-12(fp)
  80102c:	08005b80 	call	8005b8 <TransmitDatablock>
  801030:	10000926 	beq	r2,zero,801058 <ffs_DiskIOWrite+0x130>
               break;
            buff += 512;
  801034:	e0bffd17 	ldw	r2,-12(fp)
  801038:	10808004 	addi	r2,r2,512
  80103c:	e0bffd15 	stw	r2,-12(fp)
         }
         while (--count);
  801040:	e0bfff03 	ldbu	r2,-4(fp)
  801044:	10bfffc4 	addi	r2,r2,-1
  801048:	e0bfff05 	stb	r2,-4(fp)
  80104c:	e0bfff03 	ldbu	r2,-4(fp)
  801050:	103ff41e 	bne	r2,zero,801024 <__alt_data_end+0xff801024>
  801054:	00000106 	br	80105c <ffs_DiskIOWrite+0x134>
      if (SendCMD(CMD25, sector) == 0)
      {  /* WRITE_MULTIPLE_BLOCK */
         do
         {
            if (!TransmitDatablock(buff, 0xFC))
               break;
  801058:	0001883a 	nop
            buff += 512;
         }
         while (--count);
         if (!TransmitDatablock(0, 0xFD)) /* STOP_TRAN token */
  80105c:	01403f44 	movi	r5,253
  801060:	0009883a 	mov	r4,zero
  801064:	08005b80 	call	8005b8 <TransmitDatablock>
  801068:	1000021e 	bne	r2,zero,801074 <ffs_DiskIOWrite+0x14c>
            count = 1;
  80106c:	00800044 	movi	r2,1
  801070:	e0bfff05 	stb	r2,-4(fp)
      }
   }
   ReleaseBus();
  801074:	08007b80 	call	8007b8 <ReleaseBus>

   return(count ? RES_ERROR : RES_OK);
  801078:	e0bfff03 	ldbu	r2,-4(fp)
  80107c:	1004c03a 	cmpne	r2,r2,zero
  801080:	10803fcc 	andi	r2,r2,255
} /* ffs_DiskIOWrite */
  801084:	e037883a 	mov	sp,fp
  801088:	dfc00117 	ldw	ra,4(sp)
  80108c:	df000017 	ldw	fp,0(sp)
  801090:	dec00204 	addi	sp,sp,8
  801094:	f800283a 	ret

00801098 <ffs_DiskIOIoctl>:
/*                                                                         */
/*  Out   : buff                                                           */
/*  Return: DRESULT                                                        */
/***************************************************************************/
DRESULT ffs_DiskIOIoctl (FFS_U8 drv, FFS_U8 ctrl, void *buff)
{
  801098:	defff204 	addi	sp,sp,-56
  80109c:	dfc00d15 	stw	ra,52(sp)
  8010a0:	df000c15 	stw	fp,48(sp)
  8010a4:	dc000b15 	stw	r16,44(sp)
  8010a8:	df000c04 	addi	fp,sp,48
  8010ac:	2007883a 	mov	r3,r4
  8010b0:	2805883a 	mov	r2,r5
  8010b4:	e1bffe15 	stw	r6,-8(fp)
  8010b8:	e0fffc05 	stb	r3,-16(fp)
  8010bc:	e0bffd05 	stb	r2,-12(fp)
   DRESULT res;
   FFS_U8 n, csd[16], *ptr = buff;
  8010c0:	e0bffe17 	ldw	r2,-8(fp)
  8010c4:	e0bff615 	stw	r2,-40(fp)
   FFS_U16 csize;

   (void)drv;

   if (Stat & STA_NOINIT)
  8010c8:	d0a00003 	ldbu	r2,-32768(gp)
  8010cc:	10803fcc 	andi	r2,r2,255
  8010d0:	1080004c 	andi	r2,r2,1
  8010d4:	10000226 	beq	r2,zero,8010e0 <ffs_DiskIOIoctl+0x48>
      return RES_NOTRDY;
  8010d8:	008000c4 	movi	r2,3
  8010dc:	00011906 	br	801544 <ffs_DiskIOIoctl+0x4ac>

   res = RES_ERROR;
  8010e0:	00800044 	movi	r2,1
  8010e4:	e0bff415 	stw	r2,-48(fp)
   switch (ctrl)
  8010e8:	e0bffd03 	ldbu	r2,-12(fp)
  8010ec:	10c003e8 	cmpgeui	r3,r2,15
  8010f0:	1801021e 	bne	r3,zero,8014fc <ffs_DiskIOIoctl+0x464>
  8010f4:	100690ba 	slli	r3,r2,2
  8010f8:	00802034 	movhi	r2,128
  8010fc:	10844304 	addi	r2,r2,4364
  801100:	1885883a 	add	r2,r3,r2
  801104:	10800017 	ldw	r2,0(r2)
  801108:	1000683a 	jmp	r2
  80110c:	00801148 	cmpgei	r2,zero,69
  801110:	00801180 	call	80118 <__reset-0x77fee8>
  801114:	00801290 	cmplti	r2,zero,74
  801118:	008012a4 	muli	r2,zero,74
  80111c:	008014fc 	xorhi	r2,zero,83
  801120:	008014fc 	xorhi	r2,zero,83
  801124:	008014fc 	xorhi	r2,zero,83
  801128:	008014fc 	xorhi	r2,zero,83
  80112c:	008014fc 	xorhi	r2,zero,83
  801130:	008014fc 	xorhi	r2,zero,83
  801134:	00801410 	cmplti	r2,zero,80
  801138:	00801424 	muli	r2,zero,80
  80113c:	00801450 	cmplti	r2,zero,81
  801140:	0080147c 	xorhi	r2,zero,81
  801144:	008014cc 	andi	r2,zero,83
   {
      case CTRL_SYNC:  /* Make sure that pending write process has been finished */
         SELECT();
  801148:	d0e36317 	ldw	r3,-29300(gp)
  80114c:	00bfff84 	movi	r2,-2
  801150:	1884703a 	and	r2,r3,r2
  801154:	d0a36315 	stw	r2,-29300(gp)
  801158:	00a04034 	movhi	r2,33024
  80115c:	10840204 	addi	r2,r2,4104
  801160:	d0e36317 	ldw	r3,-29300(gp)
  801164:	10c00015 	stw	r3,0(r2)
         if (WaitReady() == 0xFF)
  801168:	08007640 	call	800764 <WaitReady>
  80116c:	10803fcc 	andi	r2,r2,255
  801170:	10803fd8 	cmpnei	r2,r2,255
  801174:	1000e41e 	bne	r2,zero,801508 <ffs_DiskIOIoctl+0x470>
            res = RES_OK;
  801178:	e03ff415 	stw	zero,-48(fp)
         break;
  80117c:	0000e206 	br	801508 <ffs_DiskIOIoctl+0x470>

      case GET_SECTOR_COUNT: /* Get number of sectors on the disk (DWORD) */
         if ((SendCMD(CMD9, 0) == 0) && ReceiveDatablock(csd, 16))
  801180:	000b883a 	mov	r5,zero
  801184:	01001244 	movi	r4,73
  801188:	08008000 	call	800800 <SendCMD>
  80118c:	10803fcc 	andi	r2,r2,255
  801190:	1000df1e 	bne	r2,zero,801510 <ffs_DiskIOIoctl+0x478>
  801194:	e0bff784 	addi	r2,fp,-34
  801198:	01400404 	movi	r5,16
  80119c:	1009883a 	mov	r4,r2
  8011a0:	080048c0 	call	80048c <ReceiveDatablock>
  8011a4:	1000da26 	beq	r2,zero,801510 <ffs_DiskIOIoctl+0x478>
         {
            if ((csd[0] >> 6) == 1)
  8011a8:	e0bff783 	ldbu	r2,-34(fp)
  8011ac:	10803fcc 	andi	r2,r2,255
  8011b0:	1004d1ba 	srli	r2,r2,6
  8011b4:	10803fcc 	andi	r2,r2,255
  8011b8:	10800058 	cmpnei	r2,r2,1
  8011bc:	10000d1e 	bne	r2,zero,8011f4 <ffs_DiskIOIoctl+0x15c>
            {  /* SDC ver 2.00 */
               //@@MF csize = csd[9] + ((FFS_U16)csd[8] << 8) + 1;
               csize = (FFS_U16) ((FFS_U16) csd[9] | ((FFS_U16) csd[8] << 8)) + 1;
  8011c0:	e0bff9c3 	ldbu	r2,-25(fp)
  8011c4:	10803fcc 	andi	r2,r2,255
  8011c8:	e0fff983 	ldbu	r3,-26(fp)
  8011cc:	18c03fcc 	andi	r3,r3,255
  8011d0:	1806923a 	slli	r3,r3,8
  8011d4:	10c4b03a 	or	r2,r2,r3
  8011d8:	10800044 	addi	r2,r2,1
  8011dc:	e0bff70d 	sth	r2,-36(fp)
               *(FFS_U32 *) buff = (FFS_U32) csize << 10;
  8011e0:	e0bff70b 	ldhu	r2,-36(fp)
  8011e4:	100692ba 	slli	r3,r2,10
  8011e8:	e0bffe17 	ldw	r2,-8(fp)
  8011ec:	10c00015 	stw	r3,0(r2)
  8011f0:	00002506 	br	801288 <ffs_DiskIOIoctl+0x1f0>
            }
            else
            {  /* MMC or SDC ver 1.XX */
               n = (csd[5] & 15) + ((csd[10] & 128) >> 7) + ((csd[9] & 3) << 1) + 2;
  8011f4:	e0bff8c3 	ldbu	r2,-29(fp)
  8011f8:	108003cc 	andi	r2,r2,15
  8011fc:	1007883a 	mov	r3,r2
  801200:	e0bffa03 	ldbu	r2,-24(fp)
  801204:	10803fcc 	andi	r2,r2,255
  801208:	1004d1fa 	srli	r2,r2,7
  80120c:	1885883a 	add	r2,r3,r2
  801210:	1007883a 	mov	r3,r2
  801214:	e0bff9c3 	ldbu	r2,-25(fp)
  801218:	108000cc 	andi	r2,r2,3
  80121c:	1085883a 	add	r2,r2,r2
  801220:	1885883a 	add	r2,r3,r2
  801224:	10800084 	addi	r2,r2,2
  801228:	e0bff505 	stb	r2,-44(fp)
               csize = (csd[8] >> 6) + ((FFS_U16) csd[7] << 2) + ((FFS_U16) (csd[6] & 3) << 10) + 1;
  80122c:	e0bff983 	ldbu	r2,-26(fp)
  801230:	10803fcc 	andi	r2,r2,255
  801234:	1004d1ba 	srli	r2,r2,6
  801238:	10c03fcc 	andi	r3,r2,255
  80123c:	e0bff943 	ldbu	r2,-27(fp)
  801240:	10803fcc 	andi	r2,r2,255
  801244:	1085883a 	add	r2,r2,r2
  801248:	1085883a 	add	r2,r2,r2
  80124c:	1885883a 	add	r2,r3,r2
  801250:	1007883a 	mov	r3,r2
  801254:	e0bff903 	ldbu	r2,-28(fp)
  801258:	10803fcc 	andi	r2,r2,255
  80125c:	108000cc 	andi	r2,r2,3
  801260:	100492ba 	slli	r2,r2,10
  801264:	1885883a 	add	r2,r3,r2
  801268:	10800044 	addi	r2,r2,1
  80126c:	e0bff70d 	sth	r2,-36(fp)
               *(FFS_U32 *) buff = (FFS_U32) csize << (n - 9);
  801270:	e0fff70b 	ldhu	r3,-36(fp)
  801274:	e0bff503 	ldbu	r2,-44(fp)
  801278:	10bffdc4 	addi	r2,r2,-9
  80127c:	1886983a 	sll	r3,r3,r2
  801280:	e0bffe17 	ldw	r2,-8(fp)
  801284:	10c00015 	stw	r3,0(r2)
            }
            res = RES_OK;
  801288:	e03ff415 	stw	zero,-48(fp)
         }
         break;
  80128c:	0000a006 	br	801510 <ffs_DiskIOIoctl+0x478>

      case GET_SECTOR_SIZE:  /* Get sectors on the disk (WORD) */
         *(FFS_U16 *) buff = 512;
  801290:	e0bffe17 	ldw	r2,-8(fp)
  801294:	00c08004 	movi	r3,512
  801298:	10c0000d 	sth	r3,0(r2)
         res = RES_OK;
  80129c:	e03ff415 	stw	zero,-48(fp)
         break;
  8012a0:	0000a606 	br	80153c <ffs_DiskIOIoctl+0x4a4>

      case GET_BLOCK_SIZE:   /* Get erase block size in unit of sectors (DWORD) */
         if (CardType & CT_SD2)
  8012a4:	d0a36103 	ldbu	r2,-29308(gp)
  8012a8:	10803fcc 	andi	r2,r2,255
  8012ac:	1080010c 	andi	r2,r2,4
  8012b0:	10001e26 	beq	r2,zero,80132c <ffs_DiskIOIoctl+0x294>
         {  /* SDC ver 2.00 */
            if (SendCMD(ACMD13, 0) == 0)
  8012b4:	000b883a 	mov	r5,zero
  8012b8:	01003344 	movi	r4,205
  8012bc:	08008000 	call	800800 <SendCMD>
  8012c0:	10803fcc 	andi	r2,r2,255
  8012c4:	1000941e 	bne	r2,zero,801518 <ffs_DiskIOIoctl+0x480>
            {  /* Read SD status */
               ReceiveU8();
  8012c8:	080043c0 	call	80043c <ReceiveU8>
               if (ReceiveDatablock(csd, 16))
  8012cc:	e0bff784 	addi	r2,fp,-34
  8012d0:	01400404 	movi	r5,16
  8012d4:	1009883a 	mov	r4,r2
  8012d8:	080048c0 	call	80048c <ReceiveDatablock>
  8012dc:	10008e26 	beq	r2,zero,801518 <ffs_DiskIOIoctl+0x480>
               {  /* Read partial block */
                  for (n = 64 - 16; n; n--)
  8012e0:	00800c04 	movi	r2,48
  8012e4:	e0bff505 	stb	r2,-44(fp)
  8012e8:	00000406 	br	8012fc <ffs_DiskIOIoctl+0x264>
                     ReceiveU8();   /* Purge trailing data */
  8012ec:	080043c0 	call	80043c <ReceiveU8>
            if (SendCMD(ACMD13, 0) == 0)
            {  /* Read SD status */
               ReceiveU8();
               if (ReceiveDatablock(csd, 16))
               {  /* Read partial block */
                  for (n = 64 - 16; n; n--)
  8012f0:	e0bff503 	ldbu	r2,-44(fp)
  8012f4:	10bfffc4 	addi	r2,r2,-1
  8012f8:	e0bff505 	stb	r2,-44(fp)
  8012fc:	e0bff503 	ldbu	r2,-44(fp)
  801300:	103ffa1e 	bne	r2,zero,8012ec <__alt_data_end+0xff8012ec>
                     ReceiveU8();   /* Purge trailing data */
                  *(FFS_U32 *) buff = 16UL << (csd[10] >> 4);
  801304:	e0bffa03 	ldbu	r2,-24(fp)
  801308:	10803fcc 	andi	r2,r2,255
  80130c:	1004d13a 	srli	r2,r2,4
  801310:	10803fcc 	andi	r2,r2,255
  801314:	00c00404 	movi	r3,16
  801318:	1886983a 	sll	r3,r3,r2
  80131c:	e0bffe17 	ldw	r2,-8(fp)
  801320:	10c00015 	stw	r3,0(r2)
                  res = RES_OK;
  801324:	e03ff415 	stw	zero,-48(fp)
                  *(FFS_U32 *) buff = ((FFS_U16) ((csd[10] & 124) >> 2) + 1) * (((csd[11] & 3) << 3) + ((csd[11] & 224) >> 5) + 1);
               }
               res = RES_OK;
            }
         }
         break;
  801328:	00007b06 	br	801518 <ffs_DiskIOIoctl+0x480>
               }
            }
         }
         else
         {  /* SDC ver 1.XX or MMC */
            if ((SendCMD(CMD9, 0) == 0) && ReceiveDatablock(csd, 16))
  80132c:	000b883a 	mov	r5,zero
  801330:	01001244 	movi	r4,73
  801334:	08008000 	call	800800 <SendCMD>
  801338:	10803fcc 	andi	r2,r2,255
  80133c:	1000761e 	bne	r2,zero,801518 <ffs_DiskIOIoctl+0x480>
  801340:	e0bff784 	addi	r2,fp,-34
  801344:	01400404 	movi	r5,16
  801348:	1009883a 	mov	r4,r2
  80134c:	080048c0 	call	80048c <ReceiveDatablock>
  801350:	10007126 	beq	r2,zero,801518 <ffs_DiskIOIoctl+0x480>
            {  /* Read CSD */
               if (CardType & CT_SD1)
  801354:	d0a36103 	ldbu	r2,-29308(gp)
  801358:	10803fcc 	andi	r2,r2,255
  80135c:	1080008c 	andi	r2,r2,2
  801360:	10001526 	beq	r2,zero,8013b8 <ffs_DiskIOIoctl+0x320>
               {  /* SDC ver 1.XX */
                  *(FFS_U32 *) buff = (((csd[10] & 63) << 1) + ((FFS_U16) (csd[11] & 128) >> 7) + 1) << ((csd[13] >> 6) - 1);
  801364:	e0bffa03 	ldbu	r2,-24(fp)
  801368:	10803fcc 	andi	r2,r2,255
  80136c:	10800fcc 	andi	r2,r2,63
  801370:	1085883a 	add	r2,r2,r2
  801374:	1007883a 	mov	r3,r2
  801378:	e0bffa43 	ldbu	r2,-23(fp)
  80137c:	10803fcc 	andi	r2,r2,255
  801380:	1004d1fa 	srli	r2,r2,7
  801384:	10803fcc 	andi	r2,r2,255
  801388:	1885883a 	add	r2,r3,r2
  80138c:	10c00044 	addi	r3,r2,1
  801390:	e0bffac3 	ldbu	r2,-21(fp)
  801394:	10803fcc 	andi	r2,r2,255
  801398:	1004d1ba 	srli	r2,r2,6
  80139c:	10803fcc 	andi	r2,r2,255
  8013a0:	10bfffc4 	addi	r2,r2,-1
  8013a4:	1884983a 	sll	r2,r3,r2
  8013a8:	1007883a 	mov	r3,r2
  8013ac:	e0bffe17 	ldw	r2,-8(fp)
  8013b0:	10c00015 	stw	r3,0(r2)
  8013b4:	00001406 	br	801408 <ffs_DiskIOIoctl+0x370>
               }
               else
               {  /* MMC */
                  *(FFS_U32 *) buff = ((FFS_U16) ((csd[10] & 124) >> 2) + 1) * (((csd[11] & 3) << 3) + ((csd[11] & 224) >> 5) + 1);
  8013b8:	e0bffa03 	ldbu	r2,-24(fp)
  8013bc:	10803fcc 	andi	r2,r2,255
  8013c0:	10801f0c 	andi	r2,r2,124
  8013c4:	1005d0ba 	srai	r2,r2,2
  8013c8:	10bfffcc 	andi	r2,r2,65535
  8013cc:	10c00044 	addi	r3,r2,1
  8013d0:	e0bffa43 	ldbu	r2,-23(fp)
  8013d4:	10803fcc 	andi	r2,r2,255
  8013d8:	108000cc 	andi	r2,r2,3
  8013dc:	100890fa 	slli	r4,r2,3
  8013e0:	e0bffa43 	ldbu	r2,-23(fp)
  8013e4:	10803fcc 	andi	r2,r2,255
  8013e8:	1004d17a 	srli	r2,r2,5
  8013ec:	10803fcc 	andi	r2,r2,255
  8013f0:	2085883a 	add	r2,r4,r2
  8013f4:	10800044 	addi	r2,r2,1
  8013f8:	1885383a 	mul	r2,r3,r2
  8013fc:	1007883a 	mov	r3,r2
  801400:	e0bffe17 	ldw	r2,-8(fp)
  801404:	10c00015 	stw	r3,0(r2)
               }
               res = RES_OK;
  801408:	e03ff415 	stw	zero,-48(fp)
            }
         }
         break;
  80140c:	00004206 	br	801518 <ffs_DiskIOIoctl+0x480>
         
      /* Following command are not used by FatFs module */
         
      case MMC_GET_TYPE:  /* Get MMC/SDC type (BYTE) */
         *ptr = CardType;
  801410:	d0e36103 	ldbu	r3,-29308(gp)
  801414:	e0bff617 	ldw	r2,-40(fp)
  801418:	10c00005 	stb	r3,0(r2)
         res = RES_OK;
  80141c:	e03ff415 	stw	zero,-48(fp)
         break;
  801420:	00004606 	br	80153c <ffs_DiskIOIoctl+0x4a4>

      case MMC_GET_CSD:   /* Receive CSD as a data block (16 bytes) */
         if (SendCMD(CMD9, 0) == 0  /* READ_CSD */
  801424:	000b883a 	mov	r5,zero
  801428:	01001244 	movi	r4,73
  80142c:	08008000 	call	800800 <SendCMD>
  801430:	10803fcc 	andi	r2,r2,255
  801434:	10003a1e 	bne	r2,zero,801520 <ffs_DiskIOIoctl+0x488>
             && ReceiveDatablock(ptr, 16))
  801438:	01400404 	movi	r5,16
  80143c:	e13ff617 	ldw	r4,-40(fp)
  801440:	080048c0 	call	80048c <ReceiveDatablock>
  801444:	10003626 	beq	r2,zero,801520 <ffs_DiskIOIoctl+0x488>
            res = RES_OK;
  801448:	e03ff415 	stw	zero,-48(fp)
         break;
  80144c:	00003406 	br	801520 <ffs_DiskIOIoctl+0x488>

      case MMC_GET_CID:   /* Receive CID as a data block (16 bytes) */
         if (SendCMD(CMD10, 0) == 0 /* READ_CID */
  801450:	000b883a 	mov	r5,zero
  801454:	01001284 	movi	r4,74
  801458:	08008000 	call	800800 <SendCMD>
  80145c:	10803fcc 	andi	r2,r2,255
  801460:	1000311e 	bne	r2,zero,801528 <ffs_DiskIOIoctl+0x490>
             && ReceiveDatablock(ptr, 16))
  801464:	01400404 	movi	r5,16
  801468:	e13ff617 	ldw	r4,-40(fp)
  80146c:	080048c0 	call	80048c <ReceiveDatablock>
  801470:	10002d26 	beq	r2,zero,801528 <ffs_DiskIOIoctl+0x490>
            res = RES_OK;
  801474:	e03ff415 	stw	zero,-48(fp)
         break;
  801478:	00002b06 	br	801528 <ffs_DiskIOIoctl+0x490>

      case MMC_GET_OCR:   /* Receive OCR as an R3 resp (4 bytes) */
         if (SendCMD(CMD58, 0) == 0)
  80147c:	000b883a 	mov	r5,zero
  801480:	01001e84 	movi	r4,122
  801484:	08008000 	call	800800 <SendCMD>
  801488:	10803fcc 	andi	r2,r2,255
  80148c:	1000281e 	bne	r2,zero,801530 <ffs_DiskIOIoctl+0x498>
         {  /* READ_OCR */
            for (n = 0; n < 4; n++)
  801490:	e03ff505 	stb	zero,-44(fp)
  801494:	00000806 	br	8014b8 <ffs_DiskIOIoctl+0x420>
               *ptr++ = ReceiveU8();
  801498:	e43ff617 	ldw	r16,-40(fp)
  80149c:	80800044 	addi	r2,r16,1
  8014a0:	e0bff615 	stw	r2,-40(fp)
  8014a4:	080043c0 	call	80043c <ReceiveU8>
  8014a8:	80800005 	stb	r2,0(r16)
         break;

      case MMC_GET_OCR:   /* Receive OCR as an R3 resp (4 bytes) */
         if (SendCMD(CMD58, 0) == 0)
         {  /* READ_OCR */
            for (n = 0; n < 4; n++)
  8014ac:	e0bff503 	ldbu	r2,-44(fp)
  8014b0:	10800044 	addi	r2,r2,1
  8014b4:	e0bff505 	stb	r2,-44(fp)
  8014b8:	e0bff503 	ldbu	r2,-44(fp)
  8014bc:	10800130 	cmpltui	r2,r2,4
  8014c0:	103ff51e 	bne	r2,zero,801498 <__alt_data_end+0xff801498>
               *ptr++ = ReceiveU8();
            res = RES_OK;
  8014c4:	e03ff415 	stw	zero,-48(fp)
         }
         break;
  8014c8:	00001906 	br	801530 <ffs_DiskIOIoctl+0x498>

      case MMC_GET_SDSTAT:   /* Receive SD statsu as a data block (64 bytes) */
         if (SendCMD(ACMD13, 0) == 0)
  8014cc:	000b883a 	mov	r5,zero
  8014d0:	01003344 	movi	r4,205
  8014d4:	08008000 	call	800800 <SendCMD>
  8014d8:	10803fcc 	andi	r2,r2,255
  8014dc:	1000161e 	bne	r2,zero,801538 <ffs_DiskIOIoctl+0x4a0>
         {  /* SD_STATUS */
            ReceiveU8();
  8014e0:	080043c0 	call	80043c <ReceiveU8>
            if (ReceiveDatablock(ptr, 64))
  8014e4:	01401004 	movi	r5,64
  8014e8:	e13ff617 	ldw	r4,-40(fp)
  8014ec:	080048c0 	call	80048c <ReceiveDatablock>
  8014f0:	10001126 	beq	r2,zero,801538 <ffs_DiskIOIoctl+0x4a0>
               res = RES_OK;
  8014f4:	e03ff415 	stw	zero,-48(fp)
         }
         break;
  8014f8:	00000f06 	br	801538 <ffs_DiskIOIoctl+0x4a0>

      default:
         res = RES_PARERR;
  8014fc:	00800104 	movi	r2,4
  801500:	e0bff415 	stw	r2,-48(fp)
  801504:	00000d06 	br	80153c <ffs_DiskIOIoctl+0x4a4>
   {
      case CTRL_SYNC:  /* Make sure that pending write process has been finished */
         SELECT();
         if (WaitReady() == 0xFF)
            res = RES_OK;
         break;
  801508:	0001883a 	nop
  80150c:	00000b06 	br	80153c <ffs_DiskIOIoctl+0x4a4>
               csize = (csd[8] >> 6) + ((FFS_U16) csd[7] << 2) + ((FFS_U16) (csd[6] & 3) << 10) + 1;
               *(FFS_U32 *) buff = (FFS_U32) csize << (n - 9);
            }
            res = RES_OK;
         }
         break;
  801510:	0001883a 	nop
  801514:	00000906 	br	80153c <ffs_DiskIOIoctl+0x4a4>
                  *(FFS_U32 *) buff = ((FFS_U16) ((csd[10] & 124) >> 2) + 1) * (((csd[11] & 3) << 3) + ((csd[11] & 224) >> 5) + 1);
               }
               res = RES_OK;
            }
         }
         break;
  801518:	0001883a 	nop
  80151c:	00000706 	br	80153c <ffs_DiskIOIoctl+0x4a4>

      case MMC_GET_CSD:   /* Receive CSD as a data block (16 bytes) */
         if (SendCMD(CMD9, 0) == 0  /* READ_CSD */
             && ReceiveDatablock(ptr, 16))
            res = RES_OK;
         break;
  801520:	0001883a 	nop
  801524:	00000506 	br	80153c <ffs_DiskIOIoctl+0x4a4>

      case MMC_GET_CID:   /* Receive CID as a data block (16 bytes) */
         if (SendCMD(CMD10, 0) == 0 /* READ_CID */
             && ReceiveDatablock(ptr, 16))
            res = RES_OK;
         break;
  801528:	0001883a 	nop
  80152c:	00000306 	br	80153c <ffs_DiskIOIoctl+0x4a4>
         {  /* READ_OCR */
            for (n = 0; n < 4; n++)
               *ptr++ = ReceiveU8();
            res = RES_OK;
         }
         break;
  801530:	0001883a 	nop
  801534:	00000106 	br	80153c <ffs_DiskIOIoctl+0x4a4>
         {  /* SD_STATUS */
            ReceiveU8();
            if (ReceiveDatablock(ptr, 64))
               res = RES_OK;
         }
         break;
  801538:	0001883a 	nop

      default:
         res = RES_PARERR;
   }

   ReleaseBus();
  80153c:	08007b80 	call	8007b8 <ReleaseBus>

   return(res);
  801540:	e0bff417 	ldw	r2,-48(fp)
} /* ffs_DiskIOIoctl */
  801544:	e6ffff04 	addi	sp,fp,-4
  801548:	dfc00217 	ldw	ra,8(sp)
  80154c:	df000117 	ldw	fp,4(sp)
  801550:	dc000017 	ldw	r16,0(sp)
  801554:	dec00304 	addi	sp,sp,12
  801558:	f800283a 	ret

0080155c <get_fattime>:
/*  In    : none                                                           */
/*  Out   : none                                                           */
/*  Return: time                                                           */
/***************************************************************************/
FFS_U32 get_fattime (void)
{
  80155c:	defffe04 	addi	sp,sp,-8
  801560:	df000115 	stw	fp,4(sp)
  801564:	df000104 	addi	fp,sp,4
   FFS_U32 dTime;

   dTime = ((FFS_U32)(2008 - 1980) << 25) |
  801568:	008e57f4 	movhi	r2,14687
  80156c:	10a87844 	addi	r2,r2,-24095
  801570:	e0bfff15 	stw	r2,-4(fp)
                     ((FFS_U32) 30 << 16) | 
                     ((FFS_U32) 20 << 11) | 
                     ((FFS_U32) 15 << 5)  | 
                     ((FFS_U32) 2 >> 1);

   return(dTime);
  801574:	e0bfff17 	ldw	r2,-4(fp)
} /* get_fattime */
  801578:	e037883a 	mov	sp,fp
  80157c:	df000017 	ldw	fp,0(sp)
  801580:	dec00104 	addi	sp,sp,4
  801584:	f800283a 	ret

00801588 <mem_cpy>:
  801588:	defffa04 	addi	sp,sp,-24
  80158c:	df000515 	stw	fp,20(sp)
  801590:	df000504 	addi	fp,sp,20
  801594:	e13ffd15 	stw	r4,-12(fp)
  801598:	e17ffe15 	stw	r5,-8(fp)
  80159c:	e1bfff15 	stw	r6,-4(fp)
  8015a0:	e0bffd17 	ldw	r2,-12(fp)
  8015a4:	e0bffb15 	stw	r2,-20(fp)
  8015a8:	e0bffe17 	ldw	r2,-8(fp)
  8015ac:	e0bffc15 	stw	r2,-16(fp)
  8015b0:	00000806 	br	8015d4 <mem_cpy+0x4c>
  8015b4:	e0bffb17 	ldw	r2,-20(fp)
  8015b8:	10c00044 	addi	r3,r2,1
  8015bc:	e0fffb15 	stw	r3,-20(fp)
  8015c0:	e0fffc17 	ldw	r3,-16(fp)
  8015c4:	19000044 	addi	r4,r3,1
  8015c8:	e13ffc15 	stw	r4,-16(fp)
  8015cc:	18c00003 	ldbu	r3,0(r3)
  8015d0:	10c00005 	stb	r3,0(r2)
  8015d4:	e0bfff17 	ldw	r2,-4(fp)
  8015d8:	10ffffc4 	addi	r3,r2,-1
  8015dc:	e0ffff15 	stw	r3,-4(fp)
  8015e0:	103ff41e 	bne	r2,zero,8015b4 <__alt_data_end+0xff8015b4>
  8015e4:	0001883a 	nop
  8015e8:	e037883a 	mov	sp,fp
  8015ec:	df000017 	ldw	fp,0(sp)
  8015f0:	dec00104 	addi	sp,sp,4
  8015f4:	f800283a 	ret

008015f8 <mem_set>:
  8015f8:	defffb04 	addi	sp,sp,-20
  8015fc:	df000415 	stw	fp,16(sp)
  801600:	df000404 	addi	fp,sp,16
  801604:	e13ffd15 	stw	r4,-12(fp)
  801608:	e17ffe15 	stw	r5,-8(fp)
  80160c:	e1bfff15 	stw	r6,-4(fp)
  801610:	e0bffd17 	ldw	r2,-12(fp)
  801614:	e0bffc15 	stw	r2,-16(fp)
  801618:	00000506 	br	801630 <mem_set+0x38>
  80161c:	e0bffc17 	ldw	r2,-16(fp)
  801620:	10c00044 	addi	r3,r2,1
  801624:	e0fffc15 	stw	r3,-16(fp)
  801628:	e0fffe17 	ldw	r3,-8(fp)
  80162c:	10c00005 	stb	r3,0(r2)
  801630:	e0bfff17 	ldw	r2,-4(fp)
  801634:	10ffffc4 	addi	r3,r2,-1
  801638:	e0ffff15 	stw	r3,-4(fp)
  80163c:	103ff71e 	bne	r2,zero,80161c <__alt_data_end+0xff80161c>
  801640:	0001883a 	nop
  801644:	e037883a 	mov	sp,fp
  801648:	df000017 	ldw	fp,0(sp)
  80164c:	dec00104 	addi	sp,sp,4
  801650:	f800283a 	ret

00801654 <mem_cmp>:
  801654:	defff904 	addi	sp,sp,-28
  801658:	df000615 	stw	fp,24(sp)
  80165c:	df000604 	addi	fp,sp,24
  801660:	e13ffd15 	stw	r4,-12(fp)
  801664:	e17ffe15 	stw	r5,-8(fp)
  801668:	e1bfff15 	stw	r6,-4(fp)
  80166c:	e0bffd17 	ldw	r2,-12(fp)
  801670:	e0bffa15 	stw	r2,-24(fp)
  801674:	e0bffe17 	ldw	r2,-8(fp)
  801678:	e0bffb15 	stw	r2,-20(fp)
  80167c:	e03ffc15 	stw	zero,-16(fp)
  801680:	0001883a 	nop
  801684:	e0bfff17 	ldw	r2,-4(fp)
  801688:	10ffffc4 	addi	r3,r2,-1
  80168c:	e0ffff15 	stw	r3,-4(fp)
  801690:	10000e26 	beq	r2,zero,8016cc <mem_cmp+0x78>
  801694:	e0bffa17 	ldw	r2,-24(fp)
  801698:	10c00044 	addi	r3,r2,1
  80169c:	e0fffa15 	stw	r3,-24(fp)
  8016a0:	10800003 	ldbu	r2,0(r2)
  8016a4:	10c03fcc 	andi	r3,r2,255
  8016a8:	e0bffb17 	ldw	r2,-20(fp)
  8016ac:	11000044 	addi	r4,r2,1
  8016b0:	e13ffb15 	stw	r4,-20(fp)
  8016b4:	10800003 	ldbu	r2,0(r2)
  8016b8:	10803fcc 	andi	r2,r2,255
  8016bc:	1885c83a 	sub	r2,r3,r2
  8016c0:	e0bffc15 	stw	r2,-16(fp)
  8016c4:	e0bffc17 	ldw	r2,-16(fp)
  8016c8:	103fee26 	beq	r2,zero,801684 <__alt_data_end+0xff801684>
  8016cc:	e0bffc17 	ldw	r2,-16(fp)
  8016d0:	e037883a 	mov	sp,fp
  8016d4:	df000017 	ldw	fp,0(sp)
  8016d8:	dec00104 	addi	sp,sp,4
  8016dc:	f800283a 	ret

008016e0 <chk_chr>:
  8016e0:	defffd04 	addi	sp,sp,-12
  8016e4:	df000215 	stw	fp,8(sp)
  8016e8:	df000204 	addi	fp,sp,8
  8016ec:	e13ffe15 	stw	r4,-8(fp)
  8016f0:	e17fff15 	stw	r5,-4(fp)
  8016f4:	00000306 	br	801704 <chk_chr+0x24>
  8016f8:	e0bffe17 	ldw	r2,-8(fp)
  8016fc:	10800044 	addi	r2,r2,1
  801700:	e0bffe15 	stw	r2,-8(fp)
  801704:	e0bffe17 	ldw	r2,-8(fp)
  801708:	10800003 	ldbu	r2,0(r2)
  80170c:	10803fcc 	andi	r2,r2,255
  801710:	1080201c 	xori	r2,r2,128
  801714:	10bfe004 	addi	r2,r2,-128
  801718:	10000726 	beq	r2,zero,801738 <chk_chr+0x58>
  80171c:	e0bffe17 	ldw	r2,-8(fp)
  801720:	10800003 	ldbu	r2,0(r2)
  801724:	10c03fcc 	andi	r3,r2,255
  801728:	18c0201c 	xori	r3,r3,128
  80172c:	18ffe004 	addi	r3,r3,-128
  801730:	e0bfff17 	ldw	r2,-4(fp)
  801734:	18bff01e 	bne	r3,r2,8016f8 <__alt_data_end+0xff8016f8>
  801738:	e0bffe17 	ldw	r2,-8(fp)
  80173c:	10800003 	ldbu	r2,0(r2)
  801740:	10803fcc 	andi	r2,r2,255
  801744:	1080201c 	xori	r2,r2,128
  801748:	10bfe004 	addi	r2,r2,-128
  80174c:	e037883a 	mov	sp,fp
  801750:	df000017 	ldw	fp,0(sp)
  801754:	dec00104 	addi	sp,sp,4
  801758:	f800283a 	ret

0080175c <move_window>:
  80175c:	defffa04 	addi	sp,sp,-24
  801760:	dfc00515 	stw	ra,20(sp)
  801764:	df000415 	stw	fp,16(sp)
  801768:	df000404 	addi	fp,sp,16
  80176c:	e13ffe15 	stw	r4,-8(fp)
  801770:	e17fff15 	stw	r5,-4(fp)
  801774:	e0bffe17 	ldw	r2,-8(fp)
  801778:	10800b17 	ldw	r2,44(r2)
  80177c:	e0bffc15 	stw	r2,-16(fp)
  801780:	e0fffc17 	ldw	r3,-16(fp)
  801784:	e0bfff17 	ldw	r2,-4(fp)
  801788:	18804526 	beq	r3,r2,8018a0 <move_window+0x144>
  80178c:	e0bffe17 	ldw	r2,-8(fp)
  801790:	10800103 	ldbu	r2,4(r2)
  801794:	10803fcc 	andi	r2,r2,255
  801798:	10002f26 	beq	r2,zero,801858 <move_window+0xfc>
  80179c:	e0bffe17 	ldw	r2,-8(fp)
  8017a0:	10800043 	ldbu	r2,1(r2)
  8017a4:	10c03fcc 	andi	r3,r2,255
  8017a8:	e0bffe17 	ldw	r2,-8(fp)
  8017ac:	10800c04 	addi	r2,r2,48
  8017b0:	01c00044 	movi	r7,1
  8017b4:	e1bffc17 	ldw	r6,-16(fp)
  8017b8:	100b883a 	mov	r5,r2
  8017bc:	1809883a 	mov	r4,r3
  8017c0:	0800f280 	call	800f28 <ffs_DiskIOWrite>
  8017c4:	10000226 	beq	r2,zero,8017d0 <move_window+0x74>
  8017c8:	00800044 	movi	r2,1
  8017cc:	00003506 	br	8018a4 <move_window+0x148>
  8017d0:	e0bffe17 	ldw	r2,-8(fp)
  8017d4:	10000105 	stb	zero,4(r2)
  8017d8:	e0bffe17 	ldw	r2,-8(fp)
  8017dc:	10c00817 	ldw	r3,32(r2)
  8017e0:	e0bffe17 	ldw	r2,-8(fp)
  8017e4:	10800717 	ldw	r2,28(r2)
  8017e8:	1885883a 	add	r2,r3,r2
  8017ec:	e0fffc17 	ldw	r3,-16(fp)
  8017f0:	1880192e 	bgeu	r3,r2,801858 <move_window+0xfc>
  8017f4:	e0bffe17 	ldw	r2,-8(fp)
  8017f8:	108000c3 	ldbu	r2,3(r2)
  8017fc:	e0bffd05 	stb	r2,-12(fp)
  801800:	00001206 	br	80184c <move_window+0xf0>
  801804:	e0bffe17 	ldw	r2,-8(fp)
  801808:	10800717 	ldw	r2,28(r2)
  80180c:	e0fffc17 	ldw	r3,-16(fp)
  801810:	1885883a 	add	r2,r3,r2
  801814:	e0bffc15 	stw	r2,-16(fp)
  801818:	e0bffe17 	ldw	r2,-8(fp)
  80181c:	10800043 	ldbu	r2,1(r2)
  801820:	10c03fcc 	andi	r3,r2,255
  801824:	e0bffe17 	ldw	r2,-8(fp)
  801828:	10800c04 	addi	r2,r2,48
  80182c:	01c00044 	movi	r7,1
  801830:	e1bffc17 	ldw	r6,-16(fp)
  801834:	100b883a 	mov	r5,r2
  801838:	1809883a 	mov	r4,r3
  80183c:	0800f280 	call	800f28 <ffs_DiskIOWrite>
  801840:	e0bffd03 	ldbu	r2,-12(fp)
  801844:	10bfffc4 	addi	r2,r2,-1
  801848:	e0bffd05 	stb	r2,-12(fp)
  80184c:	e0bffd03 	ldbu	r2,-12(fp)
  801850:	108000a8 	cmpgeui	r2,r2,2
  801854:	103feb1e 	bne	r2,zero,801804 <__alt_data_end+0xff801804>
  801858:	e0bfff17 	ldw	r2,-4(fp)
  80185c:	10001026 	beq	r2,zero,8018a0 <move_window+0x144>
  801860:	e0bffe17 	ldw	r2,-8(fp)
  801864:	10800043 	ldbu	r2,1(r2)
  801868:	10c03fcc 	andi	r3,r2,255
  80186c:	e0bffe17 	ldw	r2,-8(fp)
  801870:	10800c04 	addi	r2,r2,48
  801874:	01c00044 	movi	r7,1
  801878:	e1bfff17 	ldw	r6,-4(fp)
  80187c:	100b883a 	mov	r5,r2
  801880:	1809883a 	mov	r4,r3
  801884:	0800e080 	call	800e08 <ffs_DiskIORead>
  801888:	10000226 	beq	r2,zero,801894 <move_window+0x138>
  80188c:	00800044 	movi	r2,1
  801890:	00000406 	br	8018a4 <move_window+0x148>
  801894:	e0bffe17 	ldw	r2,-8(fp)
  801898:	e0ffff17 	ldw	r3,-4(fp)
  80189c:	10c00b15 	stw	r3,44(r2)
  8018a0:	0005883a 	mov	r2,zero
  8018a4:	e037883a 	mov	sp,fp
  8018a8:	dfc00117 	ldw	ra,4(sp)
  8018ac:	df000017 	ldw	fp,0(sp)
  8018b0:	dec00204 	addi	sp,sp,8
  8018b4:	f800283a 	ret

008018b8 <sync>:
  8018b8:	defffc04 	addi	sp,sp,-16
  8018bc:	dfc00315 	stw	ra,12(sp)
  8018c0:	df000215 	stw	fp,8(sp)
  8018c4:	df000204 	addi	fp,sp,8
  8018c8:	e13fff15 	stw	r4,-4(fp)
  8018cc:	000b883a 	mov	r5,zero
  8018d0:	e13fff17 	ldw	r4,-4(fp)
  8018d4:	080175c0 	call	80175c <move_window>
  8018d8:	e0bffe15 	stw	r2,-8(fp)
  8018dc:	e0bffe17 	ldw	r2,-8(fp)
  8018e0:	1000771e 	bne	r2,zero,801ac0 <sync+0x208>
  8018e4:	e0bfff17 	ldw	r2,-4(fp)
  8018e8:	10800003 	ldbu	r2,0(r2)
  8018ec:	10803fcc 	andi	r2,r2,255
  8018f0:	108000d8 	cmpnei	r2,r2,3
  8018f4:	1000681e 	bne	r2,zero,801a98 <sync+0x1e0>
  8018f8:	e0bfff17 	ldw	r2,-4(fp)
  8018fc:	10800143 	ldbu	r2,5(r2)
  801900:	10803fcc 	andi	r2,r2,255
  801904:	10006426 	beq	r2,zero,801a98 <sync+0x1e0>
  801908:	e0bfff17 	ldw	r2,-4(fp)
  80190c:	10000b15 	stw	zero,44(r2)
  801910:	e0bfff17 	ldw	r2,-4(fp)
  801914:	10800c04 	addi	r2,r2,48
  801918:	01808004 	movi	r6,512
  80191c:	000b883a 	mov	r5,zero
  801920:	1009883a 	mov	r4,r2
  801924:	08015f80 	call	8015f8 <mem_set>
  801928:	e0bfff17 	ldw	r2,-4(fp)
  80192c:	00c01544 	movi	r3,85
  801930:	10c08b85 	stb	r3,558(r2)
  801934:	e0bfff17 	ldw	r2,-4(fp)
  801938:	00ffea84 	movi	r3,-86
  80193c:	10c08bc5 	stb	r3,559(r2)
  801940:	e0bfff17 	ldw	r2,-4(fp)
  801944:	00c01484 	movi	r3,82
  801948:	10c00c05 	stb	r3,48(r2)
  80194c:	e0bfff17 	ldw	r2,-4(fp)
  801950:	00c01484 	movi	r3,82
  801954:	10c00c45 	stb	r3,49(r2)
  801958:	e0bfff17 	ldw	r2,-4(fp)
  80195c:	00c01844 	movi	r3,97
  801960:	10c00c85 	stb	r3,50(r2)
  801964:	e0bfff17 	ldw	r2,-4(fp)
  801968:	00c01044 	movi	r3,65
  80196c:	10c00cc5 	stb	r3,51(r2)
  801970:	e0bfff17 	ldw	r2,-4(fp)
  801974:	00c01c84 	movi	r3,114
  801978:	10c08505 	stb	r3,532(r2)
  80197c:	e0bfff17 	ldw	r2,-4(fp)
  801980:	00c01c84 	movi	r3,114
  801984:	10c08545 	stb	r3,533(r2)
  801988:	e0bfff17 	ldw	r2,-4(fp)
  80198c:	00c01044 	movi	r3,65
  801990:	10c08585 	stb	r3,534(r2)
  801994:	e0bfff17 	ldw	r2,-4(fp)
  801998:	00c01844 	movi	r3,97
  80199c:	10c085c5 	stb	r3,535(r2)
  8019a0:	e0bfff17 	ldw	r2,-4(fp)
  8019a4:	10800417 	ldw	r2,16(r2)
  8019a8:	1007883a 	mov	r3,r2
  8019ac:	e0bfff17 	ldw	r2,-4(fp)
  8019b0:	10c08605 	stb	r3,536(r2)
  8019b4:	e0bfff17 	ldw	r2,-4(fp)
  8019b8:	10800417 	ldw	r2,16(r2)
  8019bc:	10bfffcc 	andi	r2,r2,65535
  8019c0:	1005d23a 	srai	r2,r2,8
  8019c4:	1007883a 	mov	r3,r2
  8019c8:	e0bfff17 	ldw	r2,-4(fp)
  8019cc:	10c08645 	stb	r3,537(r2)
  8019d0:	e0bfff17 	ldw	r2,-4(fp)
  8019d4:	10800417 	ldw	r2,16(r2)
  8019d8:	1004d43a 	srli	r2,r2,16
  8019dc:	1007883a 	mov	r3,r2
  8019e0:	e0bfff17 	ldw	r2,-4(fp)
  8019e4:	10c08685 	stb	r3,538(r2)
  8019e8:	e0bfff17 	ldw	r2,-4(fp)
  8019ec:	10800417 	ldw	r2,16(r2)
  8019f0:	1004d63a 	srli	r2,r2,24
  8019f4:	1007883a 	mov	r3,r2
  8019f8:	e0bfff17 	ldw	r2,-4(fp)
  8019fc:	10c086c5 	stb	r3,539(r2)
  801a00:	e0bfff17 	ldw	r2,-4(fp)
  801a04:	10800317 	ldw	r2,12(r2)
  801a08:	1007883a 	mov	r3,r2
  801a0c:	e0bfff17 	ldw	r2,-4(fp)
  801a10:	10c08705 	stb	r3,540(r2)
  801a14:	e0bfff17 	ldw	r2,-4(fp)
  801a18:	10800317 	ldw	r2,12(r2)
  801a1c:	10bfffcc 	andi	r2,r2,65535
  801a20:	1005d23a 	srai	r2,r2,8
  801a24:	1007883a 	mov	r3,r2
  801a28:	e0bfff17 	ldw	r2,-4(fp)
  801a2c:	10c08745 	stb	r3,541(r2)
  801a30:	e0bfff17 	ldw	r2,-4(fp)
  801a34:	10800317 	ldw	r2,12(r2)
  801a38:	1004d43a 	srli	r2,r2,16
  801a3c:	1007883a 	mov	r3,r2
  801a40:	e0bfff17 	ldw	r2,-4(fp)
  801a44:	10c08785 	stb	r3,542(r2)
  801a48:	e0bfff17 	ldw	r2,-4(fp)
  801a4c:	10800317 	ldw	r2,12(r2)
  801a50:	1004d63a 	srli	r2,r2,24
  801a54:	1007883a 	mov	r3,r2
  801a58:	e0bfff17 	ldw	r2,-4(fp)
  801a5c:	10c087c5 	stb	r3,543(r2)
  801a60:	e0bfff17 	ldw	r2,-4(fp)
  801a64:	10800043 	ldbu	r2,1(r2)
  801a68:	10c03fcc 	andi	r3,r2,255
  801a6c:	e0bfff17 	ldw	r2,-4(fp)
  801a70:	11000c04 	addi	r4,r2,48
  801a74:	e0bfff17 	ldw	r2,-4(fp)
  801a78:	10800517 	ldw	r2,20(r2)
  801a7c:	01c00044 	movi	r7,1
  801a80:	100d883a 	mov	r6,r2
  801a84:	200b883a 	mov	r5,r4
  801a88:	1809883a 	mov	r4,r3
  801a8c:	0800f280 	call	800f28 <ffs_DiskIOWrite>
  801a90:	e0bfff17 	ldw	r2,-4(fp)
  801a94:	10000145 	stb	zero,5(r2)
  801a98:	e0bfff17 	ldw	r2,-4(fp)
  801a9c:	10800043 	ldbu	r2,1(r2)
  801aa0:	10803fcc 	andi	r2,r2,255
  801aa4:	000d883a 	mov	r6,zero
  801aa8:	000b883a 	mov	r5,zero
  801aac:	1009883a 	mov	r4,r2
  801ab0:	08010980 	call	801098 <ffs_DiskIOIoctl>
  801ab4:	10000226 	beq	r2,zero,801ac0 <sync+0x208>
  801ab8:	00800044 	movi	r2,1
  801abc:	e0bffe15 	stw	r2,-8(fp)
  801ac0:	e0bffe17 	ldw	r2,-8(fp)
  801ac4:	e037883a 	mov	sp,fp
  801ac8:	dfc00117 	ldw	ra,4(sp)
  801acc:	df000017 	ldw	fp,0(sp)
  801ad0:	dec00204 	addi	sp,sp,8
  801ad4:	f800283a 	ret

00801ad8 <clust2sect>:
  801ad8:	defffd04 	addi	sp,sp,-12
  801adc:	df000215 	stw	fp,8(sp)
  801ae0:	df000204 	addi	fp,sp,8
  801ae4:	e13ffe15 	stw	r4,-8(fp)
  801ae8:	e17fff15 	stw	r5,-4(fp)
  801aec:	e0bfff17 	ldw	r2,-4(fp)
  801af0:	10bfff84 	addi	r2,r2,-2
  801af4:	e0bfff15 	stw	r2,-4(fp)
  801af8:	e0bffe17 	ldw	r2,-8(fp)
  801afc:	10800617 	ldw	r2,24(r2)
  801b00:	10bfff84 	addi	r2,r2,-2
  801b04:	e0ffff17 	ldw	r3,-4(fp)
  801b08:	18800236 	bltu	r3,r2,801b14 <clust2sect+0x3c>
  801b0c:	0005883a 	mov	r2,zero
  801b10:	00000806 	br	801b34 <clust2sect+0x5c>
  801b14:	e0bffe17 	ldw	r2,-8(fp)
  801b18:	10800083 	ldbu	r2,2(r2)
  801b1c:	10c03fcc 	andi	r3,r2,255
  801b20:	e0bfff17 	ldw	r2,-4(fp)
  801b24:	1887383a 	mul	r3,r3,r2
  801b28:	e0bffe17 	ldw	r2,-8(fp)
  801b2c:	10800a17 	ldw	r2,40(r2)
  801b30:	1885883a 	add	r2,r3,r2
  801b34:	e037883a 	mov	sp,fp
  801b38:	df000017 	ldw	fp,0(sp)
  801b3c:	dec00104 	addi	sp,sp,4
  801b40:	f800283a 	ret

00801b44 <get_fat>:
  801b44:	defff904 	addi	sp,sp,-28
  801b48:	dfc00615 	stw	ra,24(sp)
  801b4c:	df000515 	stw	fp,20(sp)
  801b50:	df000504 	addi	fp,sp,20
  801b54:	e13ffe15 	stw	r4,-8(fp)
  801b58:	e17fff15 	stw	r5,-4(fp)
  801b5c:	e0bfff17 	ldw	r2,-4(fp)
  801b60:	108000b0 	cmpltui	r2,r2,2
  801b64:	1000041e 	bne	r2,zero,801b78 <get_fat+0x34>
  801b68:	e0bffe17 	ldw	r2,-8(fp)
  801b6c:	10800617 	ldw	r2,24(r2)
  801b70:	e0ffff17 	ldw	r3,-4(fp)
  801b74:	18800236 	bltu	r3,r2,801b80 <get_fat+0x3c>
  801b78:	00800044 	movi	r2,1
  801b7c:	00009006 	br	801dc0 <get_fat+0x27c>
  801b80:	e0bffe17 	ldw	r2,-8(fp)
  801b84:	10800003 	ldbu	r2,0(r2)
  801b88:	10803fcc 	andi	r2,r2,255
  801b8c:	10c000a0 	cmpeqi	r3,r2,2
  801b90:	18003d1e 	bne	r3,zero,801c88 <get_fat+0x144>
  801b94:	10c000e0 	cmpeqi	r3,r2,3
  801b98:	1800571e 	bne	r3,zero,801cf8 <get_fat+0x1b4>
  801b9c:	10800060 	cmpeqi	r2,r2,1
  801ba0:	10008626 	beq	r2,zero,801dbc <get_fat+0x278>
  801ba4:	e0bfff17 	ldw	r2,-4(fp)
  801ba8:	e0bffb15 	stw	r2,-20(fp)
  801bac:	e0bffb17 	ldw	r2,-20(fp)
  801bb0:	1004d07a 	srli	r2,r2,1
  801bb4:	e0fffb17 	ldw	r3,-20(fp)
  801bb8:	1885883a 	add	r2,r3,r2
  801bbc:	e0bffb15 	stw	r2,-20(fp)
  801bc0:	e0bffe17 	ldw	r2,-8(fp)
  801bc4:	10c00817 	ldw	r3,32(r2)
  801bc8:	e0bffb17 	ldw	r2,-20(fp)
  801bcc:	1004d27a 	srli	r2,r2,9
  801bd0:	1885883a 	add	r2,r3,r2
  801bd4:	100b883a 	mov	r5,r2
  801bd8:	e13ffe17 	ldw	r4,-8(fp)
  801bdc:	080175c0 	call	80175c <move_window>
  801be0:	10006f1e 	bne	r2,zero,801da0 <get_fat+0x25c>
  801be4:	e0bffb17 	ldw	r2,-20(fp)
  801be8:	10807fcc 	andi	r2,r2,511
  801bec:	e0fffe17 	ldw	r3,-8(fp)
  801bf0:	1885883a 	add	r2,r3,r2
  801bf4:	10800c04 	addi	r2,r2,48
  801bf8:	10800003 	ldbu	r2,0(r2)
  801bfc:	10803fcc 	andi	r2,r2,255
  801c00:	e0bffc15 	stw	r2,-16(fp)
  801c04:	e0bffb17 	ldw	r2,-20(fp)
  801c08:	10800044 	addi	r2,r2,1
  801c0c:	e0bffb15 	stw	r2,-20(fp)
  801c10:	e0bffe17 	ldw	r2,-8(fp)
  801c14:	10c00817 	ldw	r3,32(r2)
  801c18:	e0bffb17 	ldw	r2,-20(fp)
  801c1c:	1004d27a 	srli	r2,r2,9
  801c20:	1885883a 	add	r2,r3,r2
  801c24:	100b883a 	mov	r5,r2
  801c28:	e13ffe17 	ldw	r4,-8(fp)
  801c2c:	080175c0 	call	80175c <move_window>
  801c30:	10005d1e 	bne	r2,zero,801da8 <get_fat+0x264>
  801c34:	e0bffb17 	ldw	r2,-20(fp)
  801c38:	10807fcc 	andi	r2,r2,511
  801c3c:	e0fffe17 	ldw	r3,-8(fp)
  801c40:	1885883a 	add	r2,r3,r2
  801c44:	10800c04 	addi	r2,r2,48
  801c48:	10800003 	ldbu	r2,0(r2)
  801c4c:	10803fcc 	andi	r2,r2,255
  801c50:	1004923a 	slli	r2,r2,8
  801c54:	1007883a 	mov	r3,r2
  801c58:	e0bffc17 	ldw	r2,-16(fp)
  801c5c:	10c4b03a 	or	r2,r2,r3
  801c60:	e0bffc15 	stw	r2,-16(fp)
  801c64:	e0bfff17 	ldw	r2,-4(fp)
  801c68:	1080004c 	andi	r2,r2,1
  801c6c:	10000326 	beq	r2,zero,801c7c <get_fat+0x138>
  801c70:	e0bffc17 	ldw	r2,-16(fp)
  801c74:	1004d13a 	srli	r2,r2,4
  801c78:	00005106 	br	801dc0 <get_fat+0x27c>
  801c7c:	e0bffc17 	ldw	r2,-16(fp)
  801c80:	1083ffcc 	andi	r2,r2,4095
  801c84:	00004e06 	br	801dc0 <get_fat+0x27c>
  801c88:	e0bffe17 	ldw	r2,-8(fp)
  801c8c:	10c00817 	ldw	r3,32(r2)
  801c90:	e0bfff17 	ldw	r2,-4(fp)
  801c94:	1004d23a 	srli	r2,r2,8
  801c98:	1885883a 	add	r2,r3,r2
  801c9c:	100b883a 	mov	r5,r2
  801ca0:	e13ffe17 	ldw	r4,-8(fp)
  801ca4:	080175c0 	call	80175c <move_window>
  801ca8:	1000411e 	bne	r2,zero,801db0 <get_fat+0x26c>
  801cac:	e0bfff17 	ldw	r2,-4(fp)
  801cb0:	1085883a 	add	r2,r2,r2
  801cb4:	10807f8c 	andi	r2,r2,510
  801cb8:	10800c04 	addi	r2,r2,48
  801cbc:	e0fffe17 	ldw	r3,-8(fp)
  801cc0:	1885883a 	add	r2,r3,r2
  801cc4:	e0bffd15 	stw	r2,-12(fp)
  801cc8:	e0bffd17 	ldw	r2,-12(fp)
  801ccc:	10800044 	addi	r2,r2,1
  801cd0:	10800003 	ldbu	r2,0(r2)
  801cd4:	10803fcc 	andi	r2,r2,255
  801cd8:	1004923a 	slli	r2,r2,8
  801cdc:	1007883a 	mov	r3,r2
  801ce0:	e0bffd17 	ldw	r2,-12(fp)
  801ce4:	10800003 	ldbu	r2,0(r2)
  801ce8:	10803fcc 	andi	r2,r2,255
  801cec:	1884b03a 	or	r2,r3,r2
  801cf0:	10bfffcc 	andi	r2,r2,65535
  801cf4:	00003206 	br	801dc0 <get_fat+0x27c>
  801cf8:	e0bffe17 	ldw	r2,-8(fp)
  801cfc:	10c00817 	ldw	r3,32(r2)
  801d00:	e0bfff17 	ldw	r2,-4(fp)
  801d04:	1004d1fa 	srli	r2,r2,7
  801d08:	1885883a 	add	r2,r3,r2
  801d0c:	100b883a 	mov	r5,r2
  801d10:	e13ffe17 	ldw	r4,-8(fp)
  801d14:	080175c0 	call	80175c <move_window>
  801d18:	1000271e 	bne	r2,zero,801db8 <get_fat+0x274>
  801d1c:	e0bfff17 	ldw	r2,-4(fp)
  801d20:	1085883a 	add	r2,r2,r2
  801d24:	1085883a 	add	r2,r2,r2
  801d28:	10807f0c 	andi	r2,r2,508
  801d2c:	10800c04 	addi	r2,r2,48
  801d30:	e0fffe17 	ldw	r3,-8(fp)
  801d34:	1885883a 	add	r2,r3,r2
  801d38:	e0bffd15 	stw	r2,-12(fp)
  801d3c:	e0bffd17 	ldw	r2,-12(fp)
  801d40:	108000c4 	addi	r2,r2,3
  801d44:	10800003 	ldbu	r2,0(r2)
  801d48:	10803fcc 	andi	r2,r2,255
  801d4c:	1006963a 	slli	r3,r2,24
  801d50:	e0bffd17 	ldw	r2,-12(fp)
  801d54:	10800084 	addi	r2,r2,2
  801d58:	10800003 	ldbu	r2,0(r2)
  801d5c:	10803fcc 	andi	r2,r2,255
  801d60:	1004943a 	slli	r2,r2,16
  801d64:	1884b03a 	or	r2,r3,r2
  801d68:	e0fffd17 	ldw	r3,-12(fp)
  801d6c:	18c00044 	addi	r3,r3,1
  801d70:	18c00003 	ldbu	r3,0(r3)
  801d74:	18c03fcc 	andi	r3,r3,255
  801d78:	1806923a 	slli	r3,r3,8
  801d7c:	10c6b03a 	or	r3,r2,r3
  801d80:	e0bffd17 	ldw	r2,-12(fp)
  801d84:	10800003 	ldbu	r2,0(r2)
  801d88:	10803fcc 	andi	r2,r2,255
  801d8c:	1886b03a 	or	r3,r3,r2
  801d90:	00840034 	movhi	r2,4096
  801d94:	10bfffc4 	addi	r2,r2,-1
  801d98:	1884703a 	and	r2,r3,r2
  801d9c:	00000806 	br	801dc0 <get_fat+0x27c>
  801da0:	0001883a 	nop
  801da4:	00000506 	br	801dbc <get_fat+0x278>
  801da8:	0001883a 	nop
  801dac:	00000306 	br	801dbc <get_fat+0x278>
  801db0:	0001883a 	nop
  801db4:	00000106 	br	801dbc <get_fat+0x278>
  801db8:	0001883a 	nop
  801dbc:	00bfffc4 	movi	r2,-1
  801dc0:	e037883a 	mov	sp,fp
  801dc4:	dfc00117 	ldw	ra,4(sp)
  801dc8:	df000017 	ldw	fp,0(sp)
  801dcc:	dec00204 	addi	sp,sp,8
  801dd0:	f800283a 	ret

00801dd4 <put_fat>:
  801dd4:	defff804 	addi	sp,sp,-32
  801dd8:	dfc00715 	stw	ra,28(sp)
  801ddc:	df000615 	stw	fp,24(sp)
  801de0:	df000604 	addi	fp,sp,24
  801de4:	e13ffd15 	stw	r4,-12(fp)
  801de8:	e17ffe15 	stw	r5,-8(fp)
  801dec:	e1bfff15 	stw	r6,-4(fp)
  801df0:	e0bffe17 	ldw	r2,-8(fp)
  801df4:	108000b0 	cmpltui	r2,r2,2
  801df8:	1000041e 	bne	r2,zero,801e0c <put_fat+0x38>
  801dfc:	e0bffd17 	ldw	r2,-12(fp)
  801e00:	10800617 	ldw	r2,24(r2)
  801e04:	e0fffe17 	ldw	r3,-8(fp)
  801e08:	18800336 	bltu	r3,r2,801e18 <put_fat+0x44>
  801e0c:	00800084 	movi	r2,2
  801e10:	e0bffa15 	stw	r2,-24(fp)
  801e14:	0000c906 	br	80213c <put_fat+0x368>
  801e18:	e0bffd17 	ldw	r2,-12(fp)
  801e1c:	10800003 	ldbu	r2,0(r2)
  801e20:	10803fcc 	andi	r2,r2,255
  801e24:	10c000a0 	cmpeqi	r3,r2,2
  801e28:	1800591e 	bne	r3,zero,801f90 <put_fat+0x1bc>
  801e2c:	10c000e0 	cmpeqi	r3,r2,3
  801e30:	1800741e 	bne	r3,zero,802004 <put_fat+0x230>
  801e34:	10800060 	cmpeqi	r2,r2,1
  801e38:	1000b326 	beq	r2,zero,802108 <put_fat+0x334>
  801e3c:	e0bffe17 	ldw	r2,-8(fp)
  801e40:	e0bffb15 	stw	r2,-20(fp)
  801e44:	e0bffb17 	ldw	r2,-20(fp)
  801e48:	1004d07a 	srli	r2,r2,1
  801e4c:	e0fffb17 	ldw	r3,-20(fp)
  801e50:	1885883a 	add	r2,r3,r2
  801e54:	e0bffb15 	stw	r2,-20(fp)
  801e58:	e0bffd17 	ldw	r2,-12(fp)
  801e5c:	10c00817 	ldw	r3,32(r2)
  801e60:	e0bffb17 	ldw	r2,-20(fp)
  801e64:	1004d27a 	srli	r2,r2,9
  801e68:	1885883a 	add	r2,r3,r2
  801e6c:	100b883a 	mov	r5,r2
  801e70:	e13ffd17 	ldw	r4,-12(fp)
  801e74:	080175c0 	call	80175c <move_window>
  801e78:	e0bffa15 	stw	r2,-24(fp)
  801e7c:	e0bffa17 	ldw	r2,-24(fp)
  801e80:	1000a41e 	bne	r2,zero,802114 <put_fat+0x340>
  801e84:	e0bffb17 	ldw	r2,-20(fp)
  801e88:	10807fcc 	andi	r2,r2,511
  801e8c:	10800c04 	addi	r2,r2,48
  801e90:	e0fffd17 	ldw	r3,-12(fp)
  801e94:	1885883a 	add	r2,r3,r2
  801e98:	e0bffc15 	stw	r2,-16(fp)
  801e9c:	e0bffe17 	ldw	r2,-8(fp)
  801ea0:	1080004c 	andi	r2,r2,1
  801ea4:	10000a26 	beq	r2,zero,801ed0 <put_fat+0xfc>
  801ea8:	e0bffc17 	ldw	r2,-16(fp)
  801eac:	10800003 	ldbu	r2,0(r2)
  801eb0:	108003cc 	andi	r2,r2,15
  801eb4:	1007883a 	mov	r3,r2
  801eb8:	e0bfff17 	ldw	r2,-4(fp)
  801ebc:	10803fcc 	andi	r2,r2,255
  801ec0:	1004913a 	slli	r2,r2,4
  801ec4:	1884b03a 	or	r2,r3,r2
  801ec8:	1007883a 	mov	r3,r2
  801ecc:	00000206 	br	801ed8 <put_fat+0x104>
  801ed0:	e0bfff17 	ldw	r2,-4(fp)
  801ed4:	1007883a 	mov	r3,r2
  801ed8:	e0bffc17 	ldw	r2,-16(fp)
  801edc:	10c00005 	stb	r3,0(r2)
  801ee0:	e0bffb17 	ldw	r2,-20(fp)
  801ee4:	10800044 	addi	r2,r2,1
  801ee8:	e0bffb15 	stw	r2,-20(fp)
  801eec:	e0bffd17 	ldw	r2,-12(fp)
  801ef0:	00c00044 	movi	r3,1
  801ef4:	10c00105 	stb	r3,4(r2)
  801ef8:	e0bffd17 	ldw	r2,-12(fp)
  801efc:	10c00817 	ldw	r3,32(r2)
  801f00:	e0bffb17 	ldw	r2,-20(fp)
  801f04:	1004d27a 	srli	r2,r2,9
  801f08:	1885883a 	add	r2,r3,r2
  801f0c:	100b883a 	mov	r5,r2
  801f10:	e13ffd17 	ldw	r4,-12(fp)
  801f14:	080175c0 	call	80175c <move_window>
  801f18:	e0bffa15 	stw	r2,-24(fp)
  801f1c:	e0bffa17 	ldw	r2,-24(fp)
  801f20:	10007e1e 	bne	r2,zero,80211c <put_fat+0x348>
  801f24:	e0bffb17 	ldw	r2,-20(fp)
  801f28:	10807fcc 	andi	r2,r2,511
  801f2c:	10800c04 	addi	r2,r2,48
  801f30:	e0fffd17 	ldw	r3,-12(fp)
  801f34:	1885883a 	add	r2,r3,r2
  801f38:	e0bffc15 	stw	r2,-16(fp)
  801f3c:	e0bffe17 	ldw	r2,-8(fp)
  801f40:	1080004c 	andi	r2,r2,1
  801f44:	10000426 	beq	r2,zero,801f58 <put_fat+0x184>
  801f48:	e0bfff17 	ldw	r2,-4(fp)
  801f4c:	1004d13a 	srli	r2,r2,4
  801f50:	1007883a 	mov	r3,r2
  801f54:	00000b06 	br	801f84 <put_fat+0x1b0>
  801f58:	e0bffc17 	ldw	r2,-16(fp)
  801f5c:	10800003 	ldbu	r2,0(r2)
  801f60:	1007883a 	mov	r3,r2
  801f64:	00bffc04 	movi	r2,-16
  801f68:	1884703a 	and	r2,r3,r2
  801f6c:	1007883a 	mov	r3,r2
  801f70:	e0bfff17 	ldw	r2,-4(fp)
  801f74:	1004d23a 	srli	r2,r2,8
  801f78:	108003cc 	andi	r2,r2,15
  801f7c:	1884b03a 	or	r2,r3,r2
  801f80:	1007883a 	mov	r3,r2
  801f84:	e0bffc17 	ldw	r2,-16(fp)
  801f88:	10c00005 	stb	r3,0(r2)
  801f8c:	00006806 	br	802130 <put_fat+0x35c>
  801f90:	e0bffd17 	ldw	r2,-12(fp)
  801f94:	10c00817 	ldw	r3,32(r2)
  801f98:	e0bffe17 	ldw	r2,-8(fp)
  801f9c:	1004d23a 	srli	r2,r2,8
  801fa0:	1885883a 	add	r2,r3,r2
  801fa4:	100b883a 	mov	r5,r2
  801fa8:	e13ffd17 	ldw	r4,-12(fp)
  801fac:	080175c0 	call	80175c <move_window>
  801fb0:	e0bffa15 	stw	r2,-24(fp)
  801fb4:	e0bffa17 	ldw	r2,-24(fp)
  801fb8:	10005a1e 	bne	r2,zero,802124 <put_fat+0x350>
  801fbc:	e0bffe17 	ldw	r2,-8(fp)
  801fc0:	1085883a 	add	r2,r2,r2
  801fc4:	10807f8c 	andi	r2,r2,510
  801fc8:	10800c04 	addi	r2,r2,48
  801fcc:	e0fffd17 	ldw	r3,-12(fp)
  801fd0:	1885883a 	add	r2,r3,r2
  801fd4:	e0bffc15 	stw	r2,-16(fp)
  801fd8:	e0bfff17 	ldw	r2,-4(fp)
  801fdc:	1007883a 	mov	r3,r2
  801fe0:	e0bffc17 	ldw	r2,-16(fp)
  801fe4:	10c00005 	stb	r3,0(r2)
  801fe8:	e0bffc17 	ldw	r2,-16(fp)
  801fec:	10800044 	addi	r2,r2,1
  801ff0:	e0ffff17 	ldw	r3,-4(fp)
  801ff4:	18ffffcc 	andi	r3,r3,65535
  801ff8:	1807d23a 	srai	r3,r3,8
  801ffc:	10c00005 	stb	r3,0(r2)
  802000:	00004b06 	br	802130 <put_fat+0x35c>
  802004:	e0bffd17 	ldw	r2,-12(fp)
  802008:	10c00817 	ldw	r3,32(r2)
  80200c:	e0bffe17 	ldw	r2,-8(fp)
  802010:	1004d1fa 	srli	r2,r2,7
  802014:	1885883a 	add	r2,r3,r2
  802018:	100b883a 	mov	r5,r2
  80201c:	e13ffd17 	ldw	r4,-12(fp)
  802020:	080175c0 	call	80175c <move_window>
  802024:	e0bffa15 	stw	r2,-24(fp)
  802028:	e0bffa17 	ldw	r2,-24(fp)
  80202c:	10003f1e 	bne	r2,zero,80212c <put_fat+0x358>
  802030:	e0bffe17 	ldw	r2,-8(fp)
  802034:	1085883a 	add	r2,r2,r2
  802038:	1085883a 	add	r2,r2,r2
  80203c:	10807f0c 	andi	r2,r2,508
  802040:	10800c04 	addi	r2,r2,48
  802044:	e0fffd17 	ldw	r3,-12(fp)
  802048:	1885883a 	add	r2,r3,r2
  80204c:	e0bffc15 	stw	r2,-16(fp)
  802050:	e0bffc17 	ldw	r2,-16(fp)
  802054:	108000c4 	addi	r2,r2,3
  802058:	10800003 	ldbu	r2,0(r2)
  80205c:	10803fcc 	andi	r2,r2,255
  802060:	1006963a 	slli	r3,r2,24
  802064:	e0bffc17 	ldw	r2,-16(fp)
  802068:	10800084 	addi	r2,r2,2
  80206c:	10800003 	ldbu	r2,0(r2)
  802070:	10803fcc 	andi	r2,r2,255
  802074:	1004943a 	slli	r2,r2,16
  802078:	1884b03a 	or	r2,r3,r2
  80207c:	e0fffc17 	ldw	r3,-16(fp)
  802080:	18c00044 	addi	r3,r3,1
  802084:	18c00003 	ldbu	r3,0(r3)
  802088:	18c03fcc 	andi	r3,r3,255
  80208c:	1806923a 	slli	r3,r3,8
  802090:	10c6b03a 	or	r3,r2,r3
  802094:	e0bffc17 	ldw	r2,-16(fp)
  802098:	10800003 	ldbu	r2,0(r2)
  80209c:	10803fcc 	andi	r2,r2,255
  8020a0:	1884b03a 	or	r2,r3,r2
  8020a4:	10bc002c 	andhi	r2,r2,61440
  8020a8:	e0ffff17 	ldw	r3,-4(fp)
  8020ac:	1884b03a 	or	r2,r3,r2
  8020b0:	e0bfff15 	stw	r2,-4(fp)
  8020b4:	e0bfff17 	ldw	r2,-4(fp)
  8020b8:	1007883a 	mov	r3,r2
  8020bc:	e0bffc17 	ldw	r2,-16(fp)
  8020c0:	10c00005 	stb	r3,0(r2)
  8020c4:	e0bffc17 	ldw	r2,-16(fp)
  8020c8:	10800044 	addi	r2,r2,1
  8020cc:	e0ffff17 	ldw	r3,-4(fp)
  8020d0:	18ffffcc 	andi	r3,r3,65535
  8020d4:	1807d23a 	srai	r3,r3,8
  8020d8:	10c00005 	stb	r3,0(r2)
  8020dc:	e0bffc17 	ldw	r2,-16(fp)
  8020e0:	10800084 	addi	r2,r2,2
  8020e4:	e0ffff17 	ldw	r3,-4(fp)
  8020e8:	1806d43a 	srli	r3,r3,16
  8020ec:	10c00005 	stb	r3,0(r2)
  8020f0:	e0bffc17 	ldw	r2,-16(fp)
  8020f4:	108000c4 	addi	r2,r2,3
  8020f8:	e0ffff17 	ldw	r3,-4(fp)
  8020fc:	1806d63a 	srli	r3,r3,24
  802100:	10c00005 	stb	r3,0(r2)
  802104:	00000a06 	br	802130 <put_fat+0x35c>
  802108:	00800084 	movi	r2,2
  80210c:	e0bffa15 	stw	r2,-24(fp)
  802110:	00000706 	br	802130 <put_fat+0x35c>
  802114:	0001883a 	nop
  802118:	00000506 	br	802130 <put_fat+0x35c>
  80211c:	0001883a 	nop
  802120:	00000306 	br	802130 <put_fat+0x35c>
  802124:	0001883a 	nop
  802128:	00000106 	br	802130 <put_fat+0x35c>
  80212c:	0001883a 	nop
  802130:	e0bffd17 	ldw	r2,-12(fp)
  802134:	00c00044 	movi	r3,1
  802138:	10c00105 	stb	r3,4(r2)
  80213c:	e0bffa17 	ldw	r2,-24(fp)
  802140:	e037883a 	mov	sp,fp
  802144:	dfc00117 	ldw	ra,4(sp)
  802148:	df000017 	ldw	fp,0(sp)
  80214c:	dec00204 	addi	sp,sp,8
  802150:	f800283a 	ret

00802154 <remove_chain>:
  802154:	defffa04 	addi	sp,sp,-24
  802158:	dfc00515 	stw	ra,20(sp)
  80215c:	df000415 	stw	fp,16(sp)
  802160:	df000404 	addi	fp,sp,16
  802164:	e13ffe15 	stw	r4,-8(fp)
  802168:	e17fff15 	stw	r5,-4(fp)
  80216c:	e0bfff17 	ldw	r2,-4(fp)
  802170:	108000b0 	cmpltui	r2,r2,2
  802174:	1000041e 	bne	r2,zero,802188 <remove_chain+0x34>
  802178:	e0bffe17 	ldw	r2,-8(fp)
  80217c:	10800617 	ldw	r2,24(r2)
  802180:	e0ffff17 	ldw	r3,-4(fp)
  802184:	18800336 	bltu	r3,r2,802194 <remove_chain+0x40>
  802188:	00800084 	movi	r2,2
  80218c:	e0bffc15 	stw	r2,-16(fp)
  802190:	00003106 	br	802258 <remove_chain+0x104>
  802194:	e03ffc15 	stw	zero,-16(fp)
  802198:	00002706 	br	802238 <remove_chain+0xe4>
  80219c:	e17fff17 	ldw	r5,-4(fp)
  8021a0:	e13ffe17 	ldw	r4,-8(fp)
  8021a4:	0801b440 	call	801b44 <get_fat>
  8021a8:	e0bffd15 	stw	r2,-12(fp)
  8021ac:	e0bffd17 	ldw	r2,-12(fp)
  8021b0:	10002626 	beq	r2,zero,80224c <remove_chain+0xf8>
  8021b4:	e0bffd17 	ldw	r2,-12(fp)
  8021b8:	10800058 	cmpnei	r2,r2,1
  8021bc:	1000031e 	bne	r2,zero,8021cc <remove_chain+0x78>
  8021c0:	00800084 	movi	r2,2
  8021c4:	e0bffc15 	stw	r2,-16(fp)
  8021c8:	00002306 	br	802258 <remove_chain+0x104>
  8021cc:	e0bffd17 	ldw	r2,-12(fp)
  8021d0:	10bfffd8 	cmpnei	r2,r2,-1
  8021d4:	1000031e 	bne	r2,zero,8021e4 <remove_chain+0x90>
  8021d8:	00800044 	movi	r2,1
  8021dc:	e0bffc15 	stw	r2,-16(fp)
  8021e0:	00001d06 	br	802258 <remove_chain+0x104>
  8021e4:	000d883a 	mov	r6,zero
  8021e8:	e17fff17 	ldw	r5,-4(fp)
  8021ec:	e13ffe17 	ldw	r4,-8(fp)
  8021f0:	0801dd40 	call	801dd4 <put_fat>
  8021f4:	e0bffc15 	stw	r2,-16(fp)
  8021f8:	e0bffc17 	ldw	r2,-16(fp)
  8021fc:	1000151e 	bne	r2,zero,802254 <remove_chain+0x100>
  802200:	e0bffe17 	ldw	r2,-8(fp)
  802204:	10800417 	ldw	r2,16(r2)
  802208:	10bfffe0 	cmpeqi	r2,r2,-1
  80220c:	1000081e 	bne	r2,zero,802230 <remove_chain+0xdc>
  802210:	e0bffe17 	ldw	r2,-8(fp)
  802214:	10800417 	ldw	r2,16(r2)
  802218:	10c00044 	addi	r3,r2,1
  80221c:	e0bffe17 	ldw	r2,-8(fp)
  802220:	10c00415 	stw	r3,16(r2)
  802224:	e0bffe17 	ldw	r2,-8(fp)
  802228:	00c00044 	movi	r3,1
  80222c:	10c00145 	stb	r3,5(r2)
  802230:	e0bffd17 	ldw	r2,-12(fp)
  802234:	e0bfff15 	stw	r2,-4(fp)
  802238:	e0bffe17 	ldw	r2,-8(fp)
  80223c:	10800617 	ldw	r2,24(r2)
  802240:	e0ffff17 	ldw	r3,-4(fp)
  802244:	18bfd536 	bltu	r3,r2,80219c <__alt_data_end+0xff80219c>
  802248:	00000306 	br	802258 <remove_chain+0x104>
  80224c:	0001883a 	nop
  802250:	00000106 	br	802258 <remove_chain+0x104>
  802254:	0001883a 	nop
  802258:	e0bffc17 	ldw	r2,-16(fp)
  80225c:	e037883a 	mov	sp,fp
  802260:	dfc00117 	ldw	ra,4(sp)
  802264:	df000017 	ldw	fp,0(sp)
  802268:	dec00204 	addi	sp,sp,8
  80226c:	f800283a 	ret

00802270 <create_chain>:
  802270:	defff804 	addi	sp,sp,-32
  802274:	dfc00715 	stw	ra,28(sp)
  802278:	df000615 	stw	fp,24(sp)
  80227c:	df000604 	addi	fp,sp,24
  802280:	e13ffe15 	stw	r4,-8(fp)
  802284:	e17fff15 	stw	r5,-4(fp)
  802288:	e0bfff17 	ldw	r2,-4(fp)
  80228c:	10000c1e 	bne	r2,zero,8022c0 <create_chain+0x50>
  802290:	e0bffe17 	ldw	r2,-8(fp)
  802294:	10800317 	ldw	r2,12(r2)
  802298:	e0bffb15 	stw	r2,-20(fp)
  80229c:	e0bffb17 	ldw	r2,-20(fp)
  8022a0:	10000426 	beq	r2,zero,8022b4 <create_chain+0x44>
  8022a4:	e0bffe17 	ldw	r2,-8(fp)
  8022a8:	10800617 	ldw	r2,24(r2)
  8022ac:	e0fffb17 	ldw	r3,-20(fp)
  8022b0:	18801436 	bltu	r3,r2,802304 <create_chain+0x94>
  8022b4:	00800044 	movi	r2,1
  8022b8:	e0bffb15 	stw	r2,-20(fp)
  8022bc:	00001106 	br	802304 <create_chain+0x94>
  8022c0:	e17fff17 	ldw	r5,-4(fp)
  8022c4:	e13ffe17 	ldw	r4,-8(fp)
  8022c8:	0801b440 	call	801b44 <get_fat>
  8022cc:	e0bffd15 	stw	r2,-12(fp)
  8022d0:	e0bffd17 	ldw	r2,-12(fp)
  8022d4:	108000a8 	cmpgeui	r2,r2,2
  8022d8:	1000021e 	bne	r2,zero,8022e4 <create_chain+0x74>
  8022dc:	00800044 	movi	r2,1
  8022e0:	00005506 	br	802438 <create_chain+0x1c8>
  8022e4:	e0bffe17 	ldw	r2,-8(fp)
  8022e8:	10800617 	ldw	r2,24(r2)
  8022ec:	e0fffd17 	ldw	r3,-12(fp)
  8022f0:	1880022e 	bgeu	r3,r2,8022fc <create_chain+0x8c>
  8022f4:	e0bffd17 	ldw	r2,-12(fp)
  8022f8:	00004f06 	br	802438 <create_chain+0x1c8>
  8022fc:	e0bfff17 	ldw	r2,-4(fp)
  802300:	e0bffb15 	stw	r2,-20(fp)
  802304:	e0bffb17 	ldw	r2,-20(fp)
  802308:	e0bffa15 	stw	r2,-24(fp)
  80230c:	e0bffa17 	ldw	r2,-24(fp)
  802310:	10800044 	addi	r2,r2,1
  802314:	e0bffa15 	stw	r2,-24(fp)
  802318:	e0bffe17 	ldw	r2,-8(fp)
  80231c:	10800617 	ldw	r2,24(r2)
  802320:	e0fffa17 	ldw	r3,-24(fp)
  802324:	18800736 	bltu	r3,r2,802344 <create_chain+0xd4>
  802328:	00800084 	movi	r2,2
  80232c:	e0bffa15 	stw	r2,-24(fp)
  802330:	e0bffa17 	ldw	r2,-24(fp)
  802334:	e0fffb17 	ldw	r3,-20(fp)
  802338:	1880022e 	bgeu	r3,r2,802344 <create_chain+0xd4>
  80233c:	0005883a 	mov	r2,zero
  802340:	00003d06 	br	802438 <create_chain+0x1c8>
  802344:	e17ffa17 	ldw	r5,-24(fp)
  802348:	e13ffe17 	ldw	r4,-8(fp)
  80234c:	0801b440 	call	801b44 <get_fat>
  802350:	e0bffd15 	stw	r2,-12(fp)
  802354:	e0bffd17 	ldw	r2,-12(fp)
  802358:	10000d26 	beq	r2,zero,802390 <create_chain+0x120>
  80235c:	e0bffd17 	ldw	r2,-12(fp)
  802360:	10bfffe0 	cmpeqi	r2,r2,-1
  802364:	1000031e 	bne	r2,zero,802374 <create_chain+0x104>
  802368:	e0bffd17 	ldw	r2,-12(fp)
  80236c:	10800058 	cmpnei	r2,r2,1
  802370:	1000021e 	bne	r2,zero,80237c <create_chain+0x10c>
  802374:	e0bffd17 	ldw	r2,-12(fp)
  802378:	00002f06 	br	802438 <create_chain+0x1c8>
  80237c:	e0fffa17 	ldw	r3,-24(fp)
  802380:	e0bffb17 	ldw	r2,-20(fp)
  802384:	18bfe11e 	bne	r3,r2,80230c <__alt_data_end+0xff80230c>
  802388:	0005883a 	mov	r2,zero
  80238c:	00002a06 	br	802438 <create_chain+0x1c8>
  802390:	0001883a 	nop
  802394:	01840034 	movhi	r6,4096
  802398:	31bfffc4 	addi	r6,r6,-1
  80239c:	e17ffa17 	ldw	r5,-24(fp)
  8023a0:	e13ffe17 	ldw	r4,-8(fp)
  8023a4:	0801dd40 	call	801dd4 <put_fat>
  8023a8:	e0bffc15 	stw	r2,-16(fp)
  8023ac:	e0bffc17 	ldw	r2,-16(fp)
  8023b0:	1000071e 	bne	r2,zero,8023d0 <create_chain+0x160>
  8023b4:	e0bfff17 	ldw	r2,-4(fp)
  8023b8:	10000526 	beq	r2,zero,8023d0 <create_chain+0x160>
  8023bc:	e1bffa17 	ldw	r6,-24(fp)
  8023c0:	e17fff17 	ldw	r5,-4(fp)
  8023c4:	e13ffe17 	ldw	r4,-8(fp)
  8023c8:	0801dd40 	call	801dd4 <put_fat>
  8023cc:	e0bffc15 	stw	r2,-16(fp)
  8023d0:	e0bffc17 	ldw	r2,-16(fp)
  8023d4:	1000101e 	bne	r2,zero,802418 <create_chain+0x1a8>
  8023d8:	e0bffe17 	ldw	r2,-8(fp)
  8023dc:	e0fffa17 	ldw	r3,-24(fp)
  8023e0:	10c00315 	stw	r3,12(r2)
  8023e4:	e0bffe17 	ldw	r2,-8(fp)
  8023e8:	10800417 	ldw	r2,16(r2)
  8023ec:	10bfffe0 	cmpeqi	r2,r2,-1
  8023f0:	1000101e 	bne	r2,zero,802434 <create_chain+0x1c4>
  8023f4:	e0bffe17 	ldw	r2,-8(fp)
  8023f8:	10800417 	ldw	r2,16(r2)
  8023fc:	10ffffc4 	addi	r3,r2,-1
  802400:	e0bffe17 	ldw	r2,-8(fp)
  802404:	10c00415 	stw	r3,16(r2)
  802408:	e0bffe17 	ldw	r2,-8(fp)
  80240c:	00c00044 	movi	r3,1
  802410:	10c00145 	stb	r3,5(r2)
  802414:	00000706 	br	802434 <create_chain+0x1c4>
  802418:	e0bffc17 	ldw	r2,-16(fp)
  80241c:	10800058 	cmpnei	r2,r2,1
  802420:	1000021e 	bne	r2,zero,80242c <create_chain+0x1bc>
  802424:	00bfffc4 	movi	r2,-1
  802428:	00000106 	br	802430 <create_chain+0x1c0>
  80242c:	00800044 	movi	r2,1
  802430:	e0bffa15 	stw	r2,-24(fp)
  802434:	e0bffa17 	ldw	r2,-24(fp)
  802438:	e037883a 	mov	sp,fp
  80243c:	dfc00117 	ldw	ra,4(sp)
  802440:	df000017 	ldw	fp,0(sp)
  802444:	dec00204 	addi	sp,sp,8
  802448:	f800283a 	ret

0080244c <dir_sdi>:
  80244c:	defffa04 	addi	sp,sp,-24
  802450:	dfc00515 	stw	ra,20(sp)
  802454:	df000415 	stw	fp,16(sp)
  802458:	df000404 	addi	fp,sp,16
  80245c:	e13ffe15 	stw	r4,-8(fp)
  802460:	2805883a 	mov	r2,r5
  802464:	e0bfff0d 	sth	r2,-4(fp)
  802468:	e0bffe17 	ldw	r2,-8(fp)
  80246c:	e0ffff0b 	ldhu	r3,-4(fp)
  802470:	10c0018d 	sth	r3,6(r2)
  802474:	e0bffe17 	ldw	r2,-8(fp)
  802478:	10800217 	ldw	r2,8(r2)
  80247c:	e0bffc15 	stw	r2,-16(fp)
  802480:	e0bffc17 	ldw	r2,-16(fp)
  802484:	10800060 	cmpeqi	r2,r2,1
  802488:	1000051e 	bne	r2,zero,8024a0 <dir_sdi+0x54>
  80248c:	e0bffe17 	ldw	r2,-8(fp)
  802490:	10800017 	ldw	r2,0(r2)
  802494:	10800617 	ldw	r2,24(r2)
  802498:	e0fffc17 	ldw	r3,-16(fp)
  80249c:	18800236 	bltu	r3,r2,8024a8 <dir_sdi+0x5c>
  8024a0:	00800084 	movi	r2,2
  8024a4:	00005f06 	br	802624 <dir_sdi+0x1d8>
  8024a8:	e0bffc17 	ldw	r2,-16(fp)
  8024ac:	10000a1e 	bne	r2,zero,8024d8 <dir_sdi+0x8c>
  8024b0:	e0bffe17 	ldw	r2,-8(fp)
  8024b4:	10800017 	ldw	r2,0(r2)
  8024b8:	10800003 	ldbu	r2,0(r2)
  8024bc:	10803fcc 	andi	r2,r2,255
  8024c0:	108000d8 	cmpnei	r2,r2,3
  8024c4:	1000041e 	bne	r2,zero,8024d8 <dir_sdi+0x8c>
  8024c8:	e0bffe17 	ldw	r2,-8(fp)
  8024cc:	10800017 	ldw	r2,0(r2)
  8024d0:	10800917 	ldw	r2,36(r2)
  8024d4:	e0bffc15 	stw	r2,-16(fp)
  8024d8:	e0bffc17 	ldw	r2,-16(fp)
  8024dc:	1000151e 	bne	r2,zero,802534 <dir_sdi+0xe8>
  8024e0:	e0bffe17 	ldw	r2,-8(fp)
  8024e4:	e0fffc17 	ldw	r3,-16(fp)
  8024e8:	10c00315 	stw	r3,12(r2)
  8024ec:	e0bffe17 	ldw	r2,-8(fp)
  8024f0:	10800017 	ldw	r2,0(r2)
  8024f4:	1080020b 	ldhu	r2,8(r2)
  8024f8:	10bfffcc 	andi	r2,r2,65535
  8024fc:	e0ffff0b 	ldhu	r3,-4(fp)
  802500:	18800236 	bltu	r3,r2,80250c <dir_sdi+0xc0>
  802504:	00800084 	movi	r2,2
  802508:	00004606 	br	802624 <dir_sdi+0x1d8>
  80250c:	e0bffe17 	ldw	r2,-8(fp)
  802510:	10800017 	ldw	r2,0(r2)
  802514:	10c00917 	ldw	r3,36(r2)
  802518:	e0bfff0b 	ldhu	r2,-4(fp)
  80251c:	1004d13a 	srli	r2,r2,4
  802520:	10bfffcc 	andi	r2,r2,65535
  802524:	1887883a 	add	r3,r3,r2
  802528:	e0bffe17 	ldw	r2,-8(fp)
  80252c:	10c00415 	stw	r3,16(r2)
  802530:	00003206 	br	8025fc <dir_sdi+0x1b0>
  802534:	e0bffe17 	ldw	r2,-8(fp)
  802538:	10800017 	ldw	r2,0(r2)
  80253c:	10800083 	ldbu	r2,2(r2)
  802540:	10803fcc 	andi	r2,r2,255
  802544:	1004913a 	slli	r2,r2,4
  802548:	e0bffd0d 	sth	r2,-12(fp)
  80254c:	00001906 	br	8025b4 <dir_sdi+0x168>
  802550:	e0bffe17 	ldw	r2,-8(fp)
  802554:	10800017 	ldw	r2,0(r2)
  802558:	e17ffc17 	ldw	r5,-16(fp)
  80255c:	1009883a 	mov	r4,r2
  802560:	0801b440 	call	801b44 <get_fat>
  802564:	e0bffc15 	stw	r2,-16(fp)
  802568:	e0bffc17 	ldw	r2,-16(fp)
  80256c:	10bfffd8 	cmpnei	r2,r2,-1
  802570:	1000021e 	bne	r2,zero,80257c <dir_sdi+0x130>
  802574:	00800044 	movi	r2,1
  802578:	00002a06 	br	802624 <dir_sdi+0x1d8>
  80257c:	e0bffc17 	ldw	r2,-16(fp)
  802580:	108000b0 	cmpltui	r2,r2,2
  802584:	1000051e 	bne	r2,zero,80259c <dir_sdi+0x150>
  802588:	e0bffe17 	ldw	r2,-8(fp)
  80258c:	10800017 	ldw	r2,0(r2)
  802590:	10800617 	ldw	r2,24(r2)
  802594:	e0fffc17 	ldw	r3,-16(fp)
  802598:	18800236 	bltu	r3,r2,8025a4 <dir_sdi+0x158>
  80259c:	00800084 	movi	r2,2
  8025a0:	00002006 	br	802624 <dir_sdi+0x1d8>
  8025a4:	e0ffff0b 	ldhu	r3,-4(fp)
  8025a8:	e0bffd0b 	ldhu	r2,-12(fp)
  8025ac:	1885c83a 	sub	r2,r3,r2
  8025b0:	e0bfff0d 	sth	r2,-4(fp)
  8025b4:	e0ffff0b 	ldhu	r3,-4(fp)
  8025b8:	e0bffd0b 	ldhu	r2,-12(fp)
  8025bc:	18bfe42e 	bgeu	r3,r2,802550 <__alt_data_end+0xff802550>
  8025c0:	e0bffe17 	ldw	r2,-8(fp)
  8025c4:	e0fffc17 	ldw	r3,-16(fp)
  8025c8:	10c00315 	stw	r3,12(r2)
  8025cc:	e0bffe17 	ldw	r2,-8(fp)
  8025d0:	10800017 	ldw	r2,0(r2)
  8025d4:	e17ffc17 	ldw	r5,-16(fp)
  8025d8:	1009883a 	mov	r4,r2
  8025dc:	0801ad80 	call	801ad8 <clust2sect>
  8025e0:	1007883a 	mov	r3,r2
  8025e4:	e0bfff0b 	ldhu	r2,-4(fp)
  8025e8:	1004d13a 	srli	r2,r2,4
  8025ec:	10bfffcc 	andi	r2,r2,65535
  8025f0:	1887883a 	add	r3,r3,r2
  8025f4:	e0bffe17 	ldw	r2,-8(fp)
  8025f8:	10c00415 	stw	r3,16(r2)
  8025fc:	e0bffe17 	ldw	r2,-8(fp)
  802600:	10800017 	ldw	r2,0(r2)
  802604:	10c00c04 	addi	r3,r2,48
  802608:	e0bfff0b 	ldhu	r2,-4(fp)
  80260c:	108003cc 	andi	r2,r2,15
  802610:	1004917a 	slli	r2,r2,5
  802614:	1887883a 	add	r3,r3,r2
  802618:	e0bffe17 	ldw	r2,-8(fp)
  80261c:	10c00515 	stw	r3,20(r2)
  802620:	0005883a 	mov	r2,zero
  802624:	e037883a 	mov	sp,fp
  802628:	dfc00117 	ldw	ra,4(sp)
  80262c:	df000017 	ldw	fp,0(sp)
  802630:	dec00204 	addi	sp,sp,8
  802634:	f800283a 	ret

00802638 <dir_next>:
  802638:	defff904 	addi	sp,sp,-28
  80263c:	dfc00615 	stw	ra,24(sp)
  802640:	df000515 	stw	fp,20(sp)
  802644:	dc000415 	stw	r16,16(sp)
  802648:	df000504 	addi	fp,sp,20
  80264c:	e13ffd15 	stw	r4,-12(fp)
  802650:	e17ffe15 	stw	r5,-8(fp)
  802654:	e0bffd17 	ldw	r2,-12(fp)
  802658:	1080018b 	ldhu	r2,6(r2)
  80265c:	10800044 	addi	r2,r2,1
  802660:	e0bffc8d 	sth	r2,-14(fp)
  802664:	e0bffc8b 	ldhu	r2,-14(fp)
  802668:	10000326 	beq	r2,zero,802678 <dir_next+0x40>
  80266c:	e0bffd17 	ldw	r2,-12(fp)
  802670:	10800417 	ldw	r2,16(r2)
  802674:	1000021e 	bne	r2,zero,802680 <dir_next+0x48>
  802678:	00800104 	movi	r2,4
  80267c:	0000a206 	br	802908 <dir_next+0x2d0>
  802680:	e0bffc8b 	ldhu	r2,-14(fp)
  802684:	108003cc 	andi	r2,r2,15
  802688:	10bfffcc 	andi	r2,r2,65535
  80268c:	1000911e 	bne	r2,zero,8028d4 <dir_next+0x29c>
  802690:	e0bffd17 	ldw	r2,-12(fp)
  802694:	10800417 	ldw	r2,16(r2)
  802698:	10c00044 	addi	r3,r2,1
  80269c:	e0bffd17 	ldw	r2,-12(fp)
  8026a0:	10c00415 	stw	r3,16(r2)
  8026a4:	e0bffd17 	ldw	r2,-12(fp)
  8026a8:	10800317 	ldw	r2,12(r2)
  8026ac:	1000081e 	bne	r2,zero,8026d0 <dir_next+0x98>
  8026b0:	e0bffd17 	ldw	r2,-12(fp)
  8026b4:	10800017 	ldw	r2,0(r2)
  8026b8:	1080020b 	ldhu	r2,8(r2)
  8026bc:	10bfffcc 	andi	r2,r2,65535
  8026c0:	e0fffc8b 	ldhu	r3,-14(fp)
  8026c4:	18808336 	bltu	r3,r2,8028d4 <dir_next+0x29c>
  8026c8:	00800104 	movi	r2,4
  8026cc:	00008e06 	br	802908 <dir_next+0x2d0>
  8026d0:	e0bffc8b 	ldhu	r2,-14(fp)
  8026d4:	1004d13a 	srli	r2,r2,4
  8026d8:	10bfffcc 	andi	r2,r2,65535
  8026dc:	e0fffd17 	ldw	r3,-12(fp)
  8026e0:	18c00017 	ldw	r3,0(r3)
  8026e4:	18c00083 	ldbu	r3,2(r3)
  8026e8:	18c03fcc 	andi	r3,r3,255
  8026ec:	18ffffc4 	addi	r3,r3,-1
  8026f0:	10c4703a 	and	r2,r2,r3
  8026f4:	1000771e 	bne	r2,zero,8028d4 <dir_next+0x29c>
  8026f8:	e0bffd17 	ldw	r2,-12(fp)
  8026fc:	10c00017 	ldw	r3,0(r2)
  802700:	e0bffd17 	ldw	r2,-12(fp)
  802704:	10800317 	ldw	r2,12(r2)
  802708:	100b883a 	mov	r5,r2
  80270c:	1809883a 	mov	r4,r3
  802710:	0801b440 	call	801b44 <get_fat>
  802714:	e0bffb15 	stw	r2,-20(fp)
  802718:	e0bffb17 	ldw	r2,-20(fp)
  80271c:	108000a8 	cmpgeui	r2,r2,2
  802720:	1000021e 	bne	r2,zero,80272c <dir_next+0xf4>
  802724:	00800084 	movi	r2,2
  802728:	00007706 	br	802908 <dir_next+0x2d0>
  80272c:	e0bffb17 	ldw	r2,-20(fp)
  802730:	10bfffd8 	cmpnei	r2,r2,-1
  802734:	1000021e 	bne	r2,zero,802740 <dir_next+0x108>
  802738:	00800044 	movi	r2,1
  80273c:	00007206 	br	802908 <dir_next+0x2d0>
  802740:	e0bffd17 	ldw	r2,-12(fp)
  802744:	10800017 	ldw	r2,0(r2)
  802748:	10800617 	ldw	r2,24(r2)
  80274c:	e0fffb17 	ldw	r3,-20(fp)
  802750:	18805536 	bltu	r3,r2,8028a8 <dir_next+0x270>
  802754:	e0bffe17 	ldw	r2,-8(fp)
  802758:	1000021e 	bne	r2,zero,802764 <dir_next+0x12c>
  80275c:	00800104 	movi	r2,4
  802760:	00006906 	br	802908 <dir_next+0x2d0>
  802764:	e0bffd17 	ldw	r2,-12(fp)
  802768:	10c00017 	ldw	r3,0(r2)
  80276c:	e0bffd17 	ldw	r2,-12(fp)
  802770:	10800317 	ldw	r2,12(r2)
  802774:	100b883a 	mov	r5,r2
  802778:	1809883a 	mov	r4,r3
  80277c:	08022700 	call	802270 <create_chain>
  802780:	e0bffb15 	stw	r2,-20(fp)
  802784:	e0bffb17 	ldw	r2,-20(fp)
  802788:	1000021e 	bne	r2,zero,802794 <dir_next+0x15c>
  80278c:	008001c4 	movi	r2,7
  802790:	00005d06 	br	802908 <dir_next+0x2d0>
  802794:	e0bffb17 	ldw	r2,-20(fp)
  802798:	10800058 	cmpnei	r2,r2,1
  80279c:	1000021e 	bne	r2,zero,8027a8 <dir_next+0x170>
  8027a0:	00800084 	movi	r2,2
  8027a4:	00005806 	br	802908 <dir_next+0x2d0>
  8027a8:	e0bffb17 	ldw	r2,-20(fp)
  8027ac:	10bfffd8 	cmpnei	r2,r2,-1
  8027b0:	1000021e 	bne	r2,zero,8027bc <dir_next+0x184>
  8027b4:	00800044 	movi	r2,1
  8027b8:	00005306 	br	802908 <dir_next+0x2d0>
  8027bc:	e0bffd17 	ldw	r2,-12(fp)
  8027c0:	10800017 	ldw	r2,0(r2)
  8027c4:	000b883a 	mov	r5,zero
  8027c8:	1009883a 	mov	r4,r2
  8027cc:	080175c0 	call	80175c <move_window>
  8027d0:	10000226 	beq	r2,zero,8027dc <dir_next+0x1a4>
  8027d4:	00800044 	movi	r2,1
  8027d8:	00004b06 	br	802908 <dir_next+0x2d0>
  8027dc:	e0bffd17 	ldw	r2,-12(fp)
  8027e0:	10800017 	ldw	r2,0(r2)
  8027e4:	10800c04 	addi	r2,r2,48
  8027e8:	01808004 	movi	r6,512
  8027ec:	000b883a 	mov	r5,zero
  8027f0:	1009883a 	mov	r4,r2
  8027f4:	08015f80 	call	8015f8 <mem_set>
  8027f8:	e0bffd17 	ldw	r2,-12(fp)
  8027fc:	14000017 	ldw	r16,0(r2)
  802800:	e0bffd17 	ldw	r2,-12(fp)
  802804:	10800017 	ldw	r2,0(r2)
  802808:	e17ffb17 	ldw	r5,-20(fp)
  80280c:	1009883a 	mov	r4,r2
  802810:	0801ad80 	call	801ad8 <clust2sect>
  802814:	80800b15 	stw	r2,44(r16)
  802818:	e03ffc05 	stb	zero,-16(fp)
  80281c:	00001406 	br	802870 <dir_next+0x238>
  802820:	e0bffd17 	ldw	r2,-12(fp)
  802824:	10800017 	ldw	r2,0(r2)
  802828:	00c00044 	movi	r3,1
  80282c:	10c00105 	stb	r3,4(r2)
  802830:	e0bffd17 	ldw	r2,-12(fp)
  802834:	10800017 	ldw	r2,0(r2)
  802838:	000b883a 	mov	r5,zero
  80283c:	1009883a 	mov	r4,r2
  802840:	080175c0 	call	80175c <move_window>
  802844:	10000226 	beq	r2,zero,802850 <dir_next+0x218>
  802848:	00800044 	movi	r2,1
  80284c:	00002e06 	br	802908 <dir_next+0x2d0>
  802850:	e0bffd17 	ldw	r2,-12(fp)
  802854:	10800017 	ldw	r2,0(r2)
  802858:	10c00b17 	ldw	r3,44(r2)
  80285c:	18c00044 	addi	r3,r3,1
  802860:	10c00b15 	stw	r3,44(r2)
  802864:	e0bffc03 	ldbu	r2,-16(fp)
  802868:	10800044 	addi	r2,r2,1
  80286c:	e0bffc05 	stb	r2,-16(fp)
  802870:	e0bffd17 	ldw	r2,-12(fp)
  802874:	10800017 	ldw	r2,0(r2)
  802878:	10800083 	ldbu	r2,2(r2)
  80287c:	10803fcc 	andi	r2,r2,255
  802880:	e0fffc03 	ldbu	r3,-16(fp)
  802884:	18bfe636 	bltu	r3,r2,802820 <__alt_data_end+0xff802820>
  802888:	e0bffd17 	ldw	r2,-12(fp)
  80288c:	10800017 	ldw	r2,0(r2)
  802890:	e0fffd17 	ldw	r3,-12(fp)
  802894:	18c00017 	ldw	r3,0(r3)
  802898:	19000b17 	ldw	r4,44(r3)
  80289c:	e0fffc03 	ldbu	r3,-16(fp)
  8028a0:	20c7c83a 	sub	r3,r4,r3
  8028a4:	10c00b15 	stw	r3,44(r2)
  8028a8:	e0bffd17 	ldw	r2,-12(fp)
  8028ac:	e0fffb17 	ldw	r3,-20(fp)
  8028b0:	10c00315 	stw	r3,12(r2)
  8028b4:	e0bffd17 	ldw	r2,-12(fp)
  8028b8:	10800017 	ldw	r2,0(r2)
  8028bc:	e17ffb17 	ldw	r5,-20(fp)
  8028c0:	1009883a 	mov	r4,r2
  8028c4:	0801ad80 	call	801ad8 <clust2sect>
  8028c8:	1007883a 	mov	r3,r2
  8028cc:	e0bffd17 	ldw	r2,-12(fp)
  8028d0:	10c00415 	stw	r3,16(r2)
  8028d4:	e0bffd17 	ldw	r2,-12(fp)
  8028d8:	e0fffc8b 	ldhu	r3,-14(fp)
  8028dc:	10c0018d 	sth	r3,6(r2)
  8028e0:	e0bffd17 	ldw	r2,-12(fp)
  8028e4:	10800017 	ldw	r2,0(r2)
  8028e8:	10c00c04 	addi	r3,r2,48
  8028ec:	e0bffc8b 	ldhu	r2,-14(fp)
  8028f0:	108003cc 	andi	r2,r2,15
  8028f4:	1004917a 	slli	r2,r2,5
  8028f8:	1887883a 	add	r3,r3,r2
  8028fc:	e0bffd17 	ldw	r2,-12(fp)
  802900:	10c00515 	stw	r3,20(r2)
  802904:	0005883a 	mov	r2,zero
  802908:	e6ffff04 	addi	sp,fp,-4
  80290c:	dfc00217 	ldw	ra,8(sp)
  802910:	df000117 	ldw	fp,4(sp)
  802914:	dc000017 	ldw	r16,0(sp)
  802918:	dec00304 	addi	sp,sp,12
  80291c:	f800283a 	ret

00802920 <dir_find>:
  802920:	defffa04 	addi	sp,sp,-24
  802924:	dfc00515 	stw	ra,20(sp)
  802928:	df000415 	stw	fp,16(sp)
  80292c:	df000404 	addi	fp,sp,16
  802930:	e13fff15 	stw	r4,-4(fp)
  802934:	000b883a 	mov	r5,zero
  802938:	e13fff17 	ldw	r4,-4(fp)
  80293c:	080244c0 	call	80244c <dir_sdi>
  802940:	e0bffc15 	stw	r2,-16(fp)
  802944:	e0bffc17 	ldw	r2,-16(fp)
  802948:	10000226 	beq	r2,zero,802954 <dir_find+0x34>
  80294c:	e0bffc17 	ldw	r2,-16(fp)
  802950:	00002d06 	br	802a08 <dir_find+0xe8>
  802954:	e0bfff17 	ldw	r2,-4(fp)
  802958:	10c00017 	ldw	r3,0(r2)
  80295c:	e0bfff17 	ldw	r2,-4(fp)
  802960:	10800417 	ldw	r2,16(r2)
  802964:	100b883a 	mov	r5,r2
  802968:	1809883a 	mov	r4,r3
  80296c:	080175c0 	call	80175c <move_window>
  802970:	e0bffc15 	stw	r2,-16(fp)
  802974:	e0bffc17 	ldw	r2,-16(fp)
  802978:	10001f1e 	bne	r2,zero,8029f8 <dir_find+0xd8>
  80297c:	e0bfff17 	ldw	r2,-4(fp)
  802980:	10800517 	ldw	r2,20(r2)
  802984:	e0bffd15 	stw	r2,-12(fp)
  802988:	e0bffd17 	ldw	r2,-12(fp)
  80298c:	10800003 	ldbu	r2,0(r2)
  802990:	e0bffe05 	stb	r2,-8(fp)
  802994:	e0bffe03 	ldbu	r2,-8(fp)
  802998:	1000031e 	bne	r2,zero,8029a8 <dir_find+0x88>
  80299c:	00800104 	movi	r2,4
  8029a0:	e0bffc15 	stw	r2,-16(fp)
  8029a4:	00001706 	br	802a04 <dir_find+0xe4>
  8029a8:	e0bffd17 	ldw	r2,-12(fp)
  8029ac:	108002c4 	addi	r2,r2,11
  8029b0:	10800003 	ldbu	r2,0(r2)
  8029b4:	10803fcc 	andi	r2,r2,255
  8029b8:	1080020c 	andi	r2,r2,8
  8029bc:	1000071e 	bne	r2,zero,8029dc <dir_find+0xbc>
  8029c0:	e0bfff17 	ldw	r2,-4(fp)
  8029c4:	10800617 	ldw	r2,24(r2)
  8029c8:	018002c4 	movi	r6,11
  8029cc:	100b883a 	mov	r5,r2
  8029d0:	e13ffd17 	ldw	r4,-12(fp)
  8029d4:	08016540 	call	801654 <mem_cmp>
  8029d8:	10000926 	beq	r2,zero,802a00 <dir_find+0xe0>
  8029dc:	000b883a 	mov	r5,zero
  8029e0:	e13fff17 	ldw	r4,-4(fp)
  8029e4:	08026380 	call	802638 <dir_next>
  8029e8:	e0bffc15 	stw	r2,-16(fp)
  8029ec:	e0bffc17 	ldw	r2,-16(fp)
  8029f0:	103fd826 	beq	r2,zero,802954 <__alt_data_end+0xff802954>
  8029f4:	00000306 	br	802a04 <dir_find+0xe4>
  8029f8:	0001883a 	nop
  8029fc:	00000106 	br	802a04 <dir_find+0xe4>
  802a00:	0001883a 	nop
  802a04:	e0bffc17 	ldw	r2,-16(fp)
  802a08:	e037883a 	mov	sp,fp
  802a0c:	dfc00117 	ldw	ra,4(sp)
  802a10:	df000017 	ldw	fp,0(sp)
  802a14:	dec00204 	addi	sp,sp,8
  802a18:	f800283a 	ret

00802a1c <dir_read>:
  802a1c:	defffa04 	addi	sp,sp,-24
  802a20:	dfc00515 	stw	ra,20(sp)
  802a24:	df000415 	stw	fp,16(sp)
  802a28:	df000404 	addi	fp,sp,16
  802a2c:	e13fff15 	stw	r4,-4(fp)
  802a30:	00800104 	movi	r2,4
  802a34:	e0bffc15 	stw	r2,-16(fp)
  802a38:	00002706 	br	802ad8 <dir_read+0xbc>
  802a3c:	e0bfff17 	ldw	r2,-4(fp)
  802a40:	10c00017 	ldw	r3,0(r2)
  802a44:	e0bfff17 	ldw	r2,-4(fp)
  802a48:	10800417 	ldw	r2,16(r2)
  802a4c:	100b883a 	mov	r5,r2
  802a50:	1809883a 	mov	r4,r3
  802a54:	080175c0 	call	80175c <move_window>
  802a58:	e0bffc15 	stw	r2,-16(fp)
  802a5c:	e0bffc17 	ldw	r2,-16(fp)
  802a60:	1000211e 	bne	r2,zero,802ae8 <dir_read+0xcc>
  802a64:	e0bfff17 	ldw	r2,-4(fp)
  802a68:	10800517 	ldw	r2,20(r2)
  802a6c:	e0bffd15 	stw	r2,-12(fp)
  802a70:	e0bffd17 	ldw	r2,-12(fp)
  802a74:	10800003 	ldbu	r2,0(r2)
  802a78:	e0bffe05 	stb	r2,-8(fp)
  802a7c:	e0bffe03 	ldbu	r2,-8(fp)
  802a80:	1000031e 	bne	r2,zero,802a90 <dir_read+0x74>
  802a84:	00800104 	movi	r2,4
  802a88:	e0bffc15 	stw	r2,-16(fp)
  802a8c:	00001b06 	br	802afc <dir_read+0xe0>
  802a90:	e0bffe03 	ldbu	r2,-8(fp)
  802a94:	10803960 	cmpeqi	r2,r2,229
  802a98:	1000091e 	bne	r2,zero,802ac0 <dir_read+0xa4>
  802a9c:	e0bffe03 	ldbu	r2,-8(fp)
  802aa0:	10800ba0 	cmpeqi	r2,r2,46
  802aa4:	1000061e 	bne	r2,zero,802ac0 <dir_read+0xa4>
  802aa8:	e0bffd17 	ldw	r2,-12(fp)
  802aac:	108002c4 	addi	r2,r2,11
  802ab0:	10800003 	ldbu	r2,0(r2)
  802ab4:	10803fcc 	andi	r2,r2,255
  802ab8:	1080020c 	andi	r2,r2,8
  802abc:	10000c26 	beq	r2,zero,802af0 <dir_read+0xd4>
  802ac0:	000b883a 	mov	r5,zero
  802ac4:	e13fff17 	ldw	r4,-4(fp)
  802ac8:	08026380 	call	802638 <dir_next>
  802acc:	e0bffc15 	stw	r2,-16(fp)
  802ad0:	e0bffc17 	ldw	r2,-16(fp)
  802ad4:	1000081e 	bne	r2,zero,802af8 <dir_read+0xdc>
  802ad8:	e0bfff17 	ldw	r2,-4(fp)
  802adc:	10800417 	ldw	r2,16(r2)
  802ae0:	103fd61e 	bne	r2,zero,802a3c <__alt_data_end+0xff802a3c>
  802ae4:	00000506 	br	802afc <dir_read+0xe0>
  802ae8:	0001883a 	nop
  802aec:	00000306 	br	802afc <dir_read+0xe0>
  802af0:	0001883a 	nop
  802af4:	00000106 	br	802afc <dir_read+0xe0>
  802af8:	0001883a 	nop
  802afc:	e0bffc17 	ldw	r2,-16(fp)
  802b00:	10000226 	beq	r2,zero,802b0c <dir_read+0xf0>
  802b04:	e0bfff17 	ldw	r2,-4(fp)
  802b08:	10000415 	stw	zero,16(r2)
  802b0c:	e0bffc17 	ldw	r2,-16(fp)
  802b10:	e037883a 	mov	sp,fp
  802b14:	dfc00117 	ldw	ra,4(sp)
  802b18:	df000017 	ldw	fp,0(sp)
  802b1c:	dec00204 	addi	sp,sp,8
  802b20:	f800283a 	ret

00802b24 <dir_register>:
  802b24:	defffa04 	addi	sp,sp,-24
  802b28:	dfc00515 	stw	ra,20(sp)
  802b2c:	df000415 	stw	fp,16(sp)
  802b30:	df000404 	addi	fp,sp,16
  802b34:	e13fff15 	stw	r4,-4(fp)
  802b38:	000b883a 	mov	r5,zero
  802b3c:	e13fff17 	ldw	r4,-4(fp)
  802b40:	080244c0 	call	80244c <dir_sdi>
  802b44:	e0bffc15 	stw	r2,-16(fp)
  802b48:	e0bffc17 	ldw	r2,-16(fp)
  802b4c:	10001b1e 	bne	r2,zero,802bbc <dir_register+0x98>
  802b50:	e0bfff17 	ldw	r2,-4(fp)
  802b54:	10c00017 	ldw	r3,0(r2)
  802b58:	e0bfff17 	ldw	r2,-4(fp)
  802b5c:	10800417 	ldw	r2,16(r2)
  802b60:	100b883a 	mov	r5,r2
  802b64:	1809883a 	mov	r4,r3
  802b68:	080175c0 	call	80175c <move_window>
  802b6c:	e0bffc15 	stw	r2,-16(fp)
  802b70:	e0bffc17 	ldw	r2,-16(fp)
  802b74:	1000101e 	bne	r2,zero,802bb8 <dir_register+0x94>
  802b78:	e0bfff17 	ldw	r2,-4(fp)
  802b7c:	10800517 	ldw	r2,20(r2)
  802b80:	10800003 	ldbu	r2,0(r2)
  802b84:	e0bffd05 	stb	r2,-12(fp)
  802b88:	e0bffd03 	ldbu	r2,-12(fp)
  802b8c:	10803960 	cmpeqi	r2,r2,229
  802b90:	10000a1e 	bne	r2,zero,802bbc <dir_register+0x98>
  802b94:	e0bffd03 	ldbu	r2,-12(fp)
  802b98:	10000826 	beq	r2,zero,802bbc <dir_register+0x98>
  802b9c:	01400044 	movi	r5,1
  802ba0:	e13fff17 	ldw	r4,-4(fp)
  802ba4:	08026380 	call	802638 <dir_next>
  802ba8:	e0bffc15 	stw	r2,-16(fp)
  802bac:	e0bffc17 	ldw	r2,-16(fp)
  802bb0:	103fe726 	beq	r2,zero,802b50 <__alt_data_end+0xff802b50>
  802bb4:	00000106 	br	802bbc <dir_register+0x98>
  802bb8:	0001883a 	nop
  802bbc:	e0bffc17 	ldw	r2,-16(fp)
  802bc0:	10001b1e 	bne	r2,zero,802c30 <dir_register+0x10c>
  802bc4:	e0bfff17 	ldw	r2,-4(fp)
  802bc8:	10c00017 	ldw	r3,0(r2)
  802bcc:	e0bfff17 	ldw	r2,-4(fp)
  802bd0:	10800417 	ldw	r2,16(r2)
  802bd4:	100b883a 	mov	r5,r2
  802bd8:	1809883a 	mov	r4,r3
  802bdc:	080175c0 	call	80175c <move_window>
  802be0:	e0bffc15 	stw	r2,-16(fp)
  802be4:	e0bffc17 	ldw	r2,-16(fp)
  802be8:	1000111e 	bne	r2,zero,802c30 <dir_register+0x10c>
  802bec:	e0bfff17 	ldw	r2,-4(fp)
  802bf0:	10800517 	ldw	r2,20(r2)
  802bf4:	e0bffe15 	stw	r2,-8(fp)
  802bf8:	01800804 	movi	r6,32
  802bfc:	000b883a 	mov	r5,zero
  802c00:	e13ffe17 	ldw	r4,-8(fp)
  802c04:	08015f80 	call	8015f8 <mem_set>
  802c08:	e0bfff17 	ldw	r2,-4(fp)
  802c0c:	10800617 	ldw	r2,24(r2)
  802c10:	018002c4 	movi	r6,11
  802c14:	100b883a 	mov	r5,r2
  802c18:	e13ffe17 	ldw	r4,-8(fp)
  802c1c:	08015880 	call	801588 <mem_cpy>
  802c20:	e0bfff17 	ldw	r2,-4(fp)
  802c24:	10800017 	ldw	r2,0(r2)
  802c28:	00c00044 	movi	r3,1
  802c2c:	10c00105 	stb	r3,4(r2)
  802c30:	e0bffc17 	ldw	r2,-16(fp)
  802c34:	e037883a 	mov	sp,fp
  802c38:	dfc00117 	ldw	ra,4(sp)
  802c3c:	df000017 	ldw	fp,0(sp)
  802c40:	dec00204 	addi	sp,sp,8
  802c44:	f800283a 	ret

00802c48 <dir_remove>:
  802c48:	defffc04 	addi	sp,sp,-16
  802c4c:	dfc00315 	stw	ra,12(sp)
  802c50:	df000215 	stw	fp,8(sp)
  802c54:	df000204 	addi	fp,sp,8
  802c58:	e13fff15 	stw	r4,-4(fp)
  802c5c:	e0bfff17 	ldw	r2,-4(fp)
  802c60:	1080018b 	ldhu	r2,6(r2)
  802c64:	10bfffcc 	andi	r2,r2,65535
  802c68:	100b883a 	mov	r5,r2
  802c6c:	e13fff17 	ldw	r4,-4(fp)
  802c70:	080244c0 	call	80244c <dir_sdi>
  802c74:	e0bffe15 	stw	r2,-8(fp)
  802c78:	e0bffe17 	ldw	r2,-8(fp)
  802c7c:	1000121e 	bne	r2,zero,802cc8 <dir_remove+0x80>
  802c80:	e0bfff17 	ldw	r2,-4(fp)
  802c84:	10c00017 	ldw	r3,0(r2)
  802c88:	e0bfff17 	ldw	r2,-4(fp)
  802c8c:	10800417 	ldw	r2,16(r2)
  802c90:	100b883a 	mov	r5,r2
  802c94:	1809883a 	mov	r4,r3
  802c98:	080175c0 	call	80175c <move_window>
  802c9c:	e0bffe15 	stw	r2,-8(fp)
  802ca0:	e0bffe17 	ldw	r2,-8(fp)
  802ca4:	1000081e 	bne	r2,zero,802cc8 <dir_remove+0x80>
  802ca8:	e0bfff17 	ldw	r2,-4(fp)
  802cac:	10800517 	ldw	r2,20(r2)
  802cb0:	00fff944 	movi	r3,-27
  802cb4:	10c00005 	stb	r3,0(r2)
  802cb8:	e0bfff17 	ldw	r2,-4(fp)
  802cbc:	10800017 	ldw	r2,0(r2)
  802cc0:	00c00044 	movi	r3,1
  802cc4:	10c00105 	stb	r3,4(r2)
  802cc8:	e0bffe17 	ldw	r2,-8(fp)
  802ccc:	e037883a 	mov	sp,fp
  802cd0:	dfc00117 	ldw	ra,4(sp)
  802cd4:	df000017 	ldw	fp,0(sp)
  802cd8:	dec00204 	addi	sp,sp,8
  802cdc:	f800283a 	ret

00802ce0 <create_name>:
  802ce0:	defff604 	addi	sp,sp,-40
  802ce4:	dfc00915 	stw	ra,36(sp)
  802ce8:	df000815 	stw	fp,32(sp)
  802cec:	df000804 	addi	fp,sp,32
  802cf0:	e13ffe15 	stw	r4,-8(fp)
  802cf4:	e17fff15 	stw	r5,-4(fp)
  802cf8:	e0bfff17 	ldw	r2,-4(fp)
  802cfc:	10800017 	ldw	r2,0(r2)
  802d00:	e0bffc15 	stw	r2,-16(fp)
  802d04:	00000306 	br	802d14 <create_name+0x34>
  802d08:	e0bffc17 	ldw	r2,-16(fp)
  802d0c:	10800044 	addi	r2,r2,1
  802d10:	e0bffc15 	stw	r2,-16(fp)
  802d14:	e0bffc17 	ldw	r2,-16(fp)
  802d18:	10800003 	ldbu	r2,0(r2)
  802d1c:	10803fcc 	andi	r2,r2,255
  802d20:	1080201c 	xori	r2,r2,128
  802d24:	10bfe004 	addi	r2,r2,-128
  802d28:	10800be0 	cmpeqi	r2,r2,47
  802d2c:	103ff61e 	bne	r2,zero,802d08 <__alt_data_end+0xff802d08>
  802d30:	e0bffc17 	ldw	r2,-16(fp)
  802d34:	10800003 	ldbu	r2,0(r2)
  802d38:	10803fcc 	andi	r2,r2,255
  802d3c:	1080201c 	xori	r2,r2,128
  802d40:	10bfe004 	addi	r2,r2,-128
  802d44:	10801720 	cmpeqi	r2,r2,92
  802d48:	103fef1e 	bne	r2,zero,802d08 <__alt_data_end+0xff802d08>
  802d4c:	e0bffe17 	ldw	r2,-8(fp)
  802d50:	10800617 	ldw	r2,24(r2)
  802d54:	e0bffd15 	stw	r2,-12(fp)
  802d58:	018002c4 	movi	r6,11
  802d5c:	01400804 	movi	r5,32
  802d60:	e13ffd17 	ldw	r4,-12(fp)
  802d64:	08015f80 	call	8015f8 <mem_set>
  802d68:	e03ff805 	stb	zero,-32(fp)
  802d6c:	e03ffb15 	stw	zero,-20(fp)
  802d70:	e0bffb17 	ldw	r2,-20(fp)
  802d74:	e0bffa15 	stw	r2,-24(fp)
  802d78:	00800204 	movi	r2,8
  802d7c:	e0bff915 	stw	r2,-28(fp)
  802d80:	e0bffa17 	ldw	r2,-24(fp)
  802d84:	10c00044 	addi	r3,r2,1
  802d88:	e0fffa15 	stw	r3,-24(fp)
  802d8c:	e0fffc17 	ldw	r3,-16(fp)
  802d90:	1885883a 	add	r2,r3,r2
  802d94:	10800003 	ldbu	r2,0(r2)
  802d98:	e0bff845 	stb	r2,-31(fp)
  802d9c:	e0bff843 	ldbu	r2,-31(fp)
  802da0:	10800870 	cmpltui	r2,r2,33
  802da4:	1000521e 	bne	r2,zero,802ef0 <create_name+0x210>
  802da8:	e0bff843 	ldbu	r2,-31(fp)
  802dac:	10800be0 	cmpeqi	r2,r2,47
  802db0:	10004f1e 	bne	r2,zero,802ef0 <create_name+0x210>
  802db4:	e0bff843 	ldbu	r2,-31(fp)
  802db8:	10801720 	cmpeqi	r2,r2,92
  802dbc:	10004c1e 	bne	r2,zero,802ef0 <create_name+0x210>
  802dc0:	e0bff843 	ldbu	r2,-31(fp)
  802dc4:	10800ba0 	cmpeqi	r2,r2,46
  802dc8:	1000031e 	bne	r2,zero,802dd8 <create_name+0xf8>
  802dcc:	e0fffb17 	ldw	r3,-20(fp)
  802dd0:	e0bff917 	ldw	r2,-28(fp)
  802dd4:	18801136 	bltu	r3,r2,802e1c <create_name+0x13c>
  802dd8:	e0bff917 	ldw	r2,-28(fp)
  802ddc:	10800218 	cmpnei	r2,r2,8
  802de0:	1000031e 	bne	r2,zero,802df0 <create_name+0x110>
  802de4:	e0bff843 	ldbu	r2,-31(fp)
  802de8:	10800ba0 	cmpeqi	r2,r2,46
  802dec:	1000021e 	bne	r2,zero,802df8 <create_name+0x118>
  802df0:	00800184 	movi	r2,6
  802df4:	00007006 	br	802fb8 <create_name+0x2d8>
  802df8:	00800204 	movi	r2,8
  802dfc:	e0bffb15 	stw	r2,-20(fp)
  802e00:	008002c4 	movi	r2,11
  802e04:	e0bff915 	stw	r2,-28(fp)
  802e08:	e0bff803 	ldbu	r2,-32(fp)
  802e0c:	1085883a 	add	r2,r2,r2
  802e10:	1085883a 	add	r2,r2,r2
  802e14:	e0bff805 	stb	r2,-32(fp)
  802e18:	00003406 	br	802eec <create_name+0x20c>
  802e1c:	e0bff843 	ldbu	r2,-31(fp)
  802e20:	10803fcc 	andi	r2,r2,255
  802e24:	1080201c 	xori	r2,r2,128
  802e28:	10bfe004 	addi	r2,r2,-128
  802e2c:	10000a0e 	bge	r2,zero,802e58 <create_name+0x178>
  802e30:	e0bff803 	ldbu	r2,-32(fp)
  802e34:	108000d4 	ori	r2,r2,3
  802e38:	e0bff805 	stb	r2,-32(fp)
  802e3c:	e0bff843 	ldbu	r2,-31(fp)
  802e40:	10ffe004 	addi	r3,r2,-128
  802e44:	008020b4 	movhi	r2,130
  802e48:	10ab3104 	addi	r2,r2,-21308
  802e4c:	10c5883a 	add	r2,r2,r3
  802e50:	10800003 	ldbu	r2,0(r2)
  802e54:	e0bff845 	stb	r2,-31(fp)
  802e58:	e0bff843 	ldbu	r2,-31(fp)
  802e5c:	100b883a 	mov	r5,r2
  802e60:	010020b4 	movhi	r4,130
  802e64:	212b2004 	addi	r4,r4,-21376
  802e68:	08016e00 	call	8016e0 <chk_chr>
  802e6c:	10000226 	beq	r2,zero,802e78 <create_name+0x198>
  802e70:	00800184 	movi	r2,6
  802e74:	00005006 	br	802fb8 <create_name+0x2d8>
  802e78:	e0bff843 	ldbu	r2,-31(fp)
  802e7c:	10801070 	cmpltui	r2,r2,65
  802e80:	1000071e 	bne	r2,zero,802ea0 <create_name+0x1c0>
  802e84:	e0bff843 	ldbu	r2,-31(fp)
  802e88:	108016e8 	cmpgeui	r2,r2,91
  802e8c:	1000041e 	bne	r2,zero,802ea0 <create_name+0x1c0>
  802e90:	e0bff803 	ldbu	r2,-32(fp)
  802e94:	10800094 	ori	r2,r2,2
  802e98:	e0bff805 	stb	r2,-32(fp)
  802e9c:	00000c06 	br	802ed0 <create_name+0x1f0>
  802ea0:	e0bff843 	ldbu	r2,-31(fp)
  802ea4:	10801870 	cmpltui	r2,r2,97
  802ea8:	1000091e 	bne	r2,zero,802ed0 <create_name+0x1f0>
  802eac:	e0bff843 	ldbu	r2,-31(fp)
  802eb0:	10801ee8 	cmpgeui	r2,r2,123
  802eb4:	1000061e 	bne	r2,zero,802ed0 <create_name+0x1f0>
  802eb8:	e0bff803 	ldbu	r2,-32(fp)
  802ebc:	10800054 	ori	r2,r2,1
  802ec0:	e0bff805 	stb	r2,-32(fp)
  802ec4:	e0bff843 	ldbu	r2,-31(fp)
  802ec8:	10bff804 	addi	r2,r2,-32
  802ecc:	e0bff845 	stb	r2,-31(fp)
  802ed0:	e0bffb17 	ldw	r2,-20(fp)
  802ed4:	10c00044 	addi	r3,r2,1
  802ed8:	e0fffb15 	stw	r3,-20(fp)
  802edc:	e0fffd17 	ldw	r3,-12(fp)
  802ee0:	1885883a 	add	r2,r3,r2
  802ee4:	e0fff843 	ldbu	r3,-31(fp)
  802ee8:	10c00005 	stb	r3,0(r2)
  802eec:	003fa406 	br	802d80 <__alt_data_end+0xff802d80>
  802ef0:	e0fffc17 	ldw	r3,-16(fp)
  802ef4:	e0bffa17 	ldw	r2,-24(fp)
  802ef8:	1887883a 	add	r3,r3,r2
  802efc:	e0bfff17 	ldw	r2,-4(fp)
  802f00:	10c00015 	stw	r3,0(r2)
  802f04:	e0bff843 	ldbu	r2,-31(fp)
  802f08:	10800868 	cmpgeui	r2,r2,33
  802f0c:	1000021e 	bne	r2,zero,802f18 <create_name+0x238>
  802f10:	00800104 	movi	r2,4
  802f14:	00000106 	br	802f1c <create_name+0x23c>
  802f18:	0005883a 	mov	r2,zero
  802f1c:	e0bff845 	stb	r2,-31(fp)
  802f20:	e0bffb17 	ldw	r2,-20(fp)
  802f24:	1000021e 	bne	r2,zero,802f30 <create_name+0x250>
  802f28:	00800184 	movi	r2,6
  802f2c:	00002206 	br	802fb8 <create_name+0x2d8>
  802f30:	e0bffd17 	ldw	r2,-12(fp)
  802f34:	10800003 	ldbu	r2,0(r2)
  802f38:	10803fcc 	andi	r2,r2,255
  802f3c:	10803958 	cmpnei	r2,r2,229
  802f40:	1000031e 	bne	r2,zero,802f50 <create_name+0x270>
  802f44:	e0bffd17 	ldw	r2,-12(fp)
  802f48:	00c00144 	movi	r3,5
  802f4c:	10c00005 	stb	r3,0(r2)
  802f50:	e0bff917 	ldw	r2,-28(fp)
  802f54:	10800218 	cmpnei	r2,r2,8
  802f58:	1000041e 	bne	r2,zero,802f6c <create_name+0x28c>
  802f5c:	e0bff803 	ldbu	r2,-32(fp)
  802f60:	1085883a 	add	r2,r2,r2
  802f64:	1085883a 	add	r2,r2,r2
  802f68:	e0bff805 	stb	r2,-32(fp)
  802f6c:	e0bff803 	ldbu	r2,-32(fp)
  802f70:	108000cc 	andi	r2,r2,3
  802f74:	10800058 	cmpnei	r2,r2,1
  802f78:	1000031e 	bne	r2,zero,802f88 <create_name+0x2a8>
  802f7c:	e0bff843 	ldbu	r2,-31(fp)
  802f80:	10800414 	ori	r2,r2,16
  802f84:	e0bff845 	stb	r2,-31(fp)
  802f88:	e0bff803 	ldbu	r2,-32(fp)
  802f8c:	1080030c 	andi	r2,r2,12
  802f90:	10800118 	cmpnei	r2,r2,4
  802f94:	1000031e 	bne	r2,zero,802fa4 <create_name+0x2c4>
  802f98:	e0bff843 	ldbu	r2,-31(fp)
  802f9c:	10800214 	ori	r2,r2,8
  802fa0:	e0bff845 	stb	r2,-31(fp)
  802fa4:	e0bffd17 	ldw	r2,-12(fp)
  802fa8:	108002c4 	addi	r2,r2,11
  802fac:	e0fff843 	ldbu	r3,-31(fp)
  802fb0:	10c00005 	stb	r3,0(r2)
  802fb4:	0005883a 	mov	r2,zero
  802fb8:	e037883a 	mov	sp,fp
  802fbc:	dfc00117 	ldw	ra,4(sp)
  802fc0:	df000017 	ldw	fp,0(sp)
  802fc4:	dec00204 	addi	sp,sp,8
  802fc8:	f800283a 	ret

00802fcc <get_fileinfo>:
  802fcc:	defff804 	addi	sp,sp,-32
  802fd0:	df000715 	stw	fp,28(sp)
  802fd4:	df000704 	addi	fp,sp,28
  802fd8:	e13ffe15 	stw	r4,-8(fp)
  802fdc:	e17fff15 	stw	r5,-4(fp)
  802fe0:	e0bfff17 	ldw	r2,-4(fp)
  802fe4:	10800244 	addi	r2,r2,9
  802fe8:	e0bffa15 	stw	r2,-24(fp)
  802fec:	e0bffe17 	ldw	r2,-8(fp)
  802ff0:	10800417 	ldw	r2,16(r2)
  802ff4:	10007d26 	beq	r2,zero,8031ec <get_fileinfo+0x220>
  802ff8:	e0bffe17 	ldw	r2,-8(fp)
  802ffc:	10800517 	ldw	r2,20(r2)
  803000:	e0bffc15 	stw	r2,-16(fp)
  803004:	e0bffc17 	ldw	r2,-16(fp)
  803008:	10800303 	ldbu	r2,12(r2)
  80300c:	e0bffd05 	stb	r2,-12(fp)
  803010:	e03ff915 	stw	zero,-28(fp)
  803014:	00001506 	br	80306c <get_fileinfo+0xa0>
  803018:	e0fffc17 	ldw	r3,-16(fp)
  80301c:	e0bff917 	ldw	r2,-28(fp)
  803020:	1885883a 	add	r2,r3,r2
  803024:	10800003 	ldbu	r2,0(r2)
  803028:	e0bffb05 	stb	r2,-20(fp)
  80302c:	e0bffb07 	ldb	r2,-20(fp)
  803030:	10800818 	cmpnei	r2,r2,32
  803034:	10001126 	beq	r2,zero,80307c <get_fileinfo+0xb0>
  803038:	e0bffb07 	ldb	r2,-20(fp)
  80303c:	10800158 	cmpnei	r2,r2,5
  803040:	1000021e 	bne	r2,zero,80304c <get_fileinfo+0x80>
  803044:	00bff944 	movi	r2,-27
  803048:	e0bffb05 	stb	r2,-20(fp)
  80304c:	e0bffa17 	ldw	r2,-24(fp)
  803050:	10c00044 	addi	r3,r2,1
  803054:	e0fffa15 	stw	r3,-24(fp)
  803058:	e0fffb03 	ldbu	r3,-20(fp)
  80305c:	10c00005 	stb	r3,0(r2)
  803060:	e0bff917 	ldw	r2,-28(fp)
  803064:	10800044 	addi	r2,r2,1
  803068:	e0bff915 	stw	r2,-28(fp)
  80306c:	e0bff917 	ldw	r2,-28(fp)
  803070:	10800230 	cmpltui	r2,r2,8
  803074:	103fe81e 	bne	r2,zero,803018 <__alt_data_end+0xff803018>
  803078:	00000106 	br	803080 <get_fileinfo+0xb4>
  80307c:	0001883a 	nop
  803080:	e0bffc17 	ldw	r2,-16(fp)
  803084:	10800204 	addi	r2,r2,8
  803088:	10800003 	ldbu	r2,0(r2)
  80308c:	10803fcc 	andi	r2,r2,255
  803090:	10800820 	cmpeqi	r2,r2,32
  803094:	10001d1e 	bne	r2,zero,80310c <get_fileinfo+0x140>
  803098:	e0bffa17 	ldw	r2,-24(fp)
  80309c:	10c00044 	addi	r3,r2,1
  8030a0:	e0fffa15 	stw	r3,-24(fp)
  8030a4:	00c00b84 	movi	r3,46
  8030a8:	10c00005 	stb	r3,0(r2)
  8030ac:	00800204 	movi	r2,8
  8030b0:	e0bff915 	stw	r2,-28(fp)
  8030b4:	00001006 	br	8030f8 <get_fileinfo+0x12c>
  8030b8:	e0fffc17 	ldw	r3,-16(fp)
  8030bc:	e0bff917 	ldw	r2,-28(fp)
  8030c0:	1885883a 	add	r2,r3,r2
  8030c4:	10800003 	ldbu	r2,0(r2)
  8030c8:	e0bffb05 	stb	r2,-20(fp)
  8030cc:	e0bffb07 	ldb	r2,-20(fp)
  8030d0:	10800818 	cmpnei	r2,r2,32
  8030d4:	10000c26 	beq	r2,zero,803108 <get_fileinfo+0x13c>
  8030d8:	e0bffa17 	ldw	r2,-24(fp)
  8030dc:	10c00044 	addi	r3,r2,1
  8030e0:	e0fffa15 	stw	r3,-24(fp)
  8030e4:	e0fffb03 	ldbu	r3,-20(fp)
  8030e8:	10c00005 	stb	r3,0(r2)
  8030ec:	e0bff917 	ldw	r2,-28(fp)
  8030f0:	10800044 	addi	r2,r2,1
  8030f4:	e0bff915 	stw	r2,-28(fp)
  8030f8:	e0bff917 	ldw	r2,-28(fp)
  8030fc:	108002f0 	cmpltui	r2,r2,11
  803100:	103fed1e 	bne	r2,zero,8030b8 <__alt_data_end+0xff8030b8>
  803104:	00000106 	br	80310c <get_fileinfo+0x140>
  803108:	0001883a 	nop
  80310c:	e0bffc17 	ldw	r2,-16(fp)
  803110:	10c002c3 	ldbu	r3,11(r2)
  803114:	e0bfff17 	ldw	r2,-4(fp)
  803118:	10c00205 	stb	r3,8(r2)
  80311c:	e0bffc17 	ldw	r2,-16(fp)
  803120:	108007c4 	addi	r2,r2,31
  803124:	10800003 	ldbu	r2,0(r2)
  803128:	10803fcc 	andi	r2,r2,255
  80312c:	1006963a 	slli	r3,r2,24
  803130:	e0bffc17 	ldw	r2,-16(fp)
  803134:	10800784 	addi	r2,r2,30
  803138:	10800003 	ldbu	r2,0(r2)
  80313c:	10803fcc 	andi	r2,r2,255
  803140:	1004943a 	slli	r2,r2,16
  803144:	1884b03a 	or	r2,r3,r2
  803148:	e0fffc17 	ldw	r3,-16(fp)
  80314c:	18c00744 	addi	r3,r3,29
  803150:	18c00003 	ldbu	r3,0(r3)
  803154:	18c03fcc 	andi	r3,r3,255
  803158:	1806923a 	slli	r3,r3,8
  80315c:	10c6b03a 	or	r3,r2,r3
  803160:	e0bffc17 	ldw	r2,-16(fp)
  803164:	10800704 	addi	r2,r2,28
  803168:	10800003 	ldbu	r2,0(r2)
  80316c:	10803fcc 	andi	r2,r2,255
  803170:	1886b03a 	or	r3,r3,r2
  803174:	e0bfff17 	ldw	r2,-4(fp)
  803178:	10c00015 	stw	r3,0(r2)
  80317c:	e0bffc17 	ldw	r2,-16(fp)
  803180:	10800644 	addi	r2,r2,25
  803184:	10800003 	ldbu	r2,0(r2)
  803188:	10803fcc 	andi	r2,r2,255
  80318c:	1004923a 	slli	r2,r2,8
  803190:	1007883a 	mov	r3,r2
  803194:	e0bffc17 	ldw	r2,-16(fp)
  803198:	10800604 	addi	r2,r2,24
  80319c:	10800003 	ldbu	r2,0(r2)
  8031a0:	10803fcc 	andi	r2,r2,255
  8031a4:	1884b03a 	or	r2,r3,r2
  8031a8:	1007883a 	mov	r3,r2
  8031ac:	e0bfff17 	ldw	r2,-4(fp)
  8031b0:	10c0010d 	sth	r3,4(r2)
  8031b4:	e0bffc17 	ldw	r2,-16(fp)
  8031b8:	108005c4 	addi	r2,r2,23
  8031bc:	10800003 	ldbu	r2,0(r2)
  8031c0:	10803fcc 	andi	r2,r2,255
  8031c4:	1004923a 	slli	r2,r2,8
  8031c8:	1007883a 	mov	r3,r2
  8031cc:	e0bffc17 	ldw	r2,-16(fp)
  8031d0:	10800584 	addi	r2,r2,22
  8031d4:	10800003 	ldbu	r2,0(r2)
  8031d8:	10803fcc 	andi	r2,r2,255
  8031dc:	1884b03a 	or	r2,r3,r2
  8031e0:	1007883a 	mov	r3,r2
  8031e4:	e0bfff17 	ldw	r2,-4(fp)
  8031e8:	10c0018d 	sth	r3,6(r2)
  8031ec:	e0bffa17 	ldw	r2,-24(fp)
  8031f0:	10000005 	stb	zero,0(r2)
  8031f4:	0001883a 	nop
  8031f8:	e037883a 	mov	sp,fp
  8031fc:	df000017 	ldw	fp,0(sp)
  803200:	dec00104 	addi	sp,sp,4
  803204:	f800283a 	ret

00803208 <follow_path>:
  803208:	defff904 	addi	sp,sp,-28
  80320c:	dfc00615 	stw	ra,24(sp)
  803210:	df000515 	stw	fp,20(sp)
  803214:	df000504 	addi	fp,sp,20
  803218:	e13ffe15 	stw	r4,-8(fp)
  80321c:	e17fff15 	stw	r5,-4(fp)
  803220:	e0bfff17 	ldw	r2,-4(fp)
  803224:	10800003 	ldbu	r2,0(r2)
  803228:	10803fcc 	andi	r2,r2,255
  80322c:	1080201c 	xori	r2,r2,128
  803230:	10bfe004 	addi	r2,r2,-128
  803234:	10800be0 	cmpeqi	r2,r2,47
  803238:	1000071e 	bne	r2,zero,803258 <follow_path+0x50>
  80323c:	e0bfff17 	ldw	r2,-4(fp)
  803240:	10800003 	ldbu	r2,0(r2)
  803244:	10803fcc 	andi	r2,r2,255
  803248:	1080201c 	xori	r2,r2,128
  80324c:	10bfe004 	addi	r2,r2,-128
  803250:	10801718 	cmpnei	r2,r2,92
  803254:	1000031e 	bne	r2,zero,803264 <follow_path+0x5c>
  803258:	e0bfff17 	ldw	r2,-4(fp)
  80325c:	10800044 	addi	r2,r2,1
  803260:	e0bfff15 	stw	r2,-4(fp)
  803264:	e0bffe17 	ldw	r2,-8(fp)
  803268:	10000215 	stw	zero,8(r2)
  80326c:	e0bfff17 	ldw	r2,-4(fp)
  803270:	10800003 	ldbu	r2,0(r2)
  803274:	10803fcc 	andi	r2,r2,255
  803278:	10800828 	cmpgeui	r2,r2,32
  80327c:	1000071e 	bne	r2,zero,80329c <follow_path+0x94>
  803280:	000b883a 	mov	r5,zero
  803284:	e13ffe17 	ldw	r4,-8(fp)
  803288:	080244c0 	call	80244c <dir_sdi>
  80328c:	e0bffb15 	stw	r2,-20(fp)
  803290:	e0bffe17 	ldw	r2,-8(fp)
  803294:	10000515 	stw	zero,20(r2)
  803298:	00004c06 	br	8033cc <follow_path+0x1c4>
  80329c:	e0bfff04 	addi	r2,fp,-4
  8032a0:	100b883a 	mov	r5,r2
  8032a4:	e13ffe17 	ldw	r4,-8(fp)
  8032a8:	0802ce00 	call	802ce0 <create_name>
  8032ac:	e0bffb15 	stw	r2,-20(fp)
  8032b0:	e0bffb17 	ldw	r2,-20(fp)
  8032b4:	10003e1e 	bne	r2,zero,8033b0 <follow_path+0x1a8>
  8032b8:	e13ffe17 	ldw	r4,-8(fp)
  8032bc:	08029200 	call	802920 <dir_find>
  8032c0:	e0bffb15 	stw	r2,-20(fp)
  8032c4:	e0bffe17 	ldw	r2,-8(fp)
  8032c8:	10800617 	ldw	r2,24(r2)
  8032cc:	108002c3 	ldbu	r2,11(r2)
  8032d0:	e0bffc05 	stb	r2,-16(fp)
  8032d4:	e0bffb17 	ldw	r2,-20(fp)
  8032d8:	10000926 	beq	r2,zero,803300 <follow_path+0xf8>
  8032dc:	e0bffb17 	ldw	r2,-20(fp)
  8032e0:	10800120 	cmpeqi	r2,r2,4
  8032e4:	10003426 	beq	r2,zero,8033b8 <follow_path+0x1b0>
  8032e8:	e0bffc03 	ldbu	r2,-16(fp)
  8032ec:	1080010c 	andi	r2,r2,4
  8032f0:	1000331e 	bne	r2,zero,8033c0 <follow_path+0x1b8>
  8032f4:	00800144 	movi	r2,5
  8032f8:	e0bffb15 	stw	r2,-20(fp)
  8032fc:	00003006 	br	8033c0 <follow_path+0x1b8>
  803300:	e0bffc03 	ldbu	r2,-16(fp)
  803304:	1080010c 	andi	r2,r2,4
  803308:	10002f1e 	bne	r2,zero,8033c8 <follow_path+0x1c0>
  80330c:	e0bffe17 	ldw	r2,-8(fp)
  803310:	10800517 	ldw	r2,20(r2)
  803314:	e0bffd15 	stw	r2,-12(fp)
  803318:	e0bffd17 	ldw	r2,-12(fp)
  80331c:	108002c4 	addi	r2,r2,11
  803320:	10800003 	ldbu	r2,0(r2)
  803324:	10803fcc 	andi	r2,r2,255
  803328:	1080040c 	andi	r2,r2,16
  80332c:	1000031e 	bne	r2,zero,80333c <follow_path+0x134>
  803330:	00800144 	movi	r2,5
  803334:	e0bffb15 	stw	r2,-20(fp)
  803338:	00002406 	br	8033cc <follow_path+0x1c4>
  80333c:	e0bffd17 	ldw	r2,-12(fp)
  803340:	10800544 	addi	r2,r2,21
  803344:	10800003 	ldbu	r2,0(r2)
  803348:	10803fcc 	andi	r2,r2,255
  80334c:	1004923a 	slli	r2,r2,8
  803350:	1007883a 	mov	r3,r2
  803354:	e0bffd17 	ldw	r2,-12(fp)
  803358:	10800504 	addi	r2,r2,20
  80335c:	10800003 	ldbu	r2,0(r2)
  803360:	10803fcc 	andi	r2,r2,255
  803364:	1884b03a 	or	r2,r3,r2
  803368:	10bfffcc 	andi	r2,r2,65535
  80336c:	1006943a 	slli	r3,r2,16
  803370:	e0bffd17 	ldw	r2,-12(fp)
  803374:	108006c4 	addi	r2,r2,27
  803378:	10800003 	ldbu	r2,0(r2)
  80337c:	10803fcc 	andi	r2,r2,255
  803380:	1004923a 	slli	r2,r2,8
  803384:	1009883a 	mov	r4,r2
  803388:	e0bffd17 	ldw	r2,-12(fp)
  80338c:	10800684 	addi	r2,r2,26
  803390:	10800003 	ldbu	r2,0(r2)
  803394:	10803fcc 	andi	r2,r2,255
  803398:	2084b03a 	or	r2,r4,r2
  80339c:	10bfffcc 	andi	r2,r2,65535
  8033a0:	1886b03a 	or	r3,r3,r2
  8033a4:	e0bffe17 	ldw	r2,-8(fp)
  8033a8:	10c00215 	stw	r3,8(r2)
  8033ac:	003fbb06 	br	80329c <__alt_data_end+0xff80329c>
  8033b0:	0001883a 	nop
  8033b4:	00000506 	br	8033cc <follow_path+0x1c4>
  8033b8:	0001883a 	nop
  8033bc:	00000306 	br	8033cc <follow_path+0x1c4>
  8033c0:	0001883a 	nop
  8033c4:	00000106 	br	8033cc <follow_path+0x1c4>
  8033c8:	0001883a 	nop
  8033cc:	e0bffb17 	ldw	r2,-20(fp)
  8033d0:	e037883a 	mov	sp,fp
  8033d4:	dfc00117 	ldw	ra,4(sp)
  8033d8:	df000017 	ldw	fp,0(sp)
  8033dc:	dec00204 	addi	sp,sp,8
  8033e0:	f800283a 	ret

008033e4 <check_fs>:
  8033e4:	defffc04 	addi	sp,sp,-16
  8033e8:	dfc00315 	stw	ra,12(sp)
  8033ec:	df000215 	stw	fp,8(sp)
  8033f0:	df000204 	addi	fp,sp,8
  8033f4:	e13ffe15 	stw	r4,-8(fp)
  8033f8:	e17fff15 	stw	r5,-4(fp)
  8033fc:	e0bffe17 	ldw	r2,-8(fp)
  803400:	10800043 	ldbu	r2,1(r2)
  803404:	10c03fcc 	andi	r3,r2,255
  803408:	e0bffe17 	ldw	r2,-8(fp)
  80340c:	10800c04 	addi	r2,r2,48
  803410:	01c00044 	movi	r7,1
  803414:	e1bfff17 	ldw	r6,-4(fp)
  803418:	100b883a 	mov	r5,r2
  80341c:	1809883a 	mov	r4,r3
  803420:	0800e080 	call	800e08 <ffs_DiskIORead>
  803424:	10000226 	beq	r2,zero,803430 <check_fs+0x4c>
  803428:	008000c4 	movi	r2,3
  80342c:	00005306 	br	80357c <check_fs+0x198>
  803430:	e0bffe17 	ldw	r2,-8(fp)
  803434:	10808b84 	addi	r2,r2,558
  803438:	10800044 	addi	r2,r2,1
  80343c:	10800003 	ldbu	r2,0(r2)
  803440:	10803fcc 	andi	r2,r2,255
  803444:	1004923a 	slli	r2,r2,8
  803448:	1007883a 	mov	r3,r2
  80344c:	e0bffe17 	ldw	r2,-8(fp)
  803450:	10808b83 	ldbu	r2,558(r2)
  803454:	10803fcc 	andi	r2,r2,255
  803458:	1884b03a 	or	r2,r3,r2
  80345c:	10bfffcc 	andi	r2,r2,65535
  803460:	10a0001c 	xori	r2,r2,32768
  803464:	10a00004 	addi	r2,r2,-32768
  803468:	10aa9560 	cmpeqi	r2,r2,-21931
  80346c:	1000021e 	bne	r2,zero,803478 <check_fs+0x94>
  803470:	00800084 	movi	r2,2
  803474:	00004106 	br	80357c <check_fs+0x198>
  803478:	e0bffe17 	ldw	r2,-8(fp)
  80347c:	10801984 	addi	r2,r2,102
  803480:	108000c4 	addi	r2,r2,3
  803484:	10800003 	ldbu	r2,0(r2)
  803488:	10803fcc 	andi	r2,r2,255
  80348c:	1006963a 	slli	r3,r2,24
  803490:	e0bffe17 	ldw	r2,-8(fp)
  803494:	10801984 	addi	r2,r2,102
  803498:	10800084 	addi	r2,r2,2
  80349c:	10800003 	ldbu	r2,0(r2)
  8034a0:	10803fcc 	andi	r2,r2,255
  8034a4:	1004943a 	slli	r2,r2,16
  8034a8:	1884b03a 	or	r2,r3,r2
  8034ac:	e0fffe17 	ldw	r3,-8(fp)
  8034b0:	18c01984 	addi	r3,r3,102
  8034b4:	18c00044 	addi	r3,r3,1
  8034b8:	18c00003 	ldbu	r3,0(r3)
  8034bc:	18c03fcc 	andi	r3,r3,255
  8034c0:	1806923a 	slli	r3,r3,8
  8034c4:	10c6b03a 	or	r3,r2,r3
  8034c8:	e0bffe17 	ldw	r2,-8(fp)
  8034cc:	10801983 	ldbu	r2,102(r2)
  8034d0:	10803fcc 	andi	r2,r2,255
  8034d4:	1886b03a 	or	r3,r3,r2
  8034d8:	00804034 	movhi	r2,256
  8034dc:	10bfffc4 	addi	r2,r2,-1
  8034e0:	1886703a 	and	r3,r3,r2
  8034e4:	00801534 	movhi	r2,84
  8034e8:	10905184 	addi	r2,r2,16710
  8034ec:	1880021e 	bne	r3,r2,8034f8 <check_fs+0x114>
  8034f0:	0005883a 	mov	r2,zero
  8034f4:	00002106 	br	80357c <check_fs+0x198>
  8034f8:	e0bffe17 	ldw	r2,-8(fp)
  8034fc:	10802084 	addi	r2,r2,130
  803500:	108000c4 	addi	r2,r2,3
  803504:	10800003 	ldbu	r2,0(r2)
  803508:	10803fcc 	andi	r2,r2,255
  80350c:	1006963a 	slli	r3,r2,24
  803510:	e0bffe17 	ldw	r2,-8(fp)
  803514:	10802084 	addi	r2,r2,130
  803518:	10800084 	addi	r2,r2,2
  80351c:	10800003 	ldbu	r2,0(r2)
  803520:	10803fcc 	andi	r2,r2,255
  803524:	1004943a 	slli	r2,r2,16
  803528:	1884b03a 	or	r2,r3,r2
  80352c:	e0fffe17 	ldw	r3,-8(fp)
  803530:	18c02084 	addi	r3,r3,130
  803534:	18c00044 	addi	r3,r3,1
  803538:	18c00003 	ldbu	r3,0(r3)
  80353c:	18c03fcc 	andi	r3,r3,255
  803540:	1806923a 	slli	r3,r3,8
  803544:	10c6b03a 	or	r3,r2,r3
  803548:	e0bffe17 	ldw	r2,-8(fp)
  80354c:	10802083 	ldbu	r2,130(r2)
  803550:	10803fcc 	andi	r2,r2,255
  803554:	1886b03a 	or	r3,r3,r2
  803558:	00804034 	movhi	r2,256
  80355c:	10bfffc4 	addi	r2,r2,-1
  803560:	1886703a 	and	r3,r3,r2
  803564:	00801534 	movhi	r2,84
  803568:	10905184 	addi	r2,r2,16710
  80356c:	1880021e 	bne	r3,r2,803578 <check_fs+0x194>
  803570:	0005883a 	mov	r2,zero
  803574:	00000106 	br	80357c <check_fs+0x198>
  803578:	00800044 	movi	r2,1
  80357c:	e037883a 	mov	sp,fp
  803580:	dfc00117 	ldw	ra,4(sp)
  803584:	df000017 	ldw	fp,0(sp)
  803588:	dec00204 	addi	sp,sp,8
  80358c:	f800283a 	ret

00803590 <chk_mounted>:
  803590:	deffee04 	addi	sp,sp,-72
  803594:	dfc01115 	stw	ra,68(sp)
  803598:	df001015 	stw	fp,64(sp)
  80359c:	df001004 	addi	fp,sp,64
  8035a0:	e13ffd15 	stw	r4,-12(fp)
  8035a4:	e17ffe15 	stw	r5,-8(fp)
  8035a8:	3005883a 	mov	r2,r6
  8035ac:	e0bfff05 	stb	r2,-4(fp)
  8035b0:	e0bffd17 	ldw	r2,-12(fp)
  8035b4:	10800017 	ldw	r2,0(r2)
  8035b8:	e0bff615 	stw	r2,-40(fp)
  8035bc:	e0bff617 	ldw	r2,-40(fp)
  8035c0:	10800003 	ldbu	r2,0(r2)
  8035c4:	10803fcc 	andi	r2,r2,255
  8035c8:	1080201c 	xori	r2,r2,128
  8035cc:	10bfe004 	addi	r2,r2,-128
  8035d0:	10bff404 	addi	r2,r2,-48
  8035d4:	e0bff115 	stw	r2,-60(fp)
  8035d8:	e0bff117 	ldw	r2,-60(fp)
  8035dc:	108002a8 	cmpgeui	r2,r2,10
  8035e0:	10000f1e 	bne	r2,zero,803620 <chk_mounted+0x90>
  8035e4:	e0bff617 	ldw	r2,-40(fp)
  8035e8:	10800044 	addi	r2,r2,1
  8035ec:	10800003 	ldbu	r2,0(r2)
  8035f0:	10803fcc 	andi	r2,r2,255
  8035f4:	1080201c 	xori	r2,r2,128
  8035f8:	10bfe004 	addi	r2,r2,-128
  8035fc:	10800e98 	cmpnei	r2,r2,58
  803600:	1000071e 	bne	r2,zero,803620 <chk_mounted+0x90>
  803604:	e0bff617 	ldw	r2,-40(fp)
  803608:	10800084 	addi	r2,r2,2
  80360c:	e0bff615 	stw	r2,-40(fp)
  803610:	e0bffd17 	ldw	r2,-12(fp)
  803614:	e0fff617 	ldw	r3,-40(fp)
  803618:	10c00015 	stw	r3,0(r2)
  80361c:	00000106 	br	803624 <chk_mounted+0x94>
  803620:	e03ff115 	stw	zero,-60(fp)
  803624:	e0bff117 	ldw	r2,-60(fp)
  803628:	10000226 	beq	r2,zero,803634 <chk_mounted+0xa4>
  80362c:	008002c4 	movi	r2,11
  803630:	00022206 	br	803ebc <chk_mounted+0x92c>
  803634:	e0bff117 	ldw	r2,-60(fp)
  803638:	1085883a 	add	r2,r2,r2
  80363c:	1087883a 	add	r3,r2,r2
  803640:	d0a36504 	addi	r2,gp,-29292
  803644:	1885883a 	add	r2,r3,r2
  803648:	10800017 	ldw	r2,0(r2)
  80364c:	e0bff715 	stw	r2,-36(fp)
  803650:	e0bffe17 	ldw	r2,-8(fp)
  803654:	e0fff717 	ldw	r3,-36(fp)
  803658:	10c00015 	stw	r3,0(r2)
  80365c:	e0bff717 	ldw	r2,-36(fp)
  803660:	1000021e 	bne	r2,zero,80366c <chk_mounted+0xdc>
  803664:	00800304 	movi	r2,12
  803668:	00021406 	br	803ebc <chk_mounted+0x92c>
  80366c:	e0bff717 	ldw	r2,-36(fp)
  803670:	10800003 	ldbu	r2,0(r2)
  803674:	10803fcc 	andi	r2,r2,255
  803678:	10001226 	beq	r2,zero,8036c4 <chk_mounted+0x134>
  80367c:	e0bff717 	ldw	r2,-36(fp)
  803680:	10800043 	ldbu	r2,1(r2)
  803684:	10803fcc 	andi	r2,r2,255
  803688:	1009883a 	mov	r4,r2
  80368c:	0800de00 	call	800de0 <ffs_DiskIOStatus>
  803690:	e0bff805 	stb	r2,-32(fp)
  803694:	e0bff803 	ldbu	r2,-32(fp)
  803698:	1080004c 	andi	r2,r2,1
  80369c:	1000091e 	bne	r2,zero,8036c4 <chk_mounted+0x134>
  8036a0:	e0bfff03 	ldbu	r2,-4(fp)
  8036a4:	10000526 	beq	r2,zero,8036bc <chk_mounted+0x12c>
  8036a8:	e0bff803 	ldbu	r2,-32(fp)
  8036ac:	1080010c 	andi	r2,r2,4
  8036b0:	10000226 	beq	r2,zero,8036bc <chk_mounted+0x12c>
  8036b4:	00800284 	movi	r2,10
  8036b8:	00020006 	br	803ebc <chk_mounted+0x92c>
  8036bc:	0005883a 	mov	r2,zero
  8036c0:	0001fe06 	br	803ebc <chk_mounted+0x92c>
  8036c4:	e0bff717 	ldw	r2,-36(fp)
  8036c8:	10000005 	stb	zero,0(r2)
  8036cc:	e0bff117 	ldw	r2,-60(fp)
  8036d0:	1007883a 	mov	r3,r2
  8036d4:	e0bff717 	ldw	r2,-36(fp)
  8036d8:	10c00045 	stb	r3,1(r2)
  8036dc:	e0bff717 	ldw	r2,-36(fp)
  8036e0:	10800043 	ldbu	r2,1(r2)
  8036e4:	10803fcc 	andi	r2,r2,255
  8036e8:	1009883a 	mov	r4,r2
  8036ec:	0800b840 	call	800b84 <ffs_DiskIOInitialize>
  8036f0:	e0bff805 	stb	r2,-32(fp)
  8036f4:	e0bff803 	ldbu	r2,-32(fp)
  8036f8:	1080004c 	andi	r2,r2,1
  8036fc:	10000226 	beq	r2,zero,803708 <chk_mounted+0x178>
  803700:	008000c4 	movi	r2,3
  803704:	0001ed06 	br	803ebc <chk_mounted+0x92c>
  803708:	e0bfff03 	ldbu	r2,-4(fp)
  80370c:	10000526 	beq	r2,zero,803724 <chk_mounted+0x194>
  803710:	e0bff803 	ldbu	r2,-32(fp)
  803714:	1080010c 	andi	r2,r2,4
  803718:	10000226 	beq	r2,zero,803724 <chk_mounted+0x194>
  80371c:	00800284 	movi	r2,10
  803720:	0001e606 	br	803ebc <chk_mounted+0x92c>
  803724:	e03ff215 	stw	zero,-56(fp)
  803728:	e17ff217 	ldw	r5,-56(fp)
  80372c:	e13ff717 	ldw	r4,-36(fp)
  803730:	08033e40 	call	8033e4 <check_fs>
  803734:	e0bff005 	stb	r2,-64(fp)
  803738:	e0bff003 	ldbu	r2,-64(fp)
  80373c:	10800058 	cmpnei	r2,r2,1
  803740:	10002d1e 	bne	r2,zero,8037f8 <chk_mounted+0x268>
  803744:	e03ff045 	stb	zero,-63(fp)
  803748:	e0bff043 	ldbu	r2,-63(fp)
  80374c:	10000326 	beq	r2,zero,80375c <chk_mounted+0x1cc>
  803750:	e0bff043 	ldbu	r2,-63(fp)
  803754:	10bfffc4 	addi	r2,r2,-1
  803758:	e0bff045 	stb	r2,-63(fp)
  80375c:	e0bff043 	ldbu	r2,-63(fp)
  803760:	1004913a 	slli	r2,r2,4
  803764:	10806f84 	addi	r2,r2,446
  803768:	10800c04 	addi	r2,r2,48
  80376c:	e0fff717 	ldw	r3,-36(fp)
  803770:	1885883a 	add	r2,r3,r2
  803774:	e0bff915 	stw	r2,-28(fp)
  803778:	e0bff917 	ldw	r2,-28(fp)
  80377c:	10800104 	addi	r2,r2,4
  803780:	10800003 	ldbu	r2,0(r2)
  803784:	10803fcc 	andi	r2,r2,255
  803788:	10001b26 	beq	r2,zero,8037f8 <chk_mounted+0x268>
  80378c:	e0bff917 	ldw	r2,-28(fp)
  803790:	108002c4 	addi	r2,r2,11
  803794:	10800003 	ldbu	r2,0(r2)
  803798:	10803fcc 	andi	r2,r2,255
  80379c:	1006963a 	slli	r3,r2,24
  8037a0:	e0bff917 	ldw	r2,-28(fp)
  8037a4:	10800284 	addi	r2,r2,10
  8037a8:	10800003 	ldbu	r2,0(r2)
  8037ac:	10803fcc 	andi	r2,r2,255
  8037b0:	1004943a 	slli	r2,r2,16
  8037b4:	1884b03a 	or	r2,r3,r2
  8037b8:	e0fff917 	ldw	r3,-28(fp)
  8037bc:	18c00244 	addi	r3,r3,9
  8037c0:	18c00003 	ldbu	r3,0(r3)
  8037c4:	18c03fcc 	andi	r3,r3,255
  8037c8:	1806923a 	slli	r3,r3,8
  8037cc:	10c6b03a 	or	r3,r2,r3
  8037d0:	e0bff917 	ldw	r2,-28(fp)
  8037d4:	10800204 	addi	r2,r2,8
  8037d8:	10800003 	ldbu	r2,0(r2)
  8037dc:	10803fcc 	andi	r2,r2,255
  8037e0:	1884b03a 	or	r2,r3,r2
  8037e4:	e0bff215 	stw	r2,-56(fp)
  8037e8:	e17ff217 	ldw	r5,-56(fp)
  8037ec:	e13ff717 	ldw	r4,-36(fp)
  8037f0:	08033e40 	call	8033e4 <check_fs>
  8037f4:	e0bff005 	stb	r2,-64(fp)
  8037f8:	e0bff003 	ldbu	r2,-64(fp)
  8037fc:	108000d8 	cmpnei	r2,r2,3
  803800:	1000021e 	bne	r2,zero,80380c <chk_mounted+0x27c>
  803804:	00800044 	movi	r2,1
  803808:	0001ac06 	br	803ebc <chk_mounted+0x92c>
  80380c:	e0bff003 	ldbu	r2,-64(fp)
  803810:	10000226 	beq	r2,zero,80381c <chk_mounted+0x28c>
  803814:	00800344 	movi	r2,13
  803818:	0001a806 	br	803ebc <chk_mounted+0x92c>
  80381c:	e0bff717 	ldw	r2,-36(fp)
  803820:	10800f03 	ldbu	r2,60(r2)
  803824:	10803fcc 	andi	r2,r2,255
  803828:	1004923a 	slli	r2,r2,8
  80382c:	1007883a 	mov	r3,r2
  803830:	e0bff717 	ldw	r2,-36(fp)
  803834:	10800ec3 	ldbu	r2,59(r2)
  803838:	10803fcc 	andi	r2,r2,255
  80383c:	1884b03a 	or	r2,r3,r2
  803840:	10bfffcc 	andi	r2,r2,65535
  803844:	10a0001c 	xori	r2,r2,32768
  803848:	10a00004 	addi	r2,r2,-32768
  80384c:	10808020 	cmpeqi	r2,r2,512
  803850:	1000021e 	bne	r2,zero,80385c <chk_mounted+0x2cc>
  803854:	00800344 	movi	r2,13
  803858:	00019806 	br	803ebc <chk_mounted+0x92c>
  80385c:	e0bff717 	ldw	r2,-36(fp)
  803860:	108011c3 	ldbu	r2,71(r2)
  803864:	10803fcc 	andi	r2,r2,255
  803868:	1004923a 	slli	r2,r2,8
  80386c:	1007883a 	mov	r3,r2
  803870:	e0bff717 	ldw	r2,-36(fp)
  803874:	10801183 	ldbu	r2,70(r2)
  803878:	10803fcc 	andi	r2,r2,255
  80387c:	1884b03a 	or	r2,r3,r2
  803880:	10bfffcc 	andi	r2,r2,65535
  803884:	e0bff315 	stw	r2,-52(fp)
  803888:	e0bff317 	ldw	r2,-52(fp)
  80388c:	1000131e 	bne	r2,zero,8038dc <chk_mounted+0x34c>
  803890:	e0bff717 	ldw	r2,-36(fp)
  803894:	108015c3 	ldbu	r2,87(r2)
  803898:	10803fcc 	andi	r2,r2,255
  80389c:	1006963a 	slli	r3,r2,24
  8038a0:	e0bff717 	ldw	r2,-36(fp)
  8038a4:	10801583 	ldbu	r2,86(r2)
  8038a8:	10803fcc 	andi	r2,r2,255
  8038ac:	1004943a 	slli	r2,r2,16
  8038b0:	1884b03a 	or	r2,r3,r2
  8038b4:	e0fff717 	ldw	r3,-36(fp)
  8038b8:	18c01543 	ldbu	r3,85(r3)
  8038bc:	18c03fcc 	andi	r3,r3,255
  8038c0:	1806923a 	slli	r3,r3,8
  8038c4:	10c6b03a 	or	r3,r2,r3
  8038c8:	e0bff717 	ldw	r2,-36(fp)
  8038cc:	10801503 	ldbu	r2,84(r2)
  8038d0:	10803fcc 	andi	r2,r2,255
  8038d4:	1884b03a 	or	r2,r3,r2
  8038d8:	e0bff315 	stw	r2,-52(fp)
  8038dc:	e0bff717 	ldw	r2,-36(fp)
  8038e0:	e0fff317 	ldw	r3,-52(fp)
  8038e4:	10c00715 	stw	r3,28(r2)
  8038e8:	e0bff717 	ldw	r2,-36(fp)
  8038ec:	10801003 	ldbu	r2,64(r2)
  8038f0:	e0bffa05 	stb	r2,-24(fp)
  8038f4:	e0bff717 	ldw	r2,-36(fp)
  8038f8:	e0fffa03 	ldbu	r3,-24(fp)
  8038fc:	10c000c5 	stb	r3,3(r2)
  803900:	e0bffa03 	ldbu	r2,-24(fp)
  803904:	10800060 	cmpeqi	r2,r2,1
  803908:	1000051e 	bne	r2,zero,803920 <chk_mounted+0x390>
  80390c:	e0bffa03 	ldbu	r2,-24(fp)
  803910:	108000a0 	cmpeqi	r2,r2,2
  803914:	1000021e 	bne	r2,zero,803920 <chk_mounted+0x390>
  803918:	00800344 	movi	r2,13
  80391c:	00016706 	br	803ebc <chk_mounted+0x92c>
  803920:	e0bffa03 	ldbu	r2,-24(fp)
  803924:	e0fff317 	ldw	r3,-52(fp)
  803928:	1885383a 	mul	r2,r3,r2
  80392c:	e0bff315 	stw	r2,-52(fp)
  803930:	e0bff717 	ldw	r2,-36(fp)
  803934:	10800f43 	ldbu	r2,61(r2)
  803938:	e0bffa05 	stb	r2,-24(fp)
  80393c:	e0bff717 	ldw	r2,-36(fp)
  803940:	e0fffa03 	ldbu	r3,-24(fp)
  803944:	10c00085 	stb	r3,2(r2)
  803948:	e0bffa03 	ldbu	r2,-24(fp)
  80394c:	10000526 	beq	r2,zero,803964 <chk_mounted+0x3d4>
  803950:	e0fffa03 	ldbu	r3,-24(fp)
  803954:	e0bffa03 	ldbu	r2,-24(fp)
  803958:	10bfffc4 	addi	r2,r2,-1
  80395c:	1884703a 	and	r2,r3,r2
  803960:	10000226 	beq	r2,zero,80396c <chk_mounted+0x3dc>
  803964:	00800344 	movi	r2,13
  803968:	00015406 	br	803ebc <chk_mounted+0x92c>
  80396c:	e0bff717 	ldw	r2,-36(fp)
  803970:	10801083 	ldbu	r2,66(r2)
  803974:	10803fcc 	andi	r2,r2,255
  803978:	1004923a 	slli	r2,r2,8
  80397c:	1007883a 	mov	r3,r2
  803980:	e0bff717 	ldw	r2,-36(fp)
  803984:	10801043 	ldbu	r2,65(r2)
  803988:	10803fcc 	andi	r2,r2,255
  80398c:	1884b03a 	or	r2,r3,r2
  803990:	1007883a 	mov	r3,r2
  803994:	e0bff717 	ldw	r2,-36(fp)
  803998:	10c0020d 	sth	r3,8(r2)
  80399c:	e0bff717 	ldw	r2,-36(fp)
  8039a0:	1080020b 	ldhu	r2,8(r2)
  8039a4:	108003cc 	andi	r2,r2,15
  8039a8:	10bfffcc 	andi	r2,r2,65535
  8039ac:	10000226 	beq	r2,zero,8039b8 <chk_mounted+0x428>
  8039b0:	00800344 	movi	r2,13
  8039b4:	00014106 	br	803ebc <chk_mounted+0x92c>
  8039b8:	e0bff717 	ldw	r2,-36(fp)
  8039bc:	10801103 	ldbu	r2,68(r2)
  8039c0:	10803fcc 	andi	r2,r2,255
  8039c4:	1004923a 	slli	r2,r2,8
  8039c8:	1007883a 	mov	r3,r2
  8039cc:	e0bff717 	ldw	r2,-36(fp)
  8039d0:	108010c3 	ldbu	r2,67(r2)
  8039d4:	10803fcc 	andi	r2,r2,255
  8039d8:	1884b03a 	or	r2,r3,r2
  8039dc:	10bfffcc 	andi	r2,r2,65535
  8039e0:	e0bff415 	stw	r2,-48(fp)
  8039e4:	e0bff417 	ldw	r2,-48(fp)
  8039e8:	1000131e 	bne	r2,zero,803a38 <chk_mounted+0x4a8>
  8039ec:	e0bff717 	ldw	r2,-36(fp)
  8039f0:	108014c3 	ldbu	r2,83(r2)
  8039f4:	10803fcc 	andi	r2,r2,255
  8039f8:	1006963a 	slli	r3,r2,24
  8039fc:	e0bff717 	ldw	r2,-36(fp)
  803a00:	10801483 	ldbu	r2,82(r2)
  803a04:	10803fcc 	andi	r2,r2,255
  803a08:	1004943a 	slli	r2,r2,16
  803a0c:	1884b03a 	or	r2,r3,r2
  803a10:	e0fff717 	ldw	r3,-36(fp)
  803a14:	18c01443 	ldbu	r3,81(r3)
  803a18:	18c03fcc 	andi	r3,r3,255
  803a1c:	1806923a 	slli	r3,r3,8
  803a20:	10c6b03a 	or	r3,r2,r3
  803a24:	e0bff717 	ldw	r2,-36(fp)
  803a28:	10801403 	ldbu	r2,80(r2)
  803a2c:	10803fcc 	andi	r2,r2,255
  803a30:	1884b03a 	or	r2,r3,r2
  803a34:	e0bff415 	stw	r2,-48(fp)
  803a38:	e0bff717 	ldw	r2,-36(fp)
  803a3c:	10800fc3 	ldbu	r2,63(r2)
  803a40:	10803fcc 	andi	r2,r2,255
  803a44:	1004923a 	slli	r2,r2,8
  803a48:	1007883a 	mov	r3,r2
  803a4c:	e0bff717 	ldw	r2,-36(fp)
  803a50:	10800f83 	ldbu	r2,62(r2)
  803a54:	10803fcc 	andi	r2,r2,255
  803a58:	1884b03a 	or	r2,r3,r2
  803a5c:	e0bffa8d 	sth	r2,-22(fp)
  803a60:	e0bffa8b 	ldhu	r2,-22(fp)
  803a64:	1000021e 	bne	r2,zero,803a70 <chk_mounted+0x4e0>
  803a68:	00800344 	movi	r2,13
  803a6c:	00011306 	br	803ebc <chk_mounted+0x92c>
  803a70:	e0fffa8b 	ldhu	r3,-22(fp)
  803a74:	e0bff317 	ldw	r2,-52(fp)
  803a78:	1887883a 	add	r3,r3,r2
  803a7c:	e0bff717 	ldw	r2,-36(fp)
  803a80:	1080020b 	ldhu	r2,8(r2)
  803a84:	10bfffcc 	andi	r2,r2,65535
  803a88:	1004d13a 	srli	r2,r2,4
  803a8c:	10bfffcc 	andi	r2,r2,65535
  803a90:	1885883a 	add	r2,r3,r2
  803a94:	e0bffb15 	stw	r2,-20(fp)
  803a98:	e0fff417 	ldw	r3,-48(fp)
  803a9c:	e0bffb17 	ldw	r2,-20(fp)
  803aa0:	1880022e 	bgeu	r3,r2,803aac <chk_mounted+0x51c>
  803aa4:	00800344 	movi	r2,13
  803aa8:	00010406 	br	803ebc <chk_mounted+0x92c>
  803aac:	e0fff417 	ldw	r3,-48(fp)
  803ab0:	e0bffb17 	ldw	r2,-20(fp)
  803ab4:	1887c83a 	sub	r3,r3,r2
  803ab8:	e0bff717 	ldw	r2,-36(fp)
  803abc:	10800083 	ldbu	r2,2(r2)
  803ac0:	10803fcc 	andi	r2,r2,255
  803ac4:	100b883a 	mov	r5,r2
  803ac8:	1809883a 	mov	r4,r3
  803acc:	08096d80 	call	8096d8 <__udivsi3>
  803ad0:	e0bffc15 	stw	r2,-16(fp)
  803ad4:	e0bffc17 	ldw	r2,-16(fp)
  803ad8:	1000021e 	bne	r2,zero,803ae4 <chk_mounted+0x554>
  803adc:	00800344 	movi	r2,13
  803ae0:	0000f606 	br	803ebc <chk_mounted+0x92c>
  803ae4:	00800044 	movi	r2,1
  803ae8:	e0bff005 	stb	r2,-64(fp)
  803aec:	e0bffc17 	ldw	r2,-16(fp)
  803af0:	1083fdb0 	cmpltui	r2,r2,4086
  803af4:	1000021e 	bne	r2,zero,803b00 <chk_mounted+0x570>
  803af8:	00800084 	movi	r2,2
  803afc:	e0bff005 	stb	r2,-64(fp)
  803b00:	e0bffc17 	ldw	r2,-16(fp)
  803b04:	10bffdb0 	cmpltui	r2,r2,65526
  803b08:	1000021e 	bne	r2,zero,803b14 <chk_mounted+0x584>
  803b0c:	008000c4 	movi	r2,3
  803b10:	e0bff005 	stb	r2,-64(fp)
  803b14:	e0bffc17 	ldw	r2,-16(fp)
  803b18:	10c00084 	addi	r3,r2,2
  803b1c:	e0bff717 	ldw	r2,-36(fp)
  803b20:	10c00615 	stw	r3,24(r2)
  803b24:	e0fff217 	ldw	r3,-56(fp)
  803b28:	e0bffb17 	ldw	r2,-20(fp)
  803b2c:	1887883a 	add	r3,r3,r2
  803b30:	e0bff717 	ldw	r2,-36(fp)
  803b34:	10c00a15 	stw	r3,40(r2)
  803b38:	e0fffa8b 	ldhu	r3,-22(fp)
  803b3c:	e0bff217 	ldw	r2,-56(fp)
  803b40:	1887883a 	add	r3,r3,r2
  803b44:	e0bff717 	ldw	r2,-36(fp)
  803b48:	10c00815 	stw	r3,32(r2)
  803b4c:	e0bff003 	ldbu	r2,-64(fp)
  803b50:	108000d8 	cmpnei	r2,r2,3
  803b54:	1000201e 	bne	r2,zero,803bd8 <chk_mounted+0x648>
  803b58:	e0bff717 	ldw	r2,-36(fp)
  803b5c:	1080020b 	ldhu	r2,8(r2)
  803b60:	10bfffcc 	andi	r2,r2,65535
  803b64:	10000226 	beq	r2,zero,803b70 <chk_mounted+0x5e0>
  803b68:	00800344 	movi	r2,13
  803b6c:	0000d306 	br	803ebc <chk_mounted+0x92c>
  803b70:	e0bff717 	ldw	r2,-36(fp)
  803b74:	108017c3 	ldbu	r2,95(r2)
  803b78:	10803fcc 	andi	r2,r2,255
  803b7c:	1006963a 	slli	r3,r2,24
  803b80:	e0bff717 	ldw	r2,-36(fp)
  803b84:	10801783 	ldbu	r2,94(r2)
  803b88:	10803fcc 	andi	r2,r2,255
  803b8c:	1004943a 	slli	r2,r2,16
  803b90:	1884b03a 	or	r2,r3,r2
  803b94:	e0fff717 	ldw	r3,-36(fp)
  803b98:	18c01743 	ldbu	r3,93(r3)
  803b9c:	18c03fcc 	andi	r3,r3,255
  803ba0:	1806923a 	slli	r3,r3,8
  803ba4:	10c6b03a 	or	r3,r2,r3
  803ba8:	e0bff717 	ldw	r2,-36(fp)
  803bac:	10801703 	ldbu	r2,92(r2)
  803bb0:	10803fcc 	andi	r2,r2,255
  803bb4:	1886b03a 	or	r3,r3,r2
  803bb8:	e0bff717 	ldw	r2,-36(fp)
  803bbc:	10c00915 	stw	r3,36(r2)
  803bc0:	e0bff717 	ldw	r2,-36(fp)
  803bc4:	10800617 	ldw	r2,24(r2)
  803bc8:	1085883a 	add	r2,r2,r2
  803bcc:	1085883a 	add	r2,r2,r2
  803bd0:	e0bff515 	stw	r2,-44(fp)
  803bd4:	00001e06 	br	803c50 <chk_mounted+0x6c0>
  803bd8:	e0bff717 	ldw	r2,-36(fp)
  803bdc:	1080020b 	ldhu	r2,8(r2)
  803be0:	10bfffcc 	andi	r2,r2,65535
  803be4:	1000021e 	bne	r2,zero,803bf0 <chk_mounted+0x660>
  803be8:	00800344 	movi	r2,13
  803bec:	0000b306 	br	803ebc <chk_mounted+0x92c>
  803bf0:	e0bff717 	ldw	r2,-36(fp)
  803bf4:	10c00817 	ldw	r3,32(r2)
  803bf8:	e0bff317 	ldw	r2,-52(fp)
  803bfc:	1887883a 	add	r3,r3,r2
  803c00:	e0bff717 	ldw	r2,-36(fp)
  803c04:	10c00915 	stw	r3,36(r2)
  803c08:	e0bff003 	ldbu	r2,-64(fp)
  803c0c:	10800098 	cmpnei	r2,r2,2
  803c10:	1000041e 	bne	r2,zero,803c24 <chk_mounted+0x694>
  803c14:	e0bff717 	ldw	r2,-36(fp)
  803c18:	10800617 	ldw	r2,24(r2)
  803c1c:	1085883a 	add	r2,r2,r2
  803c20:	00000a06 	br	803c4c <chk_mounted+0x6bc>
  803c24:	e0bff717 	ldw	r2,-36(fp)
  803c28:	10c00617 	ldw	r3,24(r2)
  803c2c:	1805883a 	mov	r2,r3
  803c30:	1085883a 	add	r2,r2,r2
  803c34:	10c5883a 	add	r2,r2,r3
  803c38:	1006d07a 	srli	r3,r2,1
  803c3c:	e0bff717 	ldw	r2,-36(fp)
  803c40:	10800617 	ldw	r2,24(r2)
  803c44:	1080004c 	andi	r2,r2,1
  803c48:	1885883a 	add	r2,r3,r2
  803c4c:	e0bff515 	stw	r2,-44(fp)
  803c50:	e0bff717 	ldw	r2,-36(fp)
  803c54:	10c00717 	ldw	r3,28(r2)
  803c58:	e0bff517 	ldw	r2,-44(fp)
  803c5c:	10807fc4 	addi	r2,r2,511
  803c60:	1004d27a 	srli	r2,r2,9
  803c64:	1880022e 	bgeu	r3,r2,803c70 <chk_mounted+0x6e0>
  803c68:	00800344 	movi	r2,13
  803c6c:	00009306 	br	803ebc <chk_mounted+0x92c>
  803c70:	e0bff717 	ldw	r2,-36(fp)
  803c74:	00ffffc4 	movi	r3,-1
  803c78:	10c00415 	stw	r3,16(r2)
  803c7c:	e0bff717 	ldw	r2,-36(fp)
  803c80:	10000315 	stw	zero,12(r2)
  803c84:	e0bff003 	ldbu	r2,-64(fp)
  803c88:	108000d8 	cmpnei	r2,r2,3
  803c8c:	10007d1e 	bne	r2,zero,803e84 <chk_mounted+0x8f4>
  803c90:	e0bff717 	ldw	r2,-36(fp)
  803c94:	10000145 	stb	zero,5(r2)
  803c98:	e0bff717 	ldw	r2,-36(fp)
  803c9c:	10801843 	ldbu	r2,97(r2)
  803ca0:	10803fcc 	andi	r2,r2,255
  803ca4:	1004923a 	slli	r2,r2,8
  803ca8:	1007883a 	mov	r3,r2
  803cac:	e0bff717 	ldw	r2,-36(fp)
  803cb0:	10801803 	ldbu	r2,96(r2)
  803cb4:	10803fcc 	andi	r2,r2,255
  803cb8:	1884b03a 	or	r2,r3,r2
  803cbc:	10ffffcc 	andi	r3,r2,65535
  803cc0:	e0bff217 	ldw	r2,-56(fp)
  803cc4:	1887883a 	add	r3,r3,r2
  803cc8:	e0bff717 	ldw	r2,-36(fp)
  803ccc:	10c00515 	stw	r3,20(r2)
  803cd0:	e0bff717 	ldw	r2,-36(fp)
  803cd4:	10800043 	ldbu	r2,1(r2)
  803cd8:	10c03fcc 	andi	r3,r2,255
  803cdc:	e0bff717 	ldw	r2,-36(fp)
  803ce0:	11000c04 	addi	r4,r2,48
  803ce4:	e0bff717 	ldw	r2,-36(fp)
  803ce8:	10800517 	ldw	r2,20(r2)
  803cec:	01c00044 	movi	r7,1
  803cf0:	100d883a 	mov	r6,r2
  803cf4:	200b883a 	mov	r5,r4
  803cf8:	1809883a 	mov	r4,r3
  803cfc:	0800e080 	call	800e08 <ffs_DiskIORead>
  803d00:	1000601e 	bne	r2,zero,803e84 <chk_mounted+0x8f4>
  803d04:	e0bff717 	ldw	r2,-36(fp)
  803d08:	10808bc3 	ldbu	r2,559(r2)
  803d0c:	10803fcc 	andi	r2,r2,255
  803d10:	1004923a 	slli	r2,r2,8
  803d14:	1007883a 	mov	r3,r2
  803d18:	e0bff717 	ldw	r2,-36(fp)
  803d1c:	10808b83 	ldbu	r2,558(r2)
  803d20:	10803fcc 	andi	r2,r2,255
  803d24:	1884b03a 	or	r2,r3,r2
  803d28:	10bfffcc 	andi	r2,r2,65535
  803d2c:	10a0001c 	xori	r2,r2,32768
  803d30:	10a00004 	addi	r2,r2,-32768
  803d34:	10aa9558 	cmpnei	r2,r2,-21931
  803d38:	1000521e 	bne	r2,zero,803e84 <chk_mounted+0x8f4>
  803d3c:	e0bff717 	ldw	r2,-36(fp)
  803d40:	10800cc3 	ldbu	r2,51(r2)
  803d44:	10803fcc 	andi	r2,r2,255
  803d48:	1006963a 	slli	r3,r2,24
  803d4c:	e0bff717 	ldw	r2,-36(fp)
  803d50:	10800c83 	ldbu	r2,50(r2)
  803d54:	10803fcc 	andi	r2,r2,255
  803d58:	1004943a 	slli	r2,r2,16
  803d5c:	1884b03a 	or	r2,r3,r2
  803d60:	e0fff717 	ldw	r3,-36(fp)
  803d64:	18c00c43 	ldbu	r3,49(r3)
  803d68:	18c03fcc 	andi	r3,r3,255
  803d6c:	1806923a 	slli	r3,r3,8
  803d70:	10c6b03a 	or	r3,r2,r3
  803d74:	e0bff717 	ldw	r2,-36(fp)
  803d78:	10800c03 	ldbu	r2,48(r2)
  803d7c:	10803fcc 	andi	r2,r2,255
  803d80:	1886b03a 	or	r3,r3,r2
  803d84:	00905874 	movhi	r2,16737
  803d88:	10949484 	addi	r2,r2,21074
  803d8c:	18803d1e 	bne	r3,r2,803e84 <chk_mounted+0x8f4>
  803d90:	e0bff717 	ldw	r2,-36(fp)
  803d94:	108085c3 	ldbu	r2,535(r2)
  803d98:	10803fcc 	andi	r2,r2,255
  803d9c:	1006963a 	slli	r3,r2,24
  803da0:	e0bff717 	ldw	r2,-36(fp)
  803da4:	10808583 	ldbu	r2,534(r2)
  803da8:	10803fcc 	andi	r2,r2,255
  803dac:	1004943a 	slli	r2,r2,16
  803db0:	1884b03a 	or	r2,r3,r2
  803db4:	e0fff717 	ldw	r3,-36(fp)
  803db8:	18c08543 	ldbu	r3,533(r3)
  803dbc:	18c03fcc 	andi	r3,r3,255
  803dc0:	1806923a 	slli	r3,r3,8
  803dc4:	10c6b03a 	or	r3,r2,r3
  803dc8:	e0bff717 	ldw	r2,-36(fp)
  803dcc:	10808503 	ldbu	r2,532(r2)
  803dd0:	10803fcc 	andi	r2,r2,255
  803dd4:	1886b03a 	or	r3,r3,r2
  803dd8:	00985074 	movhi	r2,24897
  803ddc:	109c9c84 	addi	r2,r2,29298
  803de0:	1880281e 	bne	r3,r2,803e84 <chk_mounted+0x8f4>
  803de4:	e0bff717 	ldw	r2,-36(fp)
  803de8:	108087c3 	ldbu	r2,543(r2)
  803dec:	10803fcc 	andi	r2,r2,255
  803df0:	1006963a 	slli	r3,r2,24
  803df4:	e0bff717 	ldw	r2,-36(fp)
  803df8:	10808783 	ldbu	r2,542(r2)
  803dfc:	10803fcc 	andi	r2,r2,255
  803e00:	1004943a 	slli	r2,r2,16
  803e04:	1884b03a 	or	r2,r3,r2
  803e08:	e0fff717 	ldw	r3,-36(fp)
  803e0c:	18c08743 	ldbu	r3,541(r3)
  803e10:	18c03fcc 	andi	r3,r3,255
  803e14:	1806923a 	slli	r3,r3,8
  803e18:	10c6b03a 	or	r3,r2,r3
  803e1c:	e0bff717 	ldw	r2,-36(fp)
  803e20:	10808703 	ldbu	r2,540(r2)
  803e24:	10803fcc 	andi	r2,r2,255
  803e28:	1886b03a 	or	r3,r3,r2
  803e2c:	e0bff717 	ldw	r2,-36(fp)
  803e30:	10c00315 	stw	r3,12(r2)
  803e34:	e0bff717 	ldw	r2,-36(fp)
  803e38:	108086c3 	ldbu	r2,539(r2)
  803e3c:	10803fcc 	andi	r2,r2,255
  803e40:	1006963a 	slli	r3,r2,24
  803e44:	e0bff717 	ldw	r2,-36(fp)
  803e48:	10808683 	ldbu	r2,538(r2)
  803e4c:	10803fcc 	andi	r2,r2,255
  803e50:	1004943a 	slli	r2,r2,16
  803e54:	1884b03a 	or	r2,r3,r2
  803e58:	e0fff717 	ldw	r3,-36(fp)
  803e5c:	18c08643 	ldbu	r3,537(r3)
  803e60:	18c03fcc 	andi	r3,r3,255
  803e64:	1806923a 	slli	r3,r3,8
  803e68:	10c6b03a 	or	r3,r2,r3
  803e6c:	e0bff717 	ldw	r2,-36(fp)
  803e70:	10808603 	ldbu	r2,536(r2)
  803e74:	10803fcc 	andi	r2,r2,255
  803e78:	1886b03a 	or	r3,r3,r2
  803e7c:	e0bff717 	ldw	r2,-36(fp)
  803e80:	10c00415 	stw	r3,16(r2)
  803e84:	e0bff717 	ldw	r2,-36(fp)
  803e88:	e0fff003 	ldbu	r3,-64(fp)
  803e8c:	10c00005 	stb	r3,0(r2)
  803e90:	d0a3660b 	ldhu	r2,-29288(gp)
  803e94:	10800044 	addi	r2,r2,1
  803e98:	d0a3660d 	sth	r2,-29288(gp)
  803e9c:	d0e3660b 	ldhu	r3,-29288(gp)
  803ea0:	e0bff717 	ldw	r2,-36(fp)
  803ea4:	10c0018d 	sth	r3,6(r2)
  803ea8:	e0bff717 	ldw	r2,-36(fp)
  803eac:	10000b15 	stw	zero,44(r2)
  803eb0:	e0bff717 	ldw	r2,-36(fp)
  803eb4:	10000105 	stb	zero,4(r2)
  803eb8:	0005883a 	mov	r2,zero
  803ebc:	e037883a 	mov	sp,fp
  803ec0:	dfc00117 	ldw	ra,4(sp)
  803ec4:	df000017 	ldw	fp,0(sp)
  803ec8:	dec00204 	addi	sp,sp,8
  803ecc:	f800283a 	ret

00803ed0 <validate>:
  803ed0:	defffc04 	addi	sp,sp,-16
  803ed4:	dfc00315 	stw	ra,12(sp)
  803ed8:	df000215 	stw	fp,8(sp)
  803edc:	df000204 	addi	fp,sp,8
  803ee0:	e13ffe15 	stw	r4,-8(fp)
  803ee4:	2805883a 	mov	r2,r5
  803ee8:	e0bfff0d 	sth	r2,-4(fp)
  803eec:	e0bffe17 	ldw	r2,-8(fp)
  803ef0:	10000926 	beq	r2,zero,803f18 <validate+0x48>
  803ef4:	e0bffe17 	ldw	r2,-8(fp)
  803ef8:	10800003 	ldbu	r2,0(r2)
  803efc:	10803fcc 	andi	r2,r2,255
  803f00:	10000526 	beq	r2,zero,803f18 <validate+0x48>
  803f04:	e0bffe17 	ldw	r2,-8(fp)
  803f08:	1080018b 	ldhu	r2,6(r2)
  803f0c:	10ffffcc 	andi	r3,r2,65535
  803f10:	e0bfff0b 	ldhu	r2,-4(fp)
  803f14:	18800226 	beq	r3,r2,803f20 <validate+0x50>
  803f18:	00800244 	movi	r2,9
  803f1c:	00000b06 	br	803f4c <validate+0x7c>
  803f20:	e0bffe17 	ldw	r2,-8(fp)
  803f24:	10800043 	ldbu	r2,1(r2)
  803f28:	10803fcc 	andi	r2,r2,255
  803f2c:	1009883a 	mov	r4,r2
  803f30:	0800de00 	call	800de0 <ffs_DiskIOStatus>
  803f34:	10803fcc 	andi	r2,r2,255
  803f38:	1080004c 	andi	r2,r2,1
  803f3c:	10000226 	beq	r2,zero,803f48 <validate+0x78>
  803f40:	008000c4 	movi	r2,3
  803f44:	00000106 	br	803f4c <validate+0x7c>
  803f48:	0005883a 	mov	r2,zero
  803f4c:	e037883a 	mov	sp,fp
  803f50:	dfc00117 	ldw	ra,4(sp)
  803f54:	df000017 	ldw	fp,0(sp)
  803f58:	dec00204 	addi	sp,sp,8
  803f5c:	f800283a 	ret

00803f60 <f_mount>:
  803f60:	defffc04 	addi	sp,sp,-16
  803f64:	df000315 	stw	fp,12(sp)
  803f68:	df000304 	addi	fp,sp,12
  803f6c:	2005883a 	mov	r2,r4
  803f70:	e17fff15 	stw	r5,-4(fp)
  803f74:	e0bffe05 	stb	r2,-8(fp)
  803f78:	e0bffe03 	ldbu	r2,-8(fp)
  803f7c:	10000226 	beq	r2,zero,803f88 <f_mount+0x28>
  803f80:	008002c4 	movi	r2,11
  803f84:	00001706 	br	803fe4 <f_mount+0x84>
  803f88:	e0bffe03 	ldbu	r2,-8(fp)
  803f8c:	1085883a 	add	r2,r2,r2
  803f90:	1087883a 	add	r3,r2,r2
  803f94:	d0a36504 	addi	r2,gp,-29292
  803f98:	1885883a 	add	r2,r3,r2
  803f9c:	10800017 	ldw	r2,0(r2)
  803fa0:	e0bffd15 	stw	r2,-12(fp)
  803fa4:	e0bffd17 	ldw	r2,-12(fp)
  803fa8:	10000226 	beq	r2,zero,803fb4 <f_mount+0x54>
  803fac:	e0bffd17 	ldw	r2,-12(fp)
  803fb0:	10000005 	stb	zero,0(r2)
  803fb4:	e0bfff17 	ldw	r2,-4(fp)
  803fb8:	10000226 	beq	r2,zero,803fc4 <f_mount+0x64>
  803fbc:	e0bfff17 	ldw	r2,-4(fp)
  803fc0:	10000005 	stb	zero,0(r2)
  803fc4:	e0bffe03 	ldbu	r2,-8(fp)
  803fc8:	1085883a 	add	r2,r2,r2
  803fcc:	1087883a 	add	r3,r2,r2
  803fd0:	d0a36504 	addi	r2,gp,-29292
  803fd4:	1885883a 	add	r2,r3,r2
  803fd8:	e0ffff17 	ldw	r3,-4(fp)
  803fdc:	10c00015 	stw	r3,0(r2)
  803fe0:	0005883a 	mov	r2,zero
  803fe4:	e037883a 	mov	sp,fp
  803fe8:	df000017 	ldw	fp,0(sp)
  803fec:	dec00104 	addi	sp,sp,4
  803ff0:	f800283a 	ret

00803ff4 <f_open>:
  803ff4:	deffed04 	addi	sp,sp,-76
  803ff8:	dfc01215 	stw	ra,72(sp)
  803ffc:	df001115 	stw	fp,68(sp)
  804000:	df001104 	addi	fp,sp,68
  804004:	e13ffd15 	stw	r4,-12(fp)
  804008:	e17ffe15 	stw	r5,-8(fp)
  80400c:	3005883a 	mov	r2,r6
  804010:	e0bfff05 	stb	r2,-4(fp)
  804014:	e0bffd17 	ldw	r2,-12(fp)
  804018:	10000015 	stw	zero,0(r2)
  80401c:	e0bfff03 	ldbu	r2,-4(fp)
  804020:	108007cc 	andi	r2,r2,31
  804024:	e0bfff05 	stb	r2,-4(fp)
  804028:	e0bfff03 	ldbu	r2,-4(fp)
  80402c:	11003f8c 	andi	r4,r2,254
  804030:	e0fff304 	addi	r3,fp,-52
  804034:	e0bffe04 	addi	r2,fp,-8
  804038:	200d883a 	mov	r6,r4
  80403c:	180b883a 	mov	r5,r3
  804040:	1009883a 	mov	r4,r2
  804044:	08035900 	call	803590 <chk_mounted>
  804048:	e0bfef15 	stw	r2,-68(fp)
  80404c:	e0bffa04 	addi	r2,fp,-24
  804050:	e0bff915 	stw	r2,-28(fp)
  804054:	e0bfef17 	ldw	r2,-68(fp)
  804058:	1000061e 	bne	r2,zero,804074 <f_open+0x80>
  80405c:	e0fffe17 	ldw	r3,-8(fp)
  804060:	e0bff304 	addi	r2,fp,-52
  804064:	180b883a 	mov	r5,r3
  804068:	1009883a 	mov	r4,r2
  80406c:	08032080 	call	803208 <follow_path>
  804070:	e0bfef15 	stw	r2,-68(fp)
  804074:	e0bff817 	ldw	r2,-32(fp)
  804078:	e0bff015 	stw	r2,-64(fp)
  80407c:	e0bfef17 	ldw	r2,-68(fp)
  804080:	1000041e 	bne	r2,zero,804094 <f_open+0xa0>
  804084:	e0bff017 	ldw	r2,-64(fp)
  804088:	1000021e 	bne	r2,zero,804094 <f_open+0xa0>
  80408c:	00800184 	movi	r2,6
  804090:	e0bfef15 	stw	r2,-68(fp)
  804094:	e0bfff03 	ldbu	r2,-4(fp)
  804098:	1080070c 	andi	r2,r2,28
  80409c:	10008726 	beq	r2,zero,8042bc <f_open+0x2c8>
  8040a0:	e0bfef17 	ldw	r2,-68(fp)
  8040a4:	10000d26 	beq	r2,zero,8040dc <f_open+0xe8>
  8040a8:	e0bfef17 	ldw	r2,-68(fp)
  8040ac:	10800118 	cmpnei	r2,r2,4
  8040b0:	1000041e 	bne	r2,zero,8040c4 <f_open+0xd0>
  8040b4:	e0bff304 	addi	r2,fp,-52
  8040b8:	1009883a 	mov	r4,r2
  8040bc:	0802b240 	call	802b24 <dir_register>
  8040c0:	e0bfef15 	stw	r2,-68(fp)
  8040c4:	e0bfff03 	ldbu	r2,-4(fp)
  8040c8:	10800214 	ori	r2,r2,8
  8040cc:	e0bfff05 	stb	r2,-4(fp)
  8040d0:	e0bff817 	ldw	r2,-32(fp)
  8040d4:	e0bff015 	stw	r2,-64(fp)
  8040d8:	00000e06 	br	804114 <f_open+0x120>
  8040dc:	e0bff017 	ldw	r2,-64(fp)
  8040e0:	108002c4 	addi	r2,r2,11
  8040e4:	10800003 	ldbu	r2,0(r2)
  8040e8:	10803fcc 	andi	r2,r2,255
  8040ec:	1080044c 	andi	r2,r2,17
  8040f0:	10000326 	beq	r2,zero,804100 <f_open+0x10c>
  8040f4:	008001c4 	movi	r2,7
  8040f8:	e0bfef15 	stw	r2,-68(fp)
  8040fc:	00000506 	br	804114 <f_open+0x120>
  804100:	e0bfff03 	ldbu	r2,-4(fp)
  804104:	1080010c 	andi	r2,r2,4
  804108:	10000226 	beq	r2,zero,804114 <f_open+0x120>
  80410c:	00800204 	movi	r2,8
  804110:	e0bfef15 	stw	r2,-68(fp)
  804114:	e0bfef17 	ldw	r2,-68(fp)
  804118:	10007e1e 	bne	r2,zero,804314 <f_open+0x320>
  80411c:	e0bfff03 	ldbu	r2,-4(fp)
  804120:	1080020c 	andi	r2,r2,8
  804124:	10007b26 	beq	r2,zero,804314 <f_open+0x320>
  804128:	080155c0 	call	80155c <get_fattime>
  80412c:	e0bff115 	stw	r2,-60(fp)
  804130:	e0bff017 	ldw	r2,-64(fp)
  804134:	10800384 	addi	r2,r2,14
  804138:	e0fff117 	ldw	r3,-60(fp)
  80413c:	10c00005 	stb	r3,0(r2)
  804140:	e0bff017 	ldw	r2,-64(fp)
  804144:	108003c4 	addi	r2,r2,15
  804148:	e0fff117 	ldw	r3,-60(fp)
  80414c:	18ffffcc 	andi	r3,r3,65535
  804150:	1807d23a 	srai	r3,r3,8
  804154:	10c00005 	stb	r3,0(r2)
  804158:	e0bff017 	ldw	r2,-64(fp)
  80415c:	10800404 	addi	r2,r2,16
  804160:	e0fff117 	ldw	r3,-60(fp)
  804164:	1806d43a 	srli	r3,r3,16
  804168:	10c00005 	stb	r3,0(r2)
  80416c:	e0bff017 	ldw	r2,-64(fp)
  804170:	10800444 	addi	r2,r2,17
  804174:	e0fff117 	ldw	r3,-60(fp)
  804178:	1806d63a 	srli	r3,r3,24
  80417c:	10c00005 	stb	r3,0(r2)
  804180:	e0bff017 	ldw	r2,-64(fp)
  804184:	108002c4 	addi	r2,r2,11
  804188:	10000005 	stb	zero,0(r2)
  80418c:	e0bff017 	ldw	r2,-64(fp)
  804190:	10800704 	addi	r2,r2,28
  804194:	10000005 	stb	zero,0(r2)
  804198:	e0bff017 	ldw	r2,-64(fp)
  80419c:	10800744 	addi	r2,r2,29
  8041a0:	10000005 	stb	zero,0(r2)
  8041a4:	e0bff017 	ldw	r2,-64(fp)
  8041a8:	10800784 	addi	r2,r2,30
  8041ac:	10000005 	stb	zero,0(r2)
  8041b0:	e0bff017 	ldw	r2,-64(fp)
  8041b4:	108007c4 	addi	r2,r2,31
  8041b8:	10000005 	stb	zero,0(r2)
  8041bc:	e0bff017 	ldw	r2,-64(fp)
  8041c0:	10800544 	addi	r2,r2,21
  8041c4:	10800003 	ldbu	r2,0(r2)
  8041c8:	10803fcc 	andi	r2,r2,255
  8041cc:	1004923a 	slli	r2,r2,8
  8041d0:	1007883a 	mov	r3,r2
  8041d4:	e0bff017 	ldw	r2,-64(fp)
  8041d8:	10800504 	addi	r2,r2,20
  8041dc:	10800003 	ldbu	r2,0(r2)
  8041e0:	10803fcc 	andi	r2,r2,255
  8041e4:	1884b03a 	or	r2,r3,r2
  8041e8:	10bfffcc 	andi	r2,r2,65535
  8041ec:	1006943a 	slli	r3,r2,16
  8041f0:	e0bff017 	ldw	r2,-64(fp)
  8041f4:	108006c4 	addi	r2,r2,27
  8041f8:	10800003 	ldbu	r2,0(r2)
  8041fc:	10803fcc 	andi	r2,r2,255
  804200:	1004923a 	slli	r2,r2,8
  804204:	1009883a 	mov	r4,r2
  804208:	e0bff017 	ldw	r2,-64(fp)
  80420c:	10800684 	addi	r2,r2,26
  804210:	10800003 	ldbu	r2,0(r2)
  804214:	10803fcc 	andi	r2,r2,255
  804218:	2084b03a 	or	r2,r4,r2
  80421c:	10bfffcc 	andi	r2,r2,65535
  804220:	1884b03a 	or	r2,r3,r2
  804224:	e0bff215 	stw	r2,-56(fp)
  804228:	e0bff017 	ldw	r2,-64(fp)
  80422c:	10800684 	addi	r2,r2,26
  804230:	10000005 	stb	zero,0(r2)
  804234:	e0bff017 	ldw	r2,-64(fp)
  804238:	108006c4 	addi	r2,r2,27
  80423c:	10000005 	stb	zero,0(r2)
  804240:	e0bff017 	ldw	r2,-64(fp)
  804244:	10800504 	addi	r2,r2,20
  804248:	10000005 	stb	zero,0(r2)
  80424c:	e0bff017 	ldw	r2,-64(fp)
  804250:	10800544 	addi	r2,r2,21
  804254:	10000005 	stb	zero,0(r2)
  804258:	e0bff317 	ldw	r2,-52(fp)
  80425c:	00c00044 	movi	r3,1
  804260:	10c00105 	stb	r3,4(r2)
  804264:	e0bff217 	ldw	r2,-56(fp)
  804268:	10002a26 	beq	r2,zero,804314 <f_open+0x320>
  80426c:	e0bff317 	ldw	r2,-52(fp)
  804270:	10800b17 	ldw	r2,44(r2)
  804274:	e0bff115 	stw	r2,-60(fp)
  804278:	e0bff317 	ldw	r2,-52(fp)
  80427c:	e17ff217 	ldw	r5,-56(fp)
  804280:	1009883a 	mov	r4,r2
  804284:	08021540 	call	802154 <remove_chain>
  804288:	e0bfef15 	stw	r2,-68(fp)
  80428c:	e0bfef17 	ldw	r2,-68(fp)
  804290:	1000201e 	bne	r2,zero,804314 <f_open+0x320>
  804294:	e0bff317 	ldw	r2,-52(fp)
  804298:	e0fff217 	ldw	r3,-56(fp)
  80429c:	18ffffc4 	addi	r3,r3,-1
  8042a0:	10c00315 	stw	r3,12(r2)
  8042a4:	e0bff317 	ldw	r2,-52(fp)
  8042a8:	e17ff117 	ldw	r5,-60(fp)
  8042ac:	1009883a 	mov	r4,r2
  8042b0:	080175c0 	call	80175c <move_window>
  8042b4:	e0bfef15 	stw	r2,-68(fp)
  8042b8:	00001606 	br	804314 <f_open+0x320>
  8042bc:	e0bfef17 	ldw	r2,-68(fp)
  8042c0:	1000141e 	bne	r2,zero,804314 <f_open+0x320>
  8042c4:	e0bff017 	ldw	r2,-64(fp)
  8042c8:	108002c4 	addi	r2,r2,11
  8042cc:	10800003 	ldbu	r2,0(r2)
  8042d0:	10803fcc 	andi	r2,r2,255
  8042d4:	1080040c 	andi	r2,r2,16
  8042d8:	10000326 	beq	r2,zero,8042e8 <f_open+0x2f4>
  8042dc:	00800104 	movi	r2,4
  8042e0:	e0bfef15 	stw	r2,-68(fp)
  8042e4:	00000b06 	br	804314 <f_open+0x320>
  8042e8:	e0bfff03 	ldbu	r2,-4(fp)
  8042ec:	1080008c 	andi	r2,r2,2
  8042f0:	10000826 	beq	r2,zero,804314 <f_open+0x320>
  8042f4:	e0bff017 	ldw	r2,-64(fp)
  8042f8:	108002c4 	addi	r2,r2,11
  8042fc:	10800003 	ldbu	r2,0(r2)
  804300:	10803fcc 	andi	r2,r2,255
  804304:	1080004c 	andi	r2,r2,1
  804308:	10000226 	beq	r2,zero,804314 <f_open+0x320>
  80430c:	008001c4 	movi	r2,7
  804310:	e0bfef15 	stw	r2,-68(fp)
  804314:	e0bfef17 	ldw	r2,-68(fp)
  804318:	10000d1e 	bne	r2,zero,804350 <f_open+0x35c>
  80431c:	e0bfff03 	ldbu	r2,-4(fp)
  804320:	1080020c 	andi	r2,r2,8
  804324:	10000326 	beq	r2,zero,804334 <f_open+0x340>
  804328:	e0bfff03 	ldbu	r2,-4(fp)
  80432c:	10800814 	ori	r2,r2,32
  804330:	e0bfff05 	stb	r2,-4(fp)
  804334:	e0bff317 	ldw	r2,-52(fp)
  804338:	10c00b17 	ldw	r3,44(r2)
  80433c:	e0bffd17 	ldw	r2,-12(fp)
  804340:	10c00715 	stw	r3,28(r2)
  804344:	e0bffd17 	ldw	r2,-12(fp)
  804348:	e0fff017 	ldw	r3,-64(fp)
  80434c:	10c00815 	stw	r3,32(r2)
  804350:	e0bfef17 	ldw	r2,-68(fp)
  804354:	1000421e 	bne	r2,zero,804460 <f_open+0x46c>
  804358:	e0bffd17 	ldw	r2,-12(fp)
  80435c:	e0ffff03 	ldbu	r3,-4(fp)
  804360:	10c00185 	stb	r3,6(r2)
  804364:	e0bff017 	ldw	r2,-64(fp)
  804368:	10800544 	addi	r2,r2,21
  80436c:	10800003 	ldbu	r2,0(r2)
  804370:	10803fcc 	andi	r2,r2,255
  804374:	1004923a 	slli	r2,r2,8
  804378:	1007883a 	mov	r3,r2
  80437c:	e0bff017 	ldw	r2,-64(fp)
  804380:	10800504 	addi	r2,r2,20
  804384:	10800003 	ldbu	r2,0(r2)
  804388:	10803fcc 	andi	r2,r2,255
  80438c:	1884b03a 	or	r2,r3,r2
  804390:	10bfffcc 	andi	r2,r2,65535
  804394:	1006943a 	slli	r3,r2,16
  804398:	e0bff017 	ldw	r2,-64(fp)
  80439c:	108006c4 	addi	r2,r2,27
  8043a0:	10800003 	ldbu	r2,0(r2)
  8043a4:	10803fcc 	andi	r2,r2,255
  8043a8:	1004923a 	slli	r2,r2,8
  8043ac:	1009883a 	mov	r4,r2
  8043b0:	e0bff017 	ldw	r2,-64(fp)
  8043b4:	10800684 	addi	r2,r2,26
  8043b8:	10800003 	ldbu	r2,0(r2)
  8043bc:	10803fcc 	andi	r2,r2,255
  8043c0:	2084b03a 	or	r2,r4,r2
  8043c4:	10bfffcc 	andi	r2,r2,65535
  8043c8:	1886b03a 	or	r3,r3,r2
  8043cc:	e0bffd17 	ldw	r2,-12(fp)
  8043d0:	10c00415 	stw	r3,16(r2)
  8043d4:	e0bff017 	ldw	r2,-64(fp)
  8043d8:	108007c4 	addi	r2,r2,31
  8043dc:	10800003 	ldbu	r2,0(r2)
  8043e0:	10803fcc 	andi	r2,r2,255
  8043e4:	1006963a 	slli	r3,r2,24
  8043e8:	e0bff017 	ldw	r2,-64(fp)
  8043ec:	10800784 	addi	r2,r2,30
  8043f0:	10800003 	ldbu	r2,0(r2)
  8043f4:	10803fcc 	andi	r2,r2,255
  8043f8:	1004943a 	slli	r2,r2,16
  8043fc:	1884b03a 	or	r2,r3,r2
  804400:	e0fff017 	ldw	r3,-64(fp)
  804404:	18c00744 	addi	r3,r3,29
  804408:	18c00003 	ldbu	r3,0(r3)
  80440c:	18c03fcc 	andi	r3,r3,255
  804410:	1806923a 	slli	r3,r3,8
  804414:	10c6b03a 	or	r3,r2,r3
  804418:	e0bff017 	ldw	r2,-64(fp)
  80441c:	10800704 	addi	r2,r2,28
  804420:	10800003 	ldbu	r2,0(r2)
  804424:	10803fcc 	andi	r2,r2,255
  804428:	1886b03a 	or	r3,r3,r2
  80442c:	e0bffd17 	ldw	r2,-12(fp)
  804430:	10c00315 	stw	r3,12(r2)
  804434:	e0bffd17 	ldw	r2,-12(fp)
  804438:	10000215 	stw	zero,8(r2)
  80443c:	e0bffd17 	ldw	r2,-12(fp)
  804440:	10000615 	stw	zero,24(r2)
  804444:	e0fff317 	ldw	r3,-52(fp)
  804448:	e0bffd17 	ldw	r2,-12(fp)
  80444c:	10c00015 	stw	r3,0(r2)
  804450:	e0bff317 	ldw	r2,-52(fp)
  804454:	10c0018b 	ldhu	r3,6(r2)
  804458:	e0bffd17 	ldw	r2,-12(fp)
  80445c:	10c0010d 	sth	r3,4(r2)
  804460:	e0bfef17 	ldw	r2,-68(fp)
  804464:	e037883a 	mov	sp,fp
  804468:	dfc00117 	ldw	ra,4(sp)
  80446c:	df000017 	ldw	fp,0(sp)
  804470:	dec00204 	addi	sp,sp,8
  804474:	f800283a 	ret

00804478 <f_read>:
  804478:	defff204 	addi	sp,sp,-56
  80447c:	dfc00d15 	stw	ra,52(sp)
  804480:	df000c15 	stw	fp,48(sp)
  804484:	df000c04 	addi	fp,sp,48
  804488:	e13ffc15 	stw	r4,-16(fp)
  80448c:	e17ffd15 	stw	r5,-12(fp)
  804490:	e1bffe15 	stw	r6,-8(fp)
  804494:	e1ffff15 	stw	r7,-4(fp)
  804498:	e0bffd17 	ldw	r2,-12(fp)
  80449c:	e0bff715 	stw	r2,-36(fp)
  8044a0:	e0bfff17 	ldw	r2,-4(fp)
  8044a4:	10000015 	stw	zero,0(r2)
  8044a8:	e0bffc17 	ldw	r2,-16(fp)
  8044ac:	10c00017 	ldw	r3,0(r2)
  8044b0:	e0bffc17 	ldw	r2,-16(fp)
  8044b4:	1080010b 	ldhu	r2,4(r2)
  8044b8:	10bfffcc 	andi	r2,r2,65535
  8044bc:	100b883a 	mov	r5,r2
  8044c0:	1809883a 	mov	r4,r3
  8044c4:	0803ed00 	call	803ed0 <validate>
  8044c8:	e0bff815 	stw	r2,-32(fp)
  8044cc:	e0bff817 	ldw	r2,-32(fp)
  8044d0:	10000226 	beq	r2,zero,8044dc <f_read+0x64>
  8044d4:	e0bff817 	ldw	r2,-32(fp)
  8044d8:	00011c06 	br	80494c <f_read+0x4d4>
  8044dc:	e0bffc17 	ldw	r2,-16(fp)
  8044e0:	10800183 	ldbu	r2,6(r2)
  8044e4:	10803fcc 	andi	r2,r2,255
  8044e8:	1080201c 	xori	r2,r2,128
  8044ec:	10bfe004 	addi	r2,r2,-128
  8044f0:	1000020e 	bge	r2,zero,8044fc <f_read+0x84>
  8044f4:	00800084 	movi	r2,2
  8044f8:	00011406 	br	80494c <f_read+0x4d4>
  8044fc:	e0bffc17 	ldw	r2,-16(fp)
  804500:	10800183 	ldbu	r2,6(r2)
  804504:	10803fcc 	andi	r2,r2,255
  804508:	1080004c 	andi	r2,r2,1
  80450c:	1000021e 	bne	r2,zero,804518 <f_read+0xa0>
  804510:	008001c4 	movi	r2,7
  804514:	00010d06 	br	80494c <f_read+0x4d4>
  804518:	e0bffc17 	ldw	r2,-16(fp)
  80451c:	10c00317 	ldw	r3,12(r2)
  804520:	e0bffc17 	ldw	r2,-16(fp)
  804524:	10800217 	ldw	r2,8(r2)
  804528:	1885c83a 	sub	r2,r3,r2
  80452c:	e0bff915 	stw	r2,-28(fp)
  804530:	e0bffe17 	ldw	r2,-8(fp)
  804534:	e0fff917 	ldw	r3,-28(fp)
  804538:	1881012e 	bgeu	r3,r2,804940 <f_read+0x4c8>
  80453c:	e0bff917 	ldw	r2,-28(fp)
  804540:	e0bffe15 	stw	r2,-8(fp)
  804544:	0000fe06 	br	804940 <f_read+0x4c8>
  804548:	e0bffc17 	ldw	r2,-16(fp)
  80454c:	10800217 	ldw	r2,8(r2)
  804550:	10807fcc 	andi	r2,r2,511
  804554:	1000d11e 	bne	r2,zero,80489c <f_read+0x424>
  804558:	e0bffc17 	ldw	r2,-16(fp)
  80455c:	10800217 	ldw	r2,8(r2)
  804560:	1004d27a 	srli	r2,r2,9
  804564:	1007883a 	mov	r3,r2
  804568:	e0bffc17 	ldw	r2,-16(fp)
  80456c:	10800017 	ldw	r2,0(r2)
  804570:	10800083 	ldbu	r2,2(r2)
  804574:	10bfffc4 	addi	r2,r2,-1
  804578:	1884703a 	and	r2,r3,r2
  80457c:	e0bffa05 	stb	r2,-24(fp)
  804580:	e0bffa03 	ldbu	r2,-24(fp)
  804584:	10002a1e 	bne	r2,zero,804630 <f_read+0x1b8>
  804588:	e0bffc17 	ldw	r2,-16(fp)
  80458c:	10800217 	ldw	r2,8(r2)
  804590:	1000041e 	bne	r2,zero,8045a4 <f_read+0x12c>
  804594:	e0bffc17 	ldw	r2,-16(fp)
  804598:	10800417 	ldw	r2,16(r2)
  80459c:	e0bff415 	stw	r2,-48(fp)
  8045a0:	00000806 	br	8045c4 <f_read+0x14c>
  8045a4:	e0bffc17 	ldw	r2,-16(fp)
  8045a8:	10c00017 	ldw	r3,0(r2)
  8045ac:	e0bffc17 	ldw	r2,-16(fp)
  8045b0:	10800517 	ldw	r2,20(r2)
  8045b4:	100b883a 	mov	r5,r2
  8045b8:	1809883a 	mov	r4,r3
  8045bc:	0801b440 	call	801b44 <get_fat>
  8045c0:	e0bff415 	stw	r2,-48(fp)
  8045c4:	e0bff417 	ldw	r2,-48(fp)
  8045c8:	108000a8 	cmpgeui	r2,r2,2
  8045cc:	1000091e 	bne	r2,zero,8045f4 <f_read+0x17c>
  8045d0:	e0bffc17 	ldw	r2,-16(fp)
  8045d4:	10c00183 	ldbu	r3,6(r2)
  8045d8:	00bfe004 	movi	r2,-128
  8045dc:	1884b03a 	or	r2,r3,r2
  8045e0:	1007883a 	mov	r3,r2
  8045e4:	e0bffc17 	ldw	r2,-16(fp)
  8045e8:	10c00185 	stb	r3,6(r2)
  8045ec:	00800084 	movi	r2,2
  8045f0:	0000d606 	br	80494c <f_read+0x4d4>
  8045f4:	e0bff417 	ldw	r2,-48(fp)
  8045f8:	10bfffd8 	cmpnei	r2,r2,-1
  8045fc:	1000091e 	bne	r2,zero,804624 <f_read+0x1ac>
  804600:	e0bffc17 	ldw	r2,-16(fp)
  804604:	10c00183 	ldbu	r3,6(r2)
  804608:	00bfe004 	movi	r2,-128
  80460c:	1884b03a 	or	r2,r3,r2
  804610:	1007883a 	mov	r3,r2
  804614:	e0bffc17 	ldw	r2,-16(fp)
  804618:	10c00185 	stb	r3,6(r2)
  80461c:	00800044 	movi	r2,1
  804620:	0000ca06 	br	80494c <f_read+0x4d4>
  804624:	e0bffc17 	ldw	r2,-16(fp)
  804628:	e0fff417 	ldw	r3,-48(fp)
  80462c:	10c00515 	stw	r3,20(r2)
  804630:	e0bffc17 	ldw	r2,-16(fp)
  804634:	10c00017 	ldw	r3,0(r2)
  804638:	e0bffc17 	ldw	r2,-16(fp)
  80463c:	10800517 	ldw	r2,20(r2)
  804640:	100b883a 	mov	r5,r2
  804644:	1809883a 	mov	r4,r3
  804648:	0801ad80 	call	801ad8 <clust2sect>
  80464c:	e0bffb15 	stw	r2,-20(fp)
  804650:	e0bffb17 	ldw	r2,-20(fp)
  804654:	1000091e 	bne	r2,zero,80467c <f_read+0x204>
  804658:	e0bffc17 	ldw	r2,-16(fp)
  80465c:	10c00183 	ldbu	r3,6(r2)
  804660:	00bfe004 	movi	r2,-128
  804664:	1884b03a 	or	r2,r3,r2
  804668:	1007883a 	mov	r3,r2
  80466c:	e0bffc17 	ldw	r2,-16(fp)
  804670:	10c00185 	stb	r3,6(r2)
  804674:	00800084 	movi	r2,2
  804678:	0000b406 	br	80494c <f_read+0x4d4>
  80467c:	e0bffa03 	ldbu	r2,-24(fp)
  804680:	e0fffb17 	ldw	r3,-20(fp)
  804684:	1885883a 	add	r2,r3,r2
  804688:	e0bffb15 	stw	r2,-20(fp)
  80468c:	e0bffe17 	ldw	r2,-8(fp)
  804690:	1004d27a 	srli	r2,r2,9
  804694:	e0bff615 	stw	r2,-40(fp)
  804698:	e0bff617 	ldw	r2,-40(fp)
  80469c:	10004026 	beq	r2,zero,8047a0 <f_read+0x328>
  8046a0:	e0fffa03 	ldbu	r3,-24(fp)
  8046a4:	e0bff617 	ldw	r2,-40(fp)
  8046a8:	1885883a 	add	r2,r3,r2
  8046ac:	e0fffc17 	ldw	r3,-16(fp)
  8046b0:	18c00017 	ldw	r3,0(r3)
  8046b4:	18c00083 	ldbu	r3,2(r3)
  8046b8:	18c03fcc 	andi	r3,r3,255
  8046bc:	1880072e 	bgeu	r3,r2,8046dc <f_read+0x264>
  8046c0:	e0bffc17 	ldw	r2,-16(fp)
  8046c4:	10800017 	ldw	r2,0(r2)
  8046c8:	10800083 	ldbu	r2,2(r2)
  8046cc:	10c03fcc 	andi	r3,r2,255
  8046d0:	e0bffa03 	ldbu	r2,-24(fp)
  8046d4:	1885c83a 	sub	r2,r3,r2
  8046d8:	e0bff615 	stw	r2,-40(fp)
  8046dc:	e0bffc17 	ldw	r2,-16(fp)
  8046e0:	10800017 	ldw	r2,0(r2)
  8046e4:	10800043 	ldbu	r2,1(r2)
  8046e8:	10c03fcc 	andi	r3,r2,255
  8046ec:	e0bff617 	ldw	r2,-40(fp)
  8046f0:	10803fcc 	andi	r2,r2,255
  8046f4:	100f883a 	mov	r7,r2
  8046f8:	e1bffb17 	ldw	r6,-20(fp)
  8046fc:	e17ff717 	ldw	r5,-36(fp)
  804700:	1809883a 	mov	r4,r3
  804704:	0800e080 	call	800e08 <ffs_DiskIORead>
  804708:	10000926 	beq	r2,zero,804730 <f_read+0x2b8>
  80470c:	e0bffc17 	ldw	r2,-16(fp)
  804710:	10c00183 	ldbu	r3,6(r2)
  804714:	00bfe004 	movi	r2,-128
  804718:	1884b03a 	or	r2,r3,r2
  80471c:	1007883a 	mov	r3,r2
  804720:	e0bffc17 	ldw	r2,-16(fp)
  804724:	10c00185 	stb	r3,6(r2)
  804728:	00800044 	movi	r2,1
  80472c:	00008706 	br	80494c <f_read+0x4d4>
  804730:	e0bffc17 	ldw	r2,-16(fp)
  804734:	10800183 	ldbu	r2,6(r2)
  804738:	10803fcc 	andi	r2,r2,255
  80473c:	1080100c 	andi	r2,r2,64
  804740:	10001326 	beq	r2,zero,804790 <f_read+0x318>
  804744:	e0bffc17 	ldw	r2,-16(fp)
  804748:	10c00617 	ldw	r3,24(r2)
  80474c:	e0bffb17 	ldw	r2,-20(fp)
  804750:	1887c83a 	sub	r3,r3,r2
  804754:	e0bff617 	ldw	r2,-40(fp)
  804758:	18800d2e 	bgeu	r3,r2,804790 <f_read+0x318>
  80475c:	e0bffc17 	ldw	r2,-16(fp)
  804760:	10c00617 	ldw	r3,24(r2)
  804764:	e0bffb17 	ldw	r2,-20(fp)
  804768:	1885c83a 	sub	r2,r3,r2
  80476c:	1004927a 	slli	r2,r2,9
  804770:	e0fff717 	ldw	r3,-36(fp)
  804774:	1887883a 	add	r3,r3,r2
  804778:	e0bffc17 	ldw	r2,-16(fp)
  80477c:	10800904 	addi	r2,r2,36
  804780:	01808004 	movi	r6,512
  804784:	100b883a 	mov	r5,r2
  804788:	1809883a 	mov	r4,r3
  80478c:	08015880 	call	801588 <mem_cpy>
  804790:	e0bff617 	ldw	r2,-40(fp)
  804794:	1004927a 	slli	r2,r2,9
  804798:	e0bff515 	stw	r2,-44(fp)
  80479c:	00005406 	br	8048f0 <f_read+0x478>
  8047a0:	e0bffc17 	ldw	r2,-16(fp)
  8047a4:	10c00617 	ldw	r3,24(r2)
  8047a8:	e0bffb17 	ldw	r2,-20(fp)
  8047ac:	18803826 	beq	r3,r2,804890 <f_read+0x418>
  8047b0:	e0bffc17 	ldw	r2,-16(fp)
  8047b4:	10800183 	ldbu	r2,6(r2)
  8047b8:	10803fcc 	andi	r2,r2,255
  8047bc:	1080100c 	andi	r2,r2,64
  8047c0:	10001e26 	beq	r2,zero,80483c <f_read+0x3c4>
  8047c4:	e0bffc17 	ldw	r2,-16(fp)
  8047c8:	10800017 	ldw	r2,0(r2)
  8047cc:	10800043 	ldbu	r2,1(r2)
  8047d0:	10c03fcc 	andi	r3,r2,255
  8047d4:	e0bffc17 	ldw	r2,-16(fp)
  8047d8:	11000904 	addi	r4,r2,36
  8047dc:	e0bffc17 	ldw	r2,-16(fp)
  8047e0:	10800617 	ldw	r2,24(r2)
  8047e4:	01c00044 	movi	r7,1
  8047e8:	100d883a 	mov	r6,r2
  8047ec:	200b883a 	mov	r5,r4
  8047f0:	1809883a 	mov	r4,r3
  8047f4:	0800f280 	call	800f28 <ffs_DiskIOWrite>
  8047f8:	10000926 	beq	r2,zero,804820 <f_read+0x3a8>
  8047fc:	e0bffc17 	ldw	r2,-16(fp)
  804800:	10c00183 	ldbu	r3,6(r2)
  804804:	00bfe004 	movi	r2,-128
  804808:	1884b03a 	or	r2,r3,r2
  80480c:	1007883a 	mov	r3,r2
  804810:	e0bffc17 	ldw	r2,-16(fp)
  804814:	10c00185 	stb	r3,6(r2)
  804818:	00800044 	movi	r2,1
  80481c:	00004b06 	br	80494c <f_read+0x4d4>
  804820:	e0bffc17 	ldw	r2,-16(fp)
  804824:	10c00183 	ldbu	r3,6(r2)
  804828:	00bfefc4 	movi	r2,-65
  80482c:	1884703a 	and	r2,r3,r2
  804830:	1007883a 	mov	r3,r2
  804834:	e0bffc17 	ldw	r2,-16(fp)
  804838:	10c00185 	stb	r3,6(r2)
  80483c:	e0bffc17 	ldw	r2,-16(fp)
  804840:	10800017 	ldw	r2,0(r2)
  804844:	10800043 	ldbu	r2,1(r2)
  804848:	10c03fcc 	andi	r3,r2,255
  80484c:	e0bffc17 	ldw	r2,-16(fp)
  804850:	10800904 	addi	r2,r2,36
  804854:	01c00044 	movi	r7,1
  804858:	e1bffb17 	ldw	r6,-20(fp)
  80485c:	100b883a 	mov	r5,r2
  804860:	1809883a 	mov	r4,r3
  804864:	0800e080 	call	800e08 <ffs_DiskIORead>
  804868:	10000926 	beq	r2,zero,804890 <f_read+0x418>
  80486c:	e0bffc17 	ldw	r2,-16(fp)
  804870:	10c00183 	ldbu	r3,6(r2)
  804874:	00bfe004 	movi	r2,-128
  804878:	1884b03a 	or	r2,r3,r2
  80487c:	1007883a 	mov	r3,r2
  804880:	e0bffc17 	ldw	r2,-16(fp)
  804884:	10c00185 	stb	r3,6(r2)
  804888:	00800044 	movi	r2,1
  80488c:	00002f06 	br	80494c <f_read+0x4d4>
  804890:	e0bffc17 	ldw	r2,-16(fp)
  804894:	e0fffb17 	ldw	r3,-20(fp)
  804898:	10c00615 	stw	r3,24(r2)
  80489c:	e0bffc17 	ldw	r2,-16(fp)
  8048a0:	10800217 	ldw	r2,8(r2)
  8048a4:	10807fcc 	andi	r2,r2,511
  8048a8:	00c08004 	movi	r3,512
  8048ac:	1885c83a 	sub	r2,r3,r2
  8048b0:	e0bff515 	stw	r2,-44(fp)
  8048b4:	e0bff517 	ldw	r2,-44(fp)
  8048b8:	e0fffe17 	ldw	r3,-8(fp)
  8048bc:	1880022e 	bgeu	r3,r2,8048c8 <f_read+0x450>
  8048c0:	e0bffe17 	ldw	r2,-8(fp)
  8048c4:	e0bff515 	stw	r2,-44(fp)
  8048c8:	e0bffc17 	ldw	r2,-16(fp)
  8048cc:	10800217 	ldw	r2,8(r2)
  8048d0:	10807fcc 	andi	r2,r2,511
  8048d4:	10800904 	addi	r2,r2,36
  8048d8:	e0fffc17 	ldw	r3,-16(fp)
  8048dc:	1885883a 	add	r2,r3,r2
  8048e0:	e1bff517 	ldw	r6,-44(fp)
  8048e4:	100b883a 	mov	r5,r2
  8048e8:	e13ff717 	ldw	r4,-36(fp)
  8048ec:	08015880 	call	801588 <mem_cpy>
  8048f0:	e0fff717 	ldw	r3,-36(fp)
  8048f4:	e0bff517 	ldw	r2,-44(fp)
  8048f8:	1885883a 	add	r2,r3,r2
  8048fc:	e0bff715 	stw	r2,-36(fp)
  804900:	e0bffc17 	ldw	r2,-16(fp)
  804904:	10c00217 	ldw	r3,8(r2)
  804908:	e0bff517 	ldw	r2,-44(fp)
  80490c:	1887883a 	add	r3,r3,r2
  804910:	e0bffc17 	ldw	r2,-16(fp)
  804914:	10c00215 	stw	r3,8(r2)
  804918:	e0bfff17 	ldw	r2,-4(fp)
  80491c:	10c00017 	ldw	r3,0(r2)
  804920:	e0bff517 	ldw	r2,-44(fp)
  804924:	1887883a 	add	r3,r3,r2
  804928:	e0bfff17 	ldw	r2,-4(fp)
  80492c:	10c00015 	stw	r3,0(r2)
  804930:	e0fffe17 	ldw	r3,-8(fp)
  804934:	e0bff517 	ldw	r2,-44(fp)
  804938:	1885c83a 	sub	r2,r3,r2
  80493c:	e0bffe15 	stw	r2,-8(fp)
  804940:	e0bffe17 	ldw	r2,-8(fp)
  804944:	103f001e 	bne	r2,zero,804548 <__alt_data_end+0xff804548>
  804948:	0005883a 	mov	r2,zero
  80494c:	e037883a 	mov	sp,fp
  804950:	dfc00117 	ldw	ra,4(sp)
  804954:	df000017 	ldw	fp,0(sp)
  804958:	dec00204 	addi	sp,sp,8
  80495c:	f800283a 	ret

00804960 <f_write>:
  804960:	defff304 	addi	sp,sp,-52
  804964:	dfc00c15 	stw	ra,48(sp)
  804968:	df000b15 	stw	fp,44(sp)
  80496c:	df000b04 	addi	fp,sp,44
  804970:	e13ffc15 	stw	r4,-16(fp)
  804974:	e17ffd15 	stw	r5,-12(fp)
  804978:	e1bffe15 	stw	r6,-8(fp)
  80497c:	e1ffff15 	stw	r7,-4(fp)
  804980:	e0bffd17 	ldw	r2,-12(fp)
  804984:	e0bff815 	stw	r2,-32(fp)
  804988:	e0bfff17 	ldw	r2,-4(fp)
  80498c:	10000015 	stw	zero,0(r2)
  804990:	e0bffc17 	ldw	r2,-16(fp)
  804994:	10c00017 	ldw	r3,0(r2)
  804998:	e0bffc17 	ldw	r2,-16(fp)
  80499c:	1080010b 	ldhu	r2,4(r2)
  8049a0:	10bfffcc 	andi	r2,r2,65535
  8049a4:	100b883a 	mov	r5,r2
  8049a8:	1809883a 	mov	r4,r3
  8049ac:	0803ed00 	call	803ed0 <validate>
  8049b0:	e0bff915 	stw	r2,-28(fp)
  8049b4:	e0bff917 	ldw	r2,-28(fp)
  8049b8:	10000226 	beq	r2,zero,8049c4 <f_write+0x64>
  8049bc:	e0bff917 	ldw	r2,-28(fp)
  8049c0:	00014306 	br	804ed0 <f_write+0x570>
  8049c4:	e0bffc17 	ldw	r2,-16(fp)
  8049c8:	10800183 	ldbu	r2,6(r2)
  8049cc:	10803fcc 	andi	r2,r2,255
  8049d0:	1080201c 	xori	r2,r2,128
  8049d4:	10bfe004 	addi	r2,r2,-128
  8049d8:	1000020e 	bge	r2,zero,8049e4 <f_write+0x84>
  8049dc:	00800084 	movi	r2,2
  8049e0:	00013b06 	br	804ed0 <f_write+0x570>
  8049e4:	e0bffc17 	ldw	r2,-16(fp)
  8049e8:	10800183 	ldbu	r2,6(r2)
  8049ec:	10803fcc 	andi	r2,r2,255
  8049f0:	1080008c 	andi	r2,r2,2
  8049f4:	1000021e 	bne	r2,zero,804a00 <f_write+0xa0>
  8049f8:	008001c4 	movi	r2,7
  8049fc:	00013406 	br	804ed0 <f_write+0x570>
  804a00:	e0bffc17 	ldw	r2,-16(fp)
  804a04:	10c00317 	ldw	r3,12(r2)
  804a08:	e0bffe17 	ldw	r2,-8(fp)
  804a0c:	1887883a 	add	r3,r3,r2
  804a10:	e0bffc17 	ldw	r2,-16(fp)
  804a14:	10800317 	ldw	r2,12(r2)
  804a18:	1881192e 	bgeu	r3,r2,804e80 <f_write+0x520>
  804a1c:	e03ffe15 	stw	zero,-8(fp)
  804a20:	00011706 	br	804e80 <f_write+0x520>
  804a24:	e0bffc17 	ldw	r2,-16(fp)
  804a28:	10800217 	ldw	r2,8(r2)
  804a2c:	10807fcc 	andi	r2,r2,511
  804a30:	1000e41e 	bne	r2,zero,804dc4 <f_write+0x464>
  804a34:	e0bffc17 	ldw	r2,-16(fp)
  804a38:	10800217 	ldw	r2,8(r2)
  804a3c:	1004d27a 	srli	r2,r2,9
  804a40:	1007883a 	mov	r3,r2
  804a44:	e0bffc17 	ldw	r2,-16(fp)
  804a48:	10800017 	ldw	r2,0(r2)
  804a4c:	10800083 	ldbu	r2,2(r2)
  804a50:	10bfffc4 	addi	r2,r2,-1
  804a54:	1884703a 	and	r2,r3,r2
  804a58:	e0bffa05 	stb	r2,-24(fp)
  804a5c:	e0bffa03 	ldbu	r2,-24(fp)
  804a60:	1000371e 	bne	r2,zero,804b40 <f_write+0x1e0>
  804a64:	e0bffc17 	ldw	r2,-16(fp)
  804a68:	10800217 	ldw	r2,8(r2)
  804a6c:	10000f1e 	bne	r2,zero,804aac <f_write+0x14c>
  804a70:	e0bffc17 	ldw	r2,-16(fp)
  804a74:	10800417 	ldw	r2,16(r2)
  804a78:	e0bff515 	stw	r2,-44(fp)
  804a7c:	e0bff517 	ldw	r2,-44(fp)
  804a80:	1000121e 	bne	r2,zero,804acc <f_write+0x16c>
  804a84:	e0bffc17 	ldw	r2,-16(fp)
  804a88:	10800017 	ldw	r2,0(r2)
  804a8c:	000b883a 	mov	r5,zero
  804a90:	1009883a 	mov	r4,r2
  804a94:	08022700 	call	802270 <create_chain>
  804a98:	e0bff515 	stw	r2,-44(fp)
  804a9c:	e0bffc17 	ldw	r2,-16(fp)
  804aa0:	e0fff517 	ldw	r3,-44(fp)
  804aa4:	10c00415 	stw	r3,16(r2)
  804aa8:	00000806 	br	804acc <f_write+0x16c>
  804aac:	e0bffc17 	ldw	r2,-16(fp)
  804ab0:	10c00017 	ldw	r3,0(r2)
  804ab4:	e0bffc17 	ldw	r2,-16(fp)
  804ab8:	10800517 	ldw	r2,20(r2)
  804abc:	100b883a 	mov	r5,r2
  804ac0:	1809883a 	mov	r4,r3
  804ac4:	08022700 	call	802270 <create_chain>
  804ac8:	e0bff515 	stw	r2,-44(fp)
  804acc:	e0bff517 	ldw	r2,-44(fp)
  804ad0:	1000ee26 	beq	r2,zero,804e8c <f_write+0x52c>
  804ad4:	e0bff517 	ldw	r2,-44(fp)
  804ad8:	10800058 	cmpnei	r2,r2,1
  804adc:	1000091e 	bne	r2,zero,804b04 <f_write+0x1a4>
  804ae0:	e0bffc17 	ldw	r2,-16(fp)
  804ae4:	10c00183 	ldbu	r3,6(r2)
  804ae8:	00bfe004 	movi	r2,-128
  804aec:	1884b03a 	or	r2,r3,r2
  804af0:	1007883a 	mov	r3,r2
  804af4:	e0bffc17 	ldw	r2,-16(fp)
  804af8:	10c00185 	stb	r3,6(r2)
  804afc:	00800084 	movi	r2,2
  804b00:	0000f306 	br	804ed0 <f_write+0x570>
  804b04:	e0bff517 	ldw	r2,-44(fp)
  804b08:	10bfffd8 	cmpnei	r2,r2,-1
  804b0c:	1000091e 	bne	r2,zero,804b34 <f_write+0x1d4>
  804b10:	e0bffc17 	ldw	r2,-16(fp)
  804b14:	10c00183 	ldbu	r3,6(r2)
  804b18:	00bfe004 	movi	r2,-128
  804b1c:	1884b03a 	or	r2,r3,r2
  804b20:	1007883a 	mov	r3,r2
  804b24:	e0bffc17 	ldw	r2,-16(fp)
  804b28:	10c00185 	stb	r3,6(r2)
  804b2c:	00800044 	movi	r2,1
  804b30:	0000e706 	br	804ed0 <f_write+0x570>
  804b34:	e0bffc17 	ldw	r2,-16(fp)
  804b38:	e0fff517 	ldw	r3,-44(fp)
  804b3c:	10c00515 	stw	r3,20(r2)
  804b40:	e0bffc17 	ldw	r2,-16(fp)
  804b44:	10800183 	ldbu	r2,6(r2)
  804b48:	10803fcc 	andi	r2,r2,255
  804b4c:	1080100c 	andi	r2,r2,64
  804b50:	10001e26 	beq	r2,zero,804bcc <f_write+0x26c>
  804b54:	e0bffc17 	ldw	r2,-16(fp)
  804b58:	10800017 	ldw	r2,0(r2)
  804b5c:	10800043 	ldbu	r2,1(r2)
  804b60:	10c03fcc 	andi	r3,r2,255
  804b64:	e0bffc17 	ldw	r2,-16(fp)
  804b68:	11000904 	addi	r4,r2,36
  804b6c:	e0bffc17 	ldw	r2,-16(fp)
  804b70:	10800617 	ldw	r2,24(r2)
  804b74:	01c00044 	movi	r7,1
  804b78:	100d883a 	mov	r6,r2
  804b7c:	200b883a 	mov	r5,r4
  804b80:	1809883a 	mov	r4,r3
  804b84:	0800f280 	call	800f28 <ffs_DiskIOWrite>
  804b88:	10000926 	beq	r2,zero,804bb0 <f_write+0x250>
  804b8c:	e0bffc17 	ldw	r2,-16(fp)
  804b90:	10c00183 	ldbu	r3,6(r2)
  804b94:	00bfe004 	movi	r2,-128
  804b98:	1884b03a 	or	r2,r3,r2
  804b9c:	1007883a 	mov	r3,r2
  804ba0:	e0bffc17 	ldw	r2,-16(fp)
  804ba4:	10c00185 	stb	r3,6(r2)
  804ba8:	00800044 	movi	r2,1
  804bac:	0000c806 	br	804ed0 <f_write+0x570>
  804bb0:	e0bffc17 	ldw	r2,-16(fp)
  804bb4:	10c00183 	ldbu	r3,6(r2)
  804bb8:	00bfefc4 	movi	r2,-65
  804bbc:	1884703a 	and	r2,r3,r2
  804bc0:	1007883a 	mov	r3,r2
  804bc4:	e0bffc17 	ldw	r2,-16(fp)
  804bc8:	10c00185 	stb	r3,6(r2)
  804bcc:	e0bffc17 	ldw	r2,-16(fp)
  804bd0:	10c00017 	ldw	r3,0(r2)
  804bd4:	e0bffc17 	ldw	r2,-16(fp)
  804bd8:	10800517 	ldw	r2,20(r2)
  804bdc:	100b883a 	mov	r5,r2
  804be0:	1809883a 	mov	r4,r3
  804be4:	0801ad80 	call	801ad8 <clust2sect>
  804be8:	e0bffb15 	stw	r2,-20(fp)
  804bec:	e0bffb17 	ldw	r2,-20(fp)
  804bf0:	1000091e 	bne	r2,zero,804c18 <f_write+0x2b8>
  804bf4:	e0bffc17 	ldw	r2,-16(fp)
  804bf8:	10c00183 	ldbu	r3,6(r2)
  804bfc:	00bfe004 	movi	r2,-128
  804c00:	1884b03a 	or	r2,r3,r2
  804c04:	1007883a 	mov	r3,r2
  804c08:	e0bffc17 	ldw	r2,-16(fp)
  804c0c:	10c00185 	stb	r3,6(r2)
  804c10:	00800084 	movi	r2,2
  804c14:	0000ae06 	br	804ed0 <f_write+0x570>
  804c18:	e0bffa03 	ldbu	r2,-24(fp)
  804c1c:	e0fffb17 	ldw	r3,-20(fp)
  804c20:	1885883a 	add	r2,r3,r2
  804c24:	e0bffb15 	stw	r2,-20(fp)
  804c28:	e0bffe17 	ldw	r2,-8(fp)
  804c2c:	1004d27a 	srli	r2,r2,9
  804c30:	e0bff715 	stw	r2,-36(fp)
  804c34:	e0bff717 	ldw	r2,-36(fp)
  804c38:	10004126 	beq	r2,zero,804d40 <f_write+0x3e0>
  804c3c:	e0fffa03 	ldbu	r3,-24(fp)
  804c40:	e0bff717 	ldw	r2,-36(fp)
  804c44:	1885883a 	add	r2,r3,r2
  804c48:	e0fffc17 	ldw	r3,-16(fp)
  804c4c:	18c00017 	ldw	r3,0(r3)
  804c50:	18c00083 	ldbu	r3,2(r3)
  804c54:	18c03fcc 	andi	r3,r3,255
  804c58:	1880072e 	bgeu	r3,r2,804c78 <f_write+0x318>
  804c5c:	e0bffc17 	ldw	r2,-16(fp)
  804c60:	10800017 	ldw	r2,0(r2)
  804c64:	10800083 	ldbu	r2,2(r2)
  804c68:	10c03fcc 	andi	r3,r2,255
  804c6c:	e0bffa03 	ldbu	r2,-24(fp)
  804c70:	1885c83a 	sub	r2,r3,r2
  804c74:	e0bff715 	stw	r2,-36(fp)
  804c78:	e0bffc17 	ldw	r2,-16(fp)
  804c7c:	10800017 	ldw	r2,0(r2)
  804c80:	10800043 	ldbu	r2,1(r2)
  804c84:	10c03fcc 	andi	r3,r2,255
  804c88:	e0bff717 	ldw	r2,-36(fp)
  804c8c:	10803fcc 	andi	r2,r2,255
  804c90:	100f883a 	mov	r7,r2
  804c94:	e1bffb17 	ldw	r6,-20(fp)
  804c98:	e17ff817 	ldw	r5,-32(fp)
  804c9c:	1809883a 	mov	r4,r3
  804ca0:	0800f280 	call	800f28 <ffs_DiskIOWrite>
  804ca4:	10000926 	beq	r2,zero,804ccc <f_write+0x36c>
  804ca8:	e0bffc17 	ldw	r2,-16(fp)
  804cac:	10c00183 	ldbu	r3,6(r2)
  804cb0:	00bfe004 	movi	r2,-128
  804cb4:	1884b03a 	or	r2,r3,r2
  804cb8:	1007883a 	mov	r3,r2
  804cbc:	e0bffc17 	ldw	r2,-16(fp)
  804cc0:	10c00185 	stb	r3,6(r2)
  804cc4:	00800044 	movi	r2,1
  804cc8:	00008106 	br	804ed0 <f_write+0x570>
  804ccc:	e0bffc17 	ldw	r2,-16(fp)
  804cd0:	10c00617 	ldw	r3,24(r2)
  804cd4:	e0bffb17 	ldw	r2,-20(fp)
  804cd8:	1887c83a 	sub	r3,r3,r2
  804cdc:	e0bff717 	ldw	r2,-36(fp)
  804ce0:	1880132e 	bgeu	r3,r2,804d30 <f_write+0x3d0>
  804ce4:	e0bffc17 	ldw	r2,-16(fp)
  804ce8:	11000904 	addi	r4,r2,36
  804cec:	e0bffc17 	ldw	r2,-16(fp)
  804cf0:	10c00617 	ldw	r3,24(r2)
  804cf4:	e0bffb17 	ldw	r2,-20(fp)
  804cf8:	1885c83a 	sub	r2,r3,r2
  804cfc:	1004927a 	slli	r2,r2,9
  804d00:	e0fff817 	ldw	r3,-32(fp)
  804d04:	1885883a 	add	r2,r3,r2
  804d08:	01808004 	movi	r6,512
  804d0c:	100b883a 	mov	r5,r2
  804d10:	08015880 	call	801588 <mem_cpy>
  804d14:	e0bffc17 	ldw	r2,-16(fp)
  804d18:	10c00183 	ldbu	r3,6(r2)
  804d1c:	00bfefc4 	movi	r2,-65
  804d20:	1884703a 	and	r2,r3,r2
  804d24:	1007883a 	mov	r3,r2
  804d28:	e0bffc17 	ldw	r2,-16(fp)
  804d2c:	10c00185 	stb	r3,6(r2)
  804d30:	e0bff717 	ldw	r2,-36(fp)
  804d34:	1004927a 	slli	r2,r2,9
  804d38:	e0bff615 	stw	r2,-40(fp)
  804d3c:	00003c06 	br	804e30 <f_write+0x4d0>
  804d40:	e0bffc17 	ldw	r2,-16(fp)
  804d44:	10c00617 	ldw	r3,24(r2)
  804d48:	e0bffb17 	ldw	r2,-20(fp)
  804d4c:	18801a26 	beq	r3,r2,804db8 <f_write+0x458>
  804d50:	e0bffc17 	ldw	r2,-16(fp)
  804d54:	10c00217 	ldw	r3,8(r2)
  804d58:	e0bffc17 	ldw	r2,-16(fp)
  804d5c:	10800317 	ldw	r2,12(r2)
  804d60:	1880152e 	bgeu	r3,r2,804db8 <f_write+0x458>
  804d64:	e0bffc17 	ldw	r2,-16(fp)
  804d68:	10800017 	ldw	r2,0(r2)
  804d6c:	10800043 	ldbu	r2,1(r2)
  804d70:	10c03fcc 	andi	r3,r2,255
  804d74:	e0bffc17 	ldw	r2,-16(fp)
  804d78:	10800904 	addi	r2,r2,36
  804d7c:	01c00044 	movi	r7,1
  804d80:	e1bffb17 	ldw	r6,-20(fp)
  804d84:	100b883a 	mov	r5,r2
  804d88:	1809883a 	mov	r4,r3
  804d8c:	0800e080 	call	800e08 <ffs_DiskIORead>
  804d90:	10000926 	beq	r2,zero,804db8 <f_write+0x458>
  804d94:	e0bffc17 	ldw	r2,-16(fp)
  804d98:	10c00183 	ldbu	r3,6(r2)
  804d9c:	00bfe004 	movi	r2,-128
  804da0:	1884b03a 	or	r2,r3,r2
  804da4:	1007883a 	mov	r3,r2
  804da8:	e0bffc17 	ldw	r2,-16(fp)
  804dac:	10c00185 	stb	r3,6(r2)
  804db0:	00800044 	movi	r2,1
  804db4:	00004606 	br	804ed0 <f_write+0x570>
  804db8:	e0bffc17 	ldw	r2,-16(fp)
  804dbc:	e0fffb17 	ldw	r3,-20(fp)
  804dc0:	10c00615 	stw	r3,24(r2)
  804dc4:	e0bffc17 	ldw	r2,-16(fp)
  804dc8:	10800217 	ldw	r2,8(r2)
  804dcc:	10807fcc 	andi	r2,r2,511
  804dd0:	00c08004 	movi	r3,512
  804dd4:	1885c83a 	sub	r2,r3,r2
  804dd8:	e0bff615 	stw	r2,-40(fp)
  804ddc:	e0bff617 	ldw	r2,-40(fp)
  804de0:	e0fffe17 	ldw	r3,-8(fp)
  804de4:	1880022e 	bgeu	r3,r2,804df0 <f_write+0x490>
  804de8:	e0bffe17 	ldw	r2,-8(fp)
  804dec:	e0bff615 	stw	r2,-40(fp)
  804df0:	e0bffc17 	ldw	r2,-16(fp)
  804df4:	10800217 	ldw	r2,8(r2)
  804df8:	10807fcc 	andi	r2,r2,511
  804dfc:	10800904 	addi	r2,r2,36
  804e00:	e0fffc17 	ldw	r3,-16(fp)
  804e04:	1885883a 	add	r2,r3,r2
  804e08:	e1bff617 	ldw	r6,-40(fp)
  804e0c:	e17ff817 	ldw	r5,-32(fp)
  804e10:	1009883a 	mov	r4,r2
  804e14:	08015880 	call	801588 <mem_cpy>
  804e18:	e0bffc17 	ldw	r2,-16(fp)
  804e1c:	10800183 	ldbu	r2,6(r2)
  804e20:	10801014 	ori	r2,r2,64
  804e24:	1007883a 	mov	r3,r2
  804e28:	e0bffc17 	ldw	r2,-16(fp)
  804e2c:	10c00185 	stb	r3,6(r2)
  804e30:	e0fff817 	ldw	r3,-32(fp)
  804e34:	e0bff617 	ldw	r2,-40(fp)
  804e38:	1885883a 	add	r2,r3,r2
  804e3c:	e0bff815 	stw	r2,-32(fp)
  804e40:	e0bffc17 	ldw	r2,-16(fp)
  804e44:	10c00217 	ldw	r3,8(r2)
  804e48:	e0bff617 	ldw	r2,-40(fp)
  804e4c:	1887883a 	add	r3,r3,r2
  804e50:	e0bffc17 	ldw	r2,-16(fp)
  804e54:	10c00215 	stw	r3,8(r2)
  804e58:	e0bfff17 	ldw	r2,-4(fp)
  804e5c:	10c00017 	ldw	r3,0(r2)
  804e60:	e0bff617 	ldw	r2,-40(fp)
  804e64:	1887883a 	add	r3,r3,r2
  804e68:	e0bfff17 	ldw	r2,-4(fp)
  804e6c:	10c00015 	stw	r3,0(r2)
  804e70:	e0fffe17 	ldw	r3,-8(fp)
  804e74:	e0bff617 	ldw	r2,-40(fp)
  804e78:	1885c83a 	sub	r2,r3,r2
  804e7c:	e0bffe15 	stw	r2,-8(fp)
  804e80:	e0bffe17 	ldw	r2,-8(fp)
  804e84:	103ee71e 	bne	r2,zero,804a24 <__alt_data_end+0xff804a24>
  804e88:	00000106 	br	804e90 <f_write+0x530>
  804e8c:	0001883a 	nop
  804e90:	e0bffc17 	ldw	r2,-16(fp)
  804e94:	10800217 	ldw	r2,8(r2)
  804e98:	e0fffc17 	ldw	r3,-16(fp)
  804e9c:	18c00317 	ldw	r3,12(r3)
  804ea0:	1880042e 	bgeu	r3,r2,804eb4 <f_write+0x554>
  804ea4:	e0bffc17 	ldw	r2,-16(fp)
  804ea8:	10c00217 	ldw	r3,8(r2)
  804eac:	e0bffc17 	ldw	r2,-16(fp)
  804eb0:	10c00315 	stw	r3,12(r2)
  804eb4:	e0bffc17 	ldw	r2,-16(fp)
  804eb8:	10800183 	ldbu	r2,6(r2)
  804ebc:	10800814 	ori	r2,r2,32
  804ec0:	1007883a 	mov	r3,r2
  804ec4:	e0bffc17 	ldw	r2,-16(fp)
  804ec8:	10c00185 	stb	r3,6(r2)
  804ecc:	0005883a 	mov	r2,zero
  804ed0:	e037883a 	mov	sp,fp
  804ed4:	dfc00117 	ldw	ra,4(sp)
  804ed8:	df000017 	ldw	fp,0(sp)
  804edc:	dec00204 	addi	sp,sp,8
  804ee0:	f800283a 	ret

00804ee4 <f_sync>:
  804ee4:	defffa04 	addi	sp,sp,-24
  804ee8:	dfc00515 	stw	ra,20(sp)
  804eec:	df000415 	stw	fp,16(sp)
  804ef0:	df000404 	addi	fp,sp,16
  804ef4:	e13fff15 	stw	r4,-4(fp)
  804ef8:	e0bfff17 	ldw	r2,-4(fp)
  804efc:	10c00017 	ldw	r3,0(r2)
  804f00:	e0bfff17 	ldw	r2,-4(fp)
  804f04:	1080010b 	ldhu	r2,4(r2)
  804f08:	10bfffcc 	andi	r2,r2,65535
  804f0c:	100b883a 	mov	r5,r2
  804f10:	1809883a 	mov	r4,r3
  804f14:	0803ed00 	call	803ed0 <validate>
  804f18:	e0bffc15 	stw	r2,-16(fp)
  804f1c:	e0bffc17 	ldw	r2,-16(fp)
  804f20:	10008c1e 	bne	r2,zero,805154 <f_sync+0x270>
  804f24:	e0bfff17 	ldw	r2,-4(fp)
  804f28:	10800183 	ldbu	r2,6(r2)
  804f2c:	10803fcc 	andi	r2,r2,255
  804f30:	1080080c 	andi	r2,r2,32
  804f34:	10008726 	beq	r2,zero,805154 <f_sync+0x270>
  804f38:	e0bfff17 	ldw	r2,-4(fp)
  804f3c:	10800183 	ldbu	r2,6(r2)
  804f40:	10803fcc 	andi	r2,r2,255
  804f44:	1080100c 	andi	r2,r2,64
  804f48:	10001726 	beq	r2,zero,804fa8 <f_sync+0xc4>
  804f4c:	e0bfff17 	ldw	r2,-4(fp)
  804f50:	10800017 	ldw	r2,0(r2)
  804f54:	10800043 	ldbu	r2,1(r2)
  804f58:	10c03fcc 	andi	r3,r2,255
  804f5c:	e0bfff17 	ldw	r2,-4(fp)
  804f60:	11000904 	addi	r4,r2,36
  804f64:	e0bfff17 	ldw	r2,-4(fp)
  804f68:	10800617 	ldw	r2,24(r2)
  804f6c:	01c00044 	movi	r7,1
  804f70:	100d883a 	mov	r6,r2
  804f74:	200b883a 	mov	r5,r4
  804f78:	1809883a 	mov	r4,r3
  804f7c:	0800f280 	call	800f28 <ffs_DiskIOWrite>
  804f80:	10000226 	beq	r2,zero,804f8c <f_sync+0xa8>
  804f84:	00800044 	movi	r2,1
  804f88:	00007306 	br	805158 <f_sync+0x274>
  804f8c:	e0bfff17 	ldw	r2,-4(fp)
  804f90:	10c00183 	ldbu	r3,6(r2)
  804f94:	00bfefc4 	movi	r2,-65
  804f98:	1884703a 	and	r2,r3,r2
  804f9c:	1007883a 	mov	r3,r2
  804fa0:	e0bfff17 	ldw	r2,-4(fp)
  804fa4:	10c00185 	stb	r3,6(r2)
  804fa8:	e0bfff17 	ldw	r2,-4(fp)
  804fac:	10c00017 	ldw	r3,0(r2)
  804fb0:	e0bfff17 	ldw	r2,-4(fp)
  804fb4:	10800717 	ldw	r2,28(r2)
  804fb8:	100b883a 	mov	r5,r2
  804fbc:	1809883a 	mov	r4,r3
  804fc0:	080175c0 	call	80175c <move_window>
  804fc4:	e0bffc15 	stw	r2,-16(fp)
  804fc8:	e0bffc17 	ldw	r2,-16(fp)
  804fcc:	1000611e 	bne	r2,zero,805154 <f_sync+0x270>
  804fd0:	e0bfff17 	ldw	r2,-4(fp)
  804fd4:	10800817 	ldw	r2,32(r2)
  804fd8:	e0bffd15 	stw	r2,-12(fp)
  804fdc:	e0bffd17 	ldw	r2,-12(fp)
  804fe0:	108002c4 	addi	r2,r2,11
  804fe4:	e0fffd17 	ldw	r3,-12(fp)
  804fe8:	18c002c4 	addi	r3,r3,11
  804fec:	18c00003 	ldbu	r3,0(r3)
  804ff0:	18c00814 	ori	r3,r3,32
  804ff4:	10c00005 	stb	r3,0(r2)
  804ff8:	e0bffd17 	ldw	r2,-12(fp)
  804ffc:	10800704 	addi	r2,r2,28
  805000:	e0ffff17 	ldw	r3,-4(fp)
  805004:	18c00317 	ldw	r3,12(r3)
  805008:	10c00005 	stb	r3,0(r2)
  80500c:	e0bffd17 	ldw	r2,-12(fp)
  805010:	10800744 	addi	r2,r2,29
  805014:	e0ffff17 	ldw	r3,-4(fp)
  805018:	18c00317 	ldw	r3,12(r3)
  80501c:	18ffffcc 	andi	r3,r3,65535
  805020:	1807d23a 	srai	r3,r3,8
  805024:	10c00005 	stb	r3,0(r2)
  805028:	e0bffd17 	ldw	r2,-12(fp)
  80502c:	10800784 	addi	r2,r2,30
  805030:	e0ffff17 	ldw	r3,-4(fp)
  805034:	18c00317 	ldw	r3,12(r3)
  805038:	1806d43a 	srli	r3,r3,16
  80503c:	10c00005 	stb	r3,0(r2)
  805040:	e0bffd17 	ldw	r2,-12(fp)
  805044:	108007c4 	addi	r2,r2,31
  805048:	e0ffff17 	ldw	r3,-4(fp)
  80504c:	18c00317 	ldw	r3,12(r3)
  805050:	1806d63a 	srli	r3,r3,24
  805054:	10c00005 	stb	r3,0(r2)
  805058:	e0bffd17 	ldw	r2,-12(fp)
  80505c:	10800684 	addi	r2,r2,26
  805060:	e0ffff17 	ldw	r3,-4(fp)
  805064:	18c00417 	ldw	r3,16(r3)
  805068:	10c00005 	stb	r3,0(r2)
  80506c:	e0bffd17 	ldw	r2,-12(fp)
  805070:	108006c4 	addi	r2,r2,27
  805074:	e0ffff17 	ldw	r3,-4(fp)
  805078:	18c00417 	ldw	r3,16(r3)
  80507c:	18ffffcc 	andi	r3,r3,65535
  805080:	1807d23a 	srai	r3,r3,8
  805084:	10c00005 	stb	r3,0(r2)
  805088:	e0bffd17 	ldw	r2,-12(fp)
  80508c:	10800504 	addi	r2,r2,20
  805090:	e0ffff17 	ldw	r3,-4(fp)
  805094:	18c00417 	ldw	r3,16(r3)
  805098:	1806d43a 	srli	r3,r3,16
  80509c:	10c00005 	stb	r3,0(r2)
  8050a0:	e0bffd17 	ldw	r2,-12(fp)
  8050a4:	10800544 	addi	r2,r2,21
  8050a8:	e0ffff17 	ldw	r3,-4(fp)
  8050ac:	18c00417 	ldw	r3,16(r3)
  8050b0:	1806d43a 	srli	r3,r3,16
  8050b4:	1807d23a 	srai	r3,r3,8
  8050b8:	10c00005 	stb	r3,0(r2)
  8050bc:	080155c0 	call	80155c <get_fattime>
  8050c0:	e0bffe15 	stw	r2,-8(fp)
  8050c4:	e0bffd17 	ldw	r2,-12(fp)
  8050c8:	10800584 	addi	r2,r2,22
  8050cc:	e0fffe17 	ldw	r3,-8(fp)
  8050d0:	10c00005 	stb	r3,0(r2)
  8050d4:	e0bffd17 	ldw	r2,-12(fp)
  8050d8:	108005c4 	addi	r2,r2,23
  8050dc:	e0fffe17 	ldw	r3,-8(fp)
  8050e0:	18ffffcc 	andi	r3,r3,65535
  8050e4:	1807d23a 	srai	r3,r3,8
  8050e8:	10c00005 	stb	r3,0(r2)
  8050ec:	e0bffd17 	ldw	r2,-12(fp)
  8050f0:	10800604 	addi	r2,r2,24
  8050f4:	e0fffe17 	ldw	r3,-8(fp)
  8050f8:	1806d43a 	srli	r3,r3,16
  8050fc:	10c00005 	stb	r3,0(r2)
  805100:	e0bffd17 	ldw	r2,-12(fp)
  805104:	10800644 	addi	r2,r2,25
  805108:	e0fffe17 	ldw	r3,-8(fp)
  80510c:	1806d63a 	srli	r3,r3,24
  805110:	10c00005 	stb	r3,0(r2)
  805114:	e0bfff17 	ldw	r2,-4(fp)
  805118:	10c00183 	ldbu	r3,6(r2)
  80511c:	00bff7c4 	movi	r2,-33
  805120:	1884703a 	and	r2,r3,r2
  805124:	1007883a 	mov	r3,r2
  805128:	e0bfff17 	ldw	r2,-4(fp)
  80512c:	10c00185 	stb	r3,6(r2)
  805130:	e0bfff17 	ldw	r2,-4(fp)
  805134:	10800017 	ldw	r2,0(r2)
  805138:	00c00044 	movi	r3,1
  80513c:	10c00105 	stb	r3,4(r2)
  805140:	e0bfff17 	ldw	r2,-4(fp)
  805144:	10800017 	ldw	r2,0(r2)
  805148:	1009883a 	mov	r4,r2
  80514c:	08018b80 	call	8018b8 <sync>
  805150:	e0bffc15 	stw	r2,-16(fp)
  805154:	e0bffc17 	ldw	r2,-16(fp)
  805158:	e037883a 	mov	sp,fp
  80515c:	dfc00117 	ldw	ra,4(sp)
  805160:	df000017 	ldw	fp,0(sp)
  805164:	dec00204 	addi	sp,sp,8
  805168:	f800283a 	ret

0080516c <f_close>:
  80516c:	defffc04 	addi	sp,sp,-16
  805170:	dfc00315 	stw	ra,12(sp)
  805174:	df000215 	stw	fp,8(sp)
  805178:	df000204 	addi	fp,sp,8
  80517c:	e13fff15 	stw	r4,-4(fp)
  805180:	e13fff17 	ldw	r4,-4(fp)
  805184:	0804ee40 	call	804ee4 <f_sync>
  805188:	e0bffe15 	stw	r2,-8(fp)
  80518c:	e0bffe17 	ldw	r2,-8(fp)
  805190:	1000021e 	bne	r2,zero,80519c <f_close+0x30>
  805194:	e0bfff17 	ldw	r2,-4(fp)
  805198:	10000015 	stw	zero,0(r2)
  80519c:	e0bffe17 	ldw	r2,-8(fp)
  8051a0:	e037883a 	mov	sp,fp
  8051a4:	dfc00117 	ldw	ra,4(sp)
  8051a8:	df000017 	ldw	fp,0(sp)
  8051ac:	dec00204 	addi	sp,sp,8
  8051b0:	f800283a 	ret

008051b4 <f_lseek>:
  8051b4:	defff604 	addi	sp,sp,-40
  8051b8:	dfc00915 	stw	ra,36(sp)
  8051bc:	df000815 	stw	fp,32(sp)
  8051c0:	dc000715 	stw	r16,28(sp)
  8051c4:	df000804 	addi	fp,sp,32
  8051c8:	e13ffd15 	stw	r4,-12(fp)
  8051cc:	e17ffe15 	stw	r5,-8(fp)
  8051d0:	e0bffd17 	ldw	r2,-12(fp)
  8051d4:	10c00017 	ldw	r3,0(r2)
  8051d8:	e0bffd17 	ldw	r2,-12(fp)
  8051dc:	1080010b 	ldhu	r2,4(r2)
  8051e0:	10bfffcc 	andi	r2,r2,65535
  8051e4:	100b883a 	mov	r5,r2
  8051e8:	1809883a 	mov	r4,r3
  8051ec:	0803ed00 	call	803ed0 <validate>
  8051f0:	e0bffa15 	stw	r2,-24(fp)
  8051f4:	e0bffa17 	ldw	r2,-24(fp)
  8051f8:	10000226 	beq	r2,zero,805204 <f_lseek+0x50>
  8051fc:	e0bffa17 	ldw	r2,-24(fp)
  805200:	00012206 	br	80568c <f_lseek+0x4d8>
  805204:	e0bffd17 	ldw	r2,-12(fp)
  805208:	10800183 	ldbu	r2,6(r2)
  80520c:	10803fcc 	andi	r2,r2,255
  805210:	1080201c 	xori	r2,r2,128
  805214:	10bfe004 	addi	r2,r2,-128
  805218:	1000020e 	bge	r2,zero,805224 <f_lseek+0x70>
  80521c:	00800084 	movi	r2,2
  805220:	00011a06 	br	80568c <f_lseek+0x4d8>
  805224:	e0bffd17 	ldw	r2,-12(fp)
  805228:	10c00317 	ldw	r3,12(r2)
  80522c:	e0bffe17 	ldw	r2,-8(fp)
  805230:	1880082e 	bgeu	r3,r2,805254 <f_lseek+0xa0>
  805234:	e0bffd17 	ldw	r2,-12(fp)
  805238:	10800183 	ldbu	r2,6(r2)
  80523c:	10803fcc 	andi	r2,r2,255
  805240:	1080008c 	andi	r2,r2,2
  805244:	1000031e 	bne	r2,zero,805254 <f_lseek+0xa0>
  805248:	e0bffd17 	ldw	r2,-12(fp)
  80524c:	10800317 	ldw	r2,12(r2)
  805250:	e0bffe15 	stw	r2,-8(fp)
  805254:	e0bffd17 	ldw	r2,-12(fp)
  805258:	10800217 	ldw	r2,8(r2)
  80525c:	e0bffb15 	stw	r2,-20(fp)
  805260:	e03ff915 	stw	zero,-28(fp)
  805264:	e0bffd17 	ldw	r2,-12(fp)
  805268:	e0fff917 	ldw	r3,-28(fp)
  80526c:	10c00215 	stw	r3,8(r2)
  805270:	e0bffe17 	ldw	r2,-8(fp)
  805274:	1000b226 	beq	r2,zero,805540 <f_lseek+0x38c>
  805278:	e0bffd17 	ldw	r2,-12(fp)
  80527c:	10800017 	ldw	r2,0(r2)
  805280:	10800083 	ldbu	r2,2(r2)
  805284:	10803fcc 	andi	r2,r2,255
  805288:	1004927a 	slli	r2,r2,9
  80528c:	e0bffc15 	stw	r2,-16(fp)
  805290:	e0bffb17 	ldw	r2,-20(fp)
  805294:	10001c26 	beq	r2,zero,805308 <f_lseek+0x154>
  805298:	e0bffe17 	ldw	r2,-8(fp)
  80529c:	10bfffc4 	addi	r2,r2,-1
  8052a0:	e17ffc17 	ldw	r5,-16(fp)
  8052a4:	1009883a 	mov	r4,r2
  8052a8:	08096d80 	call	8096d8 <__udivsi3>
  8052ac:	1021883a 	mov	r16,r2
  8052b0:	e0bffb17 	ldw	r2,-20(fp)
  8052b4:	10bfffc4 	addi	r2,r2,-1
  8052b8:	e17ffc17 	ldw	r5,-16(fp)
  8052bc:	1009883a 	mov	r4,r2
  8052c0:	08096d80 	call	8096d8 <__udivsi3>
  8052c4:	80801036 	bltu	r16,r2,805308 <f_lseek+0x154>
  8052c8:	e0bffb17 	ldw	r2,-20(fp)
  8052cc:	10ffffc4 	addi	r3,r2,-1
  8052d0:	e0bffc17 	ldw	r2,-16(fp)
  8052d4:	0085c83a 	sub	r2,zero,r2
  8052d8:	1886703a 	and	r3,r3,r2
  8052dc:	e0bffd17 	ldw	r2,-12(fp)
  8052e0:	10c00215 	stw	r3,8(r2)
  8052e4:	e0bffd17 	ldw	r2,-12(fp)
  8052e8:	10800217 	ldw	r2,8(r2)
  8052ec:	e0fffe17 	ldw	r3,-8(fp)
  8052f0:	1885c83a 	sub	r2,r3,r2
  8052f4:	e0bffe15 	stw	r2,-8(fp)
  8052f8:	e0bffd17 	ldw	r2,-12(fp)
  8052fc:	10800517 	ldw	r2,20(r2)
  805300:	e0bff815 	stw	r2,-32(fp)
  805304:	00002906 	br	8053ac <f_lseek+0x1f8>
  805308:	e0bffd17 	ldw	r2,-12(fp)
  80530c:	10800417 	ldw	r2,16(r2)
  805310:	e0bff815 	stw	r2,-32(fp)
  805314:	e0bff817 	ldw	r2,-32(fp)
  805318:	1000211e 	bne	r2,zero,8053a0 <f_lseek+0x1ec>
  80531c:	e0bffd17 	ldw	r2,-12(fp)
  805320:	10800017 	ldw	r2,0(r2)
  805324:	000b883a 	mov	r5,zero
  805328:	1009883a 	mov	r4,r2
  80532c:	08022700 	call	802270 <create_chain>
  805330:	e0bff815 	stw	r2,-32(fp)
  805334:	e0bff817 	ldw	r2,-32(fp)
  805338:	10800058 	cmpnei	r2,r2,1
  80533c:	1000091e 	bne	r2,zero,805364 <f_lseek+0x1b0>
  805340:	e0bffd17 	ldw	r2,-12(fp)
  805344:	10c00183 	ldbu	r3,6(r2)
  805348:	00bfe004 	movi	r2,-128
  80534c:	1884b03a 	or	r2,r3,r2
  805350:	1007883a 	mov	r3,r2
  805354:	e0bffd17 	ldw	r2,-12(fp)
  805358:	10c00185 	stb	r3,6(r2)
  80535c:	00800084 	movi	r2,2
  805360:	0000ca06 	br	80568c <f_lseek+0x4d8>
